 gmsv_navigation_win32

 Timestamp is 5786e7d6 (Wed Jul 13 18:16:06 2016)

 Preferred load address is 10000000

 Start         Length     Name                   Class
 0001:00000000 00000260H .text                   CODE
 0001:00000260 000008b0H .text$di                CODE
 0001:00000b10 00032a30H .text$mn                CODE
 0001:00033540 00001360H .text$x                 CODE
 0001:000348a0 00000275H .text$yd                CODE
 0002:00000000 00000190H .idata$5                DATA
 0002:00000190 00000004H .00cfg                  DATA
 0002:00000194 00000004H .CRT$XCA                DATA
 0002:00000198 00000104H .CRT$XCU                DATA
 0002:0000029c 00000004H .CRT$XCZ                DATA
 0002:000002a0 00000004H .CRT$XIA                DATA
 0002:000002a4 00000014H .CRT$XIC                DATA
 0002:000002b8 00000004H .CRT$XIU                DATA
 0002:000002bc 00000004H .CRT$XIZ                DATA
 0002:000002c0 00000004H .CRT$XLA                DATA
 0002:000002c4 00000004H .CRT$XLC                DATA
 0002:000002c8 00000004H .CRT$XLZ                DATA
 0002:000002cc 00000004H .CRT$XPA                DATA
 0002:000002d0 00000008H .CRT$XPX                DATA
 0002:000002d8 00000004H .CRT$XPXA               DATA
 0002:000002dc 00000004H .CRT$XPZ                DATA
 0002:000002e0 00000004H .CRT$XTA                DATA
 0002:000002e4 00000004H .CRT$XTU                DATA
 0002:000002e8 00000008H .CRT$XTZ                DATA
 0002:000002f0 0000af3cH .rdata                  DATA
 0002:0000b22c 00000018H .rdata$T                DATA
 0002:0000b244 000012ecH .rdata$r                DATA
 0002:0000c530 000001b0H .rdata$sxdata           DATA
 0002:0000c6e0 00000010H .rdata$zETW0            DATA
 0002:0000c6f0 00000077H .rdata$zETW1            DATA
 0002:0000c767 0000002cH .rdata$zETW2            DATA
 0002:0000c793 00000001H .rdata$zETW9            DATA
 0002:0000c794 000004acH .rdata$zzzdbg           DATA
 0002:0000cc40 00000004H .rtc$IAA                DATA
 0002:0000cc44 00000004H .rtc$IZZ                DATA
 0002:0000cc48 00000004H .rtc$TAA                DATA
 0002:0000cc4c 00000004H .rtc$TZZ                DATA
 0002:0000cc50 00002320H .xdata$x                DATA
 0002:0000ef70 0000008cH .edata                  DATA
 0002:0000effc 0000003cH .idata$2                DATA
 0002:0000f038 00000014H .idata$3                DATA
 0002:0000f04c 00000190H .idata$4                DATA
 0002:0000f1dc 00000722H .idata$6                DATA
 0003:00000000 000008f0H .data                   DATA
 0003:000008f0 00000da8H .data$r                 DATA
 0003:00001698 00000c18H .bss                    DATA
 0004:00000000 00000090H .gfids$x                DATA
 0004:00000090 00000088H .gfids$y                DATA
 0005:00000000 00000004H .tls                    DATA
 0005:00000004 00000004H .tls$                   DATA
 0005:00000008 00000001H .tls$ZZZ                DATA
 0006:00000000 00000060H .rsrc$01                DATA
 0006:00000060 00000180H .rsrc$02                DATA

  Address         Publics by Value              Rva+Base       Lib:Object

 0000:00000000       __except_list              00000000     <absolute>
 0000:00000000       ___guard_longjmp_count     00000000     <absolute>
 0000:00000000       ___guard_fids_count        00000000     <absolute>
 0000:00000000       ___guard_fids_table        00000000     <absolute>
 0000:00000000       ___guard_longjmp_table     00000000     <absolute>
 0000:00000000       ___guard_iat_table         00000000     <absolute>
 0000:00000000       ___guard_iat_count         00000000     <absolute>
 0000:00000000       ___dynamic_value_reloc_table 00000000     <absolute>
 0000:0000002c       __tls_array                0000002c     <absolute>
 0000:0000006b       ___safe_se_handler_count   0000006b     <absolute>
 0000:00000100       ___guard_flags             00000100     <absolute>
 0000:00000000       ___ImageBase               10000000     <linker-defined>
 0001:00000000       ?TraceLoggingRegister@__vcrt_trace_logging_provider@@YAJPBU_TlgProvider_t@1@PBU_GUID@@P6GX1KE_K2PAU_EVENT_FILTER_DESCRIPTOR@@PAX@Z4@Z 10001000 f i libvcruntime:telemetry.obj
 0001:0000005d       ?TraceLoggingSetInformation@__vcrt_trace_logging_provider@@YAJPBU_TlgProvider_t@1@W4_EVENT_INFO_CLASS@@PAXK@Z 1000105d f i libvcruntime:telemetry.obj
 0001:00000088       ?TraceLoggingUnregister@__vcrt_trace_logging_provider@@YAXPBU_TlgProvider_t@1@@Z 10001088 f i libvcruntime:telemetry.obj
 0001:000000a7       ?_TlgCreateSz@__vcrt_trace_logging_provider@@YAXPAU_EVENT_DATA_DESCRIPTOR@@PBD@Z 100010a7 f i libvcruntime:telemetry.obj
 0001:000000df       ?_TlgCreateWsz@__vcrt_trace_logging_provider@@YAXPAU_EVENT_DATA_DESCRIPTOR@@PB_W@Z 100010df f i libvcruntime:telemetry.obj
 0001:00000123       ?_TlgEnableCallback@__vcrt_trace_logging_provider@@YGXPBU_GUID@@KE_K1PAU_EVENT_FILTER_DESCRIPTOR@@PAX@Z 10001123 f i libvcruntime:telemetry.obj
 0001:0000019b       ?_TlgKeywordOn@__vcrt_trace_logging_provider@@YAEPBU_TlgProvider_t@1@_K@Z 1000119b f i libvcruntime:telemetry.obj
 0001:000001d7       ?_TlgWrite@__vcrt_trace_logging_provider@@YAJPBU_TlgProvider_t@1@PBXPBU_GUID@@2IPAU_EVENT_DATA_DESCRIPTOR@@@Z 100011d7 f i libvcruntime:telemetry.obj
 0001:00000b10       ___local_stdio_printf_options 10001b10 f i ILuaInterface.obj
 0001:00000b1a       __vsprintf_s_l             10001b1a f i ILuaInterface.obj
 0001:00000b5c       _vsprintf_s                10001b5c f i ILuaInterface.obj
 0001:00000b77       ??2@YAPAXIPAX@Z            10001b77 f i ILuaInterface.obj
 0001:00000b7f       _fabsf                     10001b7f f i ILuaInterface.obj
 0001:00000b9f       ??0Vector2D@@QAE@MM@Z      10001b9f f i ILuaInterface.obj
 0001:00000bc8       ??_H@YGXPAXIIP6EPAX0@Z@Z   10001bc8 f i ILuaInterface.obj
 0001:00000bf6       ?UtlMemory_CalcNewAllocationCount@@YAHHHHH@Z 10001bf6 f i ILuaInterface.obj
 0001:00000c3b       ?V_memmove@@YAXPAXPBXH@Z   10001c3b f i ILuaInterface.obj
 0001:00000c51       ??0ILuaInterface@@QAE@PAUlua_State@@@Z 10001c51 f   ILuaInterface.obj
 0001:00000de6       ??1ILuaInterface@@QAE@XZ   10001de6 f   ILuaInterface.obj
 0001:00000e47       ?GetNewTable@ILuaInterface@@QAEPAVILuaObject@@XZ 10001e47 f   ILuaInterface.obj
 0001:00000ece       ?NewTable@ILuaInterface@@QAEXXZ 10001ece f   ILuaInterface.obj
 0001:00000eea       ?PushUserData@ILuaInterface@@QAEXPAVILuaObject@@PAXE@Z 10001eea f   ILuaInterface.obj
 0001:00000f95       ?Error@ILuaInterface@@QAAXPBDZZ 10001f95 f   ILuaInterface.obj
 0001:00000ffb       ?LuaError@ILuaInterface@@QAEXPBDH@Z 10001ffb f   ILuaInterface.obj
 0001:0000101f       ?GetGlobal@ILuaInterface@@QAEPAVILuaObject@@PBD@Z 1000201f f   ILuaInterface.obj
 0001:000010e5       ?SetGlobal@ILuaInterface@@QAEXPBDPAVILuaObject@@@Z 100020e5 f   ILuaInterface.obj
 0001:0000114c       ?GetObject@ILuaInterface@@QAEPAVILuaObject@@H@Z 1000214c f   ILuaInterface.obj
 0001:000011e7       ?GetString@ILuaInterface@@QAEPBDHPAI@Z 100021e7 f   ILuaInterface.obj
 0001:0000120b       ?GetInteger@ILuaInterface@@QAEHH@Z 1000220b f   ILuaInterface.obj
 0001:00001231       ?GetNumber@ILuaInterface@@QAENH@Z 10002231 f   ILuaInterface.obj
 0001:00001252       ?GetBool@ILuaInterface@@QAE_NH@Z 10002252 f   ILuaInterface.obj
 0001:00001273       ?GetUserData@ILuaInterface@@QAEPAXH@Z 10002273 f   ILuaInterface.obj
 0001:0000129d       ?Pop@ILuaInterface@@QAEXH@Z 1000229d f   ILuaInterface.obj
 0001:000012be       ?Push@ILuaInterface@@QAEXPAVILuaObject@@@Z 100022be f   ILuaInterface.obj
 0001:000012d3       ?Push@ILuaInterface@@QAEXPBDI@Z 100022d3 f   ILuaInterface.obj
 0001:000012f7       ?Push@ILuaInterface@@QAEX_N@Z 100022f7 f   ILuaInterface.obj
 0001:00001318       ?Push@ILuaInterface@@QAEXP6AHPAUlua_State@@@Z@Z 10002318 f   ILuaInterface.obj
 0001:0000133c       ?Push@ILuaInterface@@QAEXM@Z 1000233c f   ILuaInterface.obj
 0001:00001366       ?CheckType@ILuaInterface@@QAEXHH@Z 10002366 f   ILuaInterface.obj
 0001:0000138a       ?GetType@ILuaInterface@@QAEHH@Z 1000238a f   ILuaInterface.obj
 0001:000013ae       ?GetReturn@ILuaInterface@@QAEPAVILuaObject@@H@Z 100023ae f   ILuaInterface.obj
 0001:000013c6       ?Call@ILuaInterface@@QAEXHH@Z 100023c6 f   ILuaInterface.obj
 0001:000013ea       ?GetMetaTable@ILuaInterface@@QAEPAVILuaObject@@PBDH@Z 100023ea f   ILuaInterface.obj
 0001:00001485       ??$Destruct@UGroundSeedSpot@@@@YAXPAUGroundSeedSpot@@@Z 10002485 f i nav.obj
 0001:00001485       ??$Destruct@UAirSeedSpot@@@@YAXPAUAirSeedSpot@@@Z 10002485 f i nav.obj
 0001:00001485       ??$unused_var@W4dst_flags@date_time@boost@@@?$counted_time_system@U?$counted_time_rep@Vmillisec_posix_time_system_config@posix_time@boost@@@date_time@boost@@@date_time@boost@@SAXABW4dst_flags@12@@Z 10002485 f i main.obj
 0001:00001485       ??$__vcrt_va_start_verify_argument_type@PBD@@YAXXZ 10002485 f i ILuaInterface.obj
 0001:00001485       ??3@YAXPAX0@Z              10002485 f i ILuaModuleManager.obj
 0001:00001485       ??$Destruct@PAVNode@@@@YAXPAPAVNode@@@Z 10002485 f i main.obj
 0001:00001485       ?throw_exception_assert_compatibility@boost@@YAXABVexception@std@@@Z 10002485 f i main.obj
 0001:00001485       ??$Destruct@PAUJobInfo_t@@@@YAXPAPAUJobInfo_t@@@Z 10002485 f i main.obj
 0001:00001485       ??$__vcrt_va_start_verify_argument_type@QBD@@YAXXZ 10002485 f i nav.obj
 0001:0000148a       ??$vsprintf_s@$0EAA@@@YAHAAY0EAA@DPBDPAD@Z 1000248a f i ILuaInterface.obj
 0001:000014a5       ?_Adopt@_Iterator_base0@std@@QAEXPBX@Z 100024a5 f i ILuaModuleManager.obj
 0001:000014a5       ??$destroy@PAU?$_Tree_node@U?$pair@QBXUtss_data_node@detail@boost@@@std@@PAX@std@@@?$allocator@U?$_Tree_node@U?$pair@QBXUtss_data_node@detail@boost@@@std@@PAX@std@@@std@@QAEXPAPAU?$_Tree_node@U?$pair@QBXUtss_data_node@detail@boost@@@std@@PAX@1@@Z 100024a5 f i nav.obj
 0001:000014a5       ??$destroy@U?$pair@QAUlua_State@@PAVILuaInterface@@@std@@@?$allocator@U?$_Tree_node@U?$pair@QAUlua_State@@PAVILuaInterface@@@std@@PAX@std@@@std@@QAEXPAU?$pair@QAUlua_State@@PAVILuaInterface@@@1@@Z 100024a5 f i ILuaModuleManager.obj
 0001:000014a5       ??$destroy@PAD@?$allocator@D@std@@QAEXPAPAD@Z 100024a5 f i main.obj
 0001:000014a5       ??$destroy@PAU?$_Tree_node@U?$pair@QAUlua_State@@PAVILuaInterface@@@std@@PAX@std@@@?$allocator@U?$_Tree_node@U?$pair@QAUlua_State@@PAVILuaInterface@@@std@@PAX@std@@@std@@QAEXPAPAU?$_Tree_node@U?$pair@QAUlua_State@@PAVILuaInterface@@@std@@PAX@1@@Z 100024a5 f i ILuaModuleManager.obj
 0001:000014a5       ??$destroy@U?$pair@PAVcondition_variable@boost@@PAVmutex@2@@std@@@?$allocator@U?$pair@PAVcondition_variable@boost@@PAVmutex@2@@std@@@std@@QAEXPAU?$pair@PAVcondition_variable@boost@@PAVmutex@2@@1@@Z 100024a5 f i nav.obj
 0001:000014b2       ?get@?$value@PAUJobInfo_t@@@_bi@boost@@QAEAAPAUJobInfo_t@@XZ 100024b2 f i nav.obj
 0001:000014b2       ?get@?$value@PAVNode@@@_bi@boost@@QAEAAPAVNode@@XZ 100024b2 f i nav.obj
 0001:000014b2       ??0?$arg@$05@boost@@QAE@XZ 100024b2 f i main.obj
 0001:000014b2       ?_Get_first@?$_Compressed_pair@U?$_Wrap_alloc@V?$allocator@U?$_Tree_node@U?$pair@QAUlua_State@@PAVILuaInterface@@@std@@PAX@std@@@std@@@std@@V?$_Tree_val@U?$_Tree_simple_types@U?$pair@QAUlua_State@@PAVILuaInterface@@@std@@@std@@@2@$00@std@@QBEABU?$_Wrap_alloc@V?$allocator@U?$_Tree_node@U?$pair@QAUlua_State@@PAVILuaInterface@@@std@@PAX@std@@@std@@@2@XZ 100024b2 f i ILuaModuleManager.obj
 0001:000014b2       ?_Get_second@?$_Compressed_pair@U?$less@PBX@std@@V?$_Compressed_pair@U?$_Wrap_alloc@V?$allocator@U?$_Tree_node@U?$pair@QBXUtss_data_node@detail@boost@@@std@@PAX@std@@@std@@@std@@V?$_Tree_val@U?$_Tree_simple_types@U?$pair@QBXUtss_data_node@detail@boost@@@std@@@std@@@2@$00@2@$00@std@@QBEABV?$_Compressed_pair@U?$_Wrap_alloc@V?$allocator@U?$_Tree_node@U?$pair@QBXUtss_data_node@detail@boost@@@std@@PAX@std@@@std@@@std@@V?$_Tree_val@U?$_Tree_simple_types@U?$pair@QBXUtss_data_node@detail@boost@@@std@@@std@@@2@$00@2@XZ 100024b2 f i nav.obj
 0001:000014b2       ?_Get_first@?$_Compressed_pair@U?$_Wrap_alloc@V?$allocator@U?$_Tree_node@U?$pair@QAUlua_State@@PAVILuaInterface@@@std@@PAX@std@@@std@@@std@@V?$_Tree_val@U?$_Tree_simple_types@U?$pair@QAUlua_State@@PAVILuaInterface@@@std@@@std@@@2@$00@std@@QAEAAU?$_Wrap_alloc@V?$allocator@U?$_Tree_node@U?$pair@QAUlua_State@@PAVILuaInterface@@@std@@PAX@std@@@std@@@2@XZ 100024b2 f i ILuaModuleManager.obj
 0001:000014b2       ??0?$allocator@V?$shared_ptr@Ushared_state_base@detail@boost@@@boost@@@std@@QAE@XZ 100024b2 f i nav.obj
 0001:000014b2       ??0?$arg@$06@boost@@QAE@XZ 100024b2 f i main.obj
 0001:000014b2       ?_Get_second@?$_Compressed_pair@U?$_Wrap_alloc@V?$allocator@U?$_Tree_node@U?$pair@QAUlua_State@@PAVILuaInterface@@@std@@PAX@std@@@std@@@std@@V?$_Tree_val@U?$_Tree_simple_types@U?$pair@QAUlua_State@@PAVILuaInterface@@@std@@@std@@@2@$00@std@@QBEABV?$_Tree_val@U?$_Tree_simple_types@U?$pair@QAUlua_State@@PAVILuaInterface@@@std@@@std@@@2@XZ 100024b2 f i ILuaModuleManager.obj
 0001:000014b2       ??0?$tuple@$$V@std@@QAE@XZ 100024b2 f i ILuaModuleManager.obj
 0001:000014b2       ?GetPosition@Node@@QAEPBVVector@@XZ 100024b2 f i node.obj
 0001:000014b2       ?_Get_first@?$_Compressed_pair@U?$_Wrap_alloc@V?$allocator@D@std@@@std@@V?$_String_val@U?$_Simple_types@D@std@@@2@$00@std@@QAEAAU?$_Wrap_alloc@V?$allocator@D@std@@@2@XZ 100024b2 f i main.obj
 0001:000014b2       ?get@?$value@PA_N@_bi@boost@@QAEAAPA_NXZ 100024b2 f i nav.obj
 0001:000014b2       ??0?$arg@$07@boost@@QAE@XZ 100024b2 f i main.obj
 0001:000014b2       ??0?$arg@$08@boost@@QAE@XZ 100024b2 f i main.obj
 0001:000014b2       ?_Get_first@?$_Compressed_pair@U?$less@PAUlua_State@@@std@@V?$_Compressed_pair@U?$_Wrap_alloc@V?$allocator@U?$_Tree_node@U?$pair@QAUlua_State@@PAVILuaInterface@@@std@@PAX@std@@@std@@@std@@V?$_Tree_val@U?$_Tree_simple_types@U?$pair@QAUlua_State@@PAVILuaInterface@@@std@@@std@@@2@$00@2@$00@std@@QAEAAU?$less@PAUlua_State@@@2@XZ 100024b2 f i ILuaModuleManager.obj
 0001:000014b2       ??0?$arg@$01@boost@@QAE@XZ 100024b2 f i main.obj
 0001:000014b2       ?_Get_second@?$_Compressed_pair@U?$_Wrap_alloc@V?$allocator@U?$_Tree_node@U?$pair@QBXUtss_data_node@detail@boost@@@std@@PAX@std@@@std@@@std@@V?$_Tree_val@U?$_Tree_simple_types@U?$pair@QBXUtss_data_node@detail@boost@@@std@@@std@@@2@$00@std@@QAEAAV?$_Tree_val@U?$_Tree_simple_types@U?$pair@QBXUtss_data_node@detail@boost@@@std@@@std@@@2@XZ 100024b2 f i nav.obj
 0001:000014b2       ??0?$allocator@U?$pair@PAVcondition_variable@boost@@PAVmutex@2@@std@@@std@@QAE@XZ 100024b2 f i nav.obj
 0001:000014b2       ?_Get_first@?$_Compressed_pair@U?$_Wrap_alloc@V?$allocator@D@std@@@std@@V?$_String_val@U?$_Simple_types@D@std@@@2@$00@std@@QBEABU?$_Wrap_alloc@V?$allocator@D@std@@@2@XZ 100024b2 f i main.obj
 0001:000014b2       ?_Get_second@?$_Compressed_pair@U?$less@PAUlua_State@@@std@@V?$_Compressed_pair@U?$_Wrap_alloc@V?$allocator@U?$_Tree_node@U?$pair@QAUlua_State@@PAVILuaInterface@@@std@@PAX@std@@@std@@@std@@V?$_Tree_val@U?$_Tree_simple_types@U?$pair@QAUlua_State@@PAVILuaInterface@@@std@@@std@@@2@$00@2@$00@std@@QAEAAV?$_Compressed_pair@U?$_Wrap_alloc@V?$allocator@U?$_Tree_node@U?$pair@QAUlua_State@@PAVILuaInterface@@@std@@PAX@std@@@std@@@std@@V?$_Tree_val@U?$_Tree_simple_types@U?$pair@QAUlua_State@@PAVILuaInterface@@@std@@@std@@@2@$00@2@XZ 100024b2 f i ILuaModuleManager.obj
 0001:000014b2       ??0?$arg@$04@boost@@QAE@XZ 100024b2 f i main.obj
 0001:000014b2       ??0list0@_bi@boost@@QAE@XZ 100024b2 f i nav.obj
 0001:000014b2       ?_Get_second@?$_Compressed_pair@U?$_Wrap_alloc@V?$allocator@D@std@@@std@@V?$_String_val@U?$_Simple_types@D@std@@@2@$00@std@@QBEABV?$_String_val@U?$_Simple_types@D@std@@@2@XZ 100024b2 f i main.obj
 0001:000014b2       ?_Get_second@?$_Compressed_pair@U?$_Wrap_alloc@V?$allocator@U?$_Tree_node@U?$pair@QBXUtss_data_node@detail@boost@@@std@@PAX@std@@@std@@@std@@V?$_Tree_val@U?$_Tree_simple_types@U?$pair@QBXUtss_data_node@detail@boost@@@std@@@std@@@2@$00@std@@QBEABV?$_Tree_val@U?$_Tree_simple_types@U?$pair@QBXUtss_data_node@detail@boost@@@std@@@std@@@2@XZ 100024b2 f i nav.obj
 0001:000014b2       ?_Get_second@?$_Compressed_pair@U?$less@PAUlua_State@@@std@@V?$_Compressed_pair@U?$_Wrap_alloc@V?$allocator@U?$_Tree_node@U?$pair@QAUlua_State@@PAVILuaInterface@@@std@@PAX@std@@@std@@@std@@V?$_Tree_val@U?$_Tree_simple_types@U?$pair@QAUlua_State@@PAVILuaInterface@@@std@@@std@@@2@$00@2@$00@std@@QBEABV?$_Compressed_pair@U?$_Wrap_alloc@V?$allocator@U?$_Tree_node@U?$pair@QAUlua_State@@PAVILuaInterface@@@std@@PAX@std@@@std@@@std@@V?$_Tree_val@U?$_Tree_simple_types@U?$pair@QAUlua_State@@PAVILuaInterface@@@std@@@std@@@2@$00@2@XZ 100024b2 f i ILuaModuleManager.obj
 0001:000014b2       ?_Get_second@?$_Compressed_pair@U?$_Wrap_alloc@V?$allocator@U?$pair@PAVcondition_variable@boost@@PAVmutex@2@@std@@@std@@@std@@V?$_Vector_val@U?$_Simple_types@U?$pair@PAVcondition_variable@boost@@PAVmutex@2@@std@@@std@@@2@$00@std@@QAEAAV?$_Vector_val@U?$_Simple_types@U?$pair@PAVcondition_variable@boost@@PAVmutex@2@@std@@@std@@@2@XZ 100024b2 f i nav.obj
 0001:000014b2       ?get@?$value@PAVNav@@@_bi@boost@@QAEAAPAVNav@@XZ 100024b2 f i nav.obj
 0001:000014b2       ?_Get_first@?$_Compressed_pair@U?$_Wrap_alloc@V?$allocator@U?$pair@PAVcondition_variable@boost@@PAVmutex@2@@std@@@std@@@std@@V?$_Vector_val@U?$_Simple_types@U?$pair@PAVcondition_variable@boost@@PAVmutex@2@@std@@@std@@@2@$00@std@@QAEAAU?$_Wrap_alloc@V?$allocator@U?$pair@PAVcondition_variable@boost@@PAVmutex@2@@std@@@std@@@2@XZ 100024b2 f i nav.obj
 0001:000014b2       ??0?$allocator@U?$_Tree_node@U?$pair@QAUlua_State@@PAVILuaInterface@@@std@@PAX@std@@@std@@QAE@XZ 100024b2 f i ILuaModuleManager.obj
 0001:000014b2       ?_Get_second@?$_Compressed_pair@U?$less@PBX@std@@V?$_Compressed_pair@U?$_Wrap_alloc@V?$allocator@U?$_Tree_node@U?$pair@QBXUtss_data_node@detail@boost@@@std@@PAX@std@@@std@@@std@@V?$_Tree_val@U?$_Tree_simple_types@U?$pair@QBXUtss_data_node@detail@boost@@@std@@@std@@@2@$00@2@$00@std@@QAEAAV?$_Compressed_pair@U?$_Wrap_alloc@V?$allocator@U?$_Tree_node@U?$pair@QBXUtss_data_node@detail@boost@@@std@@PAX@std@@@std@@@std@@V?$_Tree_val@U?$_Tree_simple_types@U?$pair@QBXUtss_data_node@detail@boost@@@std@@@std@@@2@$00@2@XZ 100024b2 f i nav.obj
 0001:000014b2       ?_Get_second@?$_Compressed_pair@U?$_Wrap_alloc@V?$allocator@V?$shared_ptr@Ushared_state_base@detail@boost@@@boost@@@std@@@std@@V?$_Vector_val@U?$_Simple_types@V?$shared_ptr@Ushared_state_base@detail@boost@@@boost@@@std@@@2@$00@std@@QAEAAV?$_Vector_val@U?$_Simple_types@V?$shared_ptr@Ushared_state_base@detail@boost@@@boost@@@std@@@2@XZ 100024b2 f i nav.obj
 0001:000014b2       ?_Get_first@?$_Compressed_pair@U?$_Wrap_alloc@V?$allocator@V?$shared_ptr@Ushared_state_base@detail@boost@@@boost@@@std@@@std@@V?$_Vector_val@U?$_Simple_types@V?$shared_ptr@Ushared_state_base@detail@boost@@@boost@@@std@@@2@$00@std@@QAEAAU?$_Wrap_alloc@V?$allocator@V?$shared_ptr@Ushared_state_base@detail@boost@@@boost@@@std@@@2@XZ 100024b2 f i nav.obj
 0001:000014b2       ??0Vector@@QAE@XZ          100024b2 f i main.obj
 0001:000014b2       ??0?$allocator@U?$_Tree_node@U?$pair@QBXUtss_data_node@detail@boost@@@std@@PAX@std@@@std@@QAE@XZ 100024b2 f i nav.obj
 0001:000014b2       ??0?$arg@$03@boost@@QAE@XZ 100024b2 f i main.obj
 0001:000014b2       ?_Get_second@?$_Compressed_pair@U?$_Wrap_alloc@V?$allocator@U?$_Tree_node@U?$pair@QAUlua_State@@PAVILuaInterface@@@std@@PAX@std@@@std@@@std@@V?$_Tree_val@U?$_Tree_simple_types@U?$pair@QAUlua_State@@PAVILuaInterface@@@std@@@std@@@2@$00@std@@QAEAAV?$_Tree_val@U?$_Tree_simple_types@U?$pair@QAUlua_State@@PAVILuaInterface@@@std@@@std@@@2@XZ 100024b2 f i ILuaModuleManager.obj
 0001:000014b2       ?_Get_second@?$_Compressed_pair@U?$_Wrap_alloc@V?$allocator@U?$pair@PAVcondition_variable@boost@@PAVmutex@2@@std@@@std@@@std@@V?$_Vector_val@U?$_Simple_types@U?$pair@PAVcondition_variable@boost@@PAVmutex@2@@std@@@std@@@2@$00@std@@QBEABV?$_Vector_val@U?$_Simple_types@U?$pair@PAVcondition_variable@boost@@PAVmutex@2@@std@@@std@@@2@XZ 100024b2 f i nav.obj
 0001:000014b2       ?_Get_first@?$_Compressed_pair@U?$less@PAUlua_State@@@std@@V?$_Compressed_pair@U?$_Wrap_alloc@V?$allocator@U?$_Tree_node@U?$pair@QAUlua_State@@PAVILuaInterface@@@std@@PAX@std@@@std@@@std@@V?$_Tree_val@U?$_Tree_simple_types@U?$pair@QAUlua_State@@PAVILuaInterface@@@std@@@std@@@2@$00@2@$00@std@@QBEABU?$less@PAUlua_State@@@2@XZ 100024b2 f i ILuaModuleManager.obj
 0001:000014b2       ?_Get_second@?$_Compressed_pair@U?$_Wrap_alloc@V?$allocator@D@std@@@std@@V?$_String_val@U?$_Simple_types@D@std@@@2@$00@std@@QAEAAV?$_String_val@U?$_Simple_types@D@std@@@2@XZ 100024b2 f i main.obj
 0001:000014b2       ?_Get_first@?$_Compressed_pair@U?$_Wrap_alloc@V?$allocator@U?$_Tree_node@U?$pair@QBXUtss_data_node@detail@boost@@@std@@PAX@std@@@std@@@std@@V?$_Tree_val@U?$_Tree_simple_types@U?$pair@QBXUtss_data_node@detail@boost@@@std@@@std@@@2@$00@std@@QAEAAU?$_Wrap_alloc@V?$allocator@U?$_Tree_node@U?$pair@QBXUtss_data_node@detail@boost@@@std@@PAX@std@@@std@@@2@XZ 100024b2 f i nav.obj
 0001:000014b2       ??0?$allocator@D@std@@QAE@XZ 100024b2 f i main.obj
 0001:000014b2       ??0?$arg@$00@boost@@QAE@XZ 100024b2 f i main.obj
 0001:000014b2       ?_Get_first@?$_Compressed_pair@U?$_Wrap_alloc@V?$allocator@U?$pair@PAVcondition_variable@boost@@PAVmutex@2@@std@@@std@@@std@@V?$_Vector_val@U?$_Simple_types@U?$pair@PAVcondition_variable@boost@@PAVmutex@2@@std@@@std@@@2@$00@std@@QBEABU?$_Wrap_alloc@V?$allocator@U?$pair@PAVcondition_variable@boost@@PAVmutex@2@@std@@@std@@@2@XZ 100024b2 f i nav.obj
 0001:000014b2       ??0?$arg@$02@boost@@QAE@XZ 100024b2 f i main.obj
 0001:000014c0       ??0?$allocator@D@std@@QAE@ABV01@@Z 100024c0 f i nav.obj
 0001:000014c0       ??0?$tuple@$$V@std@@QAE@ABV01@@Z 100024c0 f i ILuaModuleManager.obj
 0001:000014c0       ??$?0U_Exact_args_t@std@@$0A@@?$tuple@$$V@std@@QAE@U_Exact_args_t@1@@Z 100024c0 f i ILuaModuleManager.obj
 0001:000014d0       ?_Allocate@std@@YAPAXII_N@Z 100024d0 f i ILuaModuleManager.obj
 0001:0000157d       ?_Deallocate@std@@YAXPAXII@Z 1000257d f i ILuaModuleManager.obj
 0001:0000160c       ?CreateInterface@ILuaModuleManager@@QAEXPAUlua_State@@@Z 1000260c f   ILuaModuleManager.obj
 0001:00001683       ?DestroyInterface@ILuaModuleManager@@QAEXPAUlua_State@@@Z 10002683 f   ILuaModuleManager.obj
 0001:000016d1       ??_GILuaInterface@@QAEPAXI@Z 100026d1 f i ILuaModuleManager.obj
 0001:000016fd       ?GetLuaInterface@ILuaModuleManager@@QAEPAVILuaInterface@@PAUlua_State@@@Z 100026fd f   ILuaModuleManager.obj
 0001:00001718       ??0ILuaModuleManager@@QAE@XZ 10002718 f i ILuaModuleManager.obj
 0001:0000172e       ?erase@?$_Tree@V?$_Tmap_traits@PAUlua_State@@PAVILuaInterface@@U?$less@PAUlua_State@@@std@@V?$allocator@U?$pair@QAUlua_State@@PAVILuaInterface@@@std@@@4@$0A@@std@@@std@@QAEIABQAUlua_State@@@Z 1000272e f i ILuaModuleManager.obj
 0001:00001783       ??A?$map@PAUlua_State@@PAVILuaInterface@@U?$less@PAUlua_State@@@std@@V?$allocator@U?$pair@QAUlua_State@@PAVILuaInterface@@@std@@@4@@std@@QAEAAPAVILuaInterface@@ABQAUlua_State@@@Z 10002783 f i ILuaModuleManager.obj
 0001:000017ab       ??0?$map@PAUlua_State@@PAVILuaInterface@@U?$less@PAUlua_State@@@std@@V?$allocator@U?$pair@QAUlua_State@@PAVILuaInterface@@@std@@@4@@std@@QAE@XZ 100027ab f i ILuaModuleManager.obj
 0001:000017c6       ??C?$_Tree_iterator@V?$_Tree_val@U?$_Tree_simple_types@U?$pair@QAUlua_State@@PAVILuaInterface@@@std@@@std@@@std@@@std@@QBEPAU?$pair@QAUlua_State@@PAVILuaInterface@@@1@XZ 100027c6 f i ILuaModuleManager.obj
 0001:000017e0       ?equal_range@?$_Tree@V?$_Tmap_traits@PAUlua_State@@PAVILuaInterface@@U?$less@PAUlua_State@@@std@@V?$allocator@U?$pair@QAUlua_State@@PAVILuaInterface@@@std@@@4@$0A@@std@@@std@@QAE?AU?$pair@V?$_Tree_iterator@V?$_Tree_val@U?$_Tree_simple_types@U?$pair@QAUlua_State@@PAVILuaInterface@@@std@@@std@@@std@@@std@@V12@@2@ABQAUlua_State@@@Z 100027e0 f i ILuaModuleManager.obj
 0001:000017fe       ?erase@?$_Tree@V?$_Tmap_traits@PAUlua_State@@PAVILuaInterface@@U?$less@PAUlua_State@@@std@@V?$allocator@U?$pair@QAUlua_State@@PAVILuaInterface@@@std@@@4@$0A@@std@@@std@@QAE?AV?$_Tree_iterator@V?$_Tree_val@U?$_Tree_simple_types@U?$pair@QAUlua_State@@PAVILuaInterface@@@std@@@std@@@std@@@2@V?$_Tree_const_iterator@V?$_Tree_val@U?$_Tree_simple_types@U?$pair@QAUlua_State@@PAVILuaInterface@@@std@@@std@@@std@@@2@0@Z 100027fe f i ILuaModuleManager.obj
 0001:000018a7       ??0?$_Tree@V?$_Tmap_traits@PAUlua_State@@PAVILuaInterface@@U?$less@PAUlua_State@@@std@@V?$allocator@U?$pair@QAUlua_State@@PAVILuaInterface@@@std@@@4@$0A@@std@@@std@@QAE@ABU?$less@PAUlua_State@@@1@@Z 100028a7 f i ILuaModuleManager.obj
 0001:000018c2       ?pointer_to@?$pointer_traits@PAU?$pair@QAUlua_State@@PAVILuaInterface@@@std@@@std@@SAPAU?$pair@QAUlua_State@@PAVILuaInterface@@@2@AAU32@@Z 100028c2 f i ILuaModuleManager.obj
 0001:000018d0       ??D?$_Tree_iterator@V?$_Tree_val@U?$_Tree_simple_types@U?$pair@QAUlua_State@@PAVILuaInterface@@@std@@@std@@@std@@@std@@QBEAAU?$pair@QAUlua_State@@PAVILuaInterface@@@1@XZ 100028d0 f i ILuaModuleManager.obj
 0001:000018e3       ??0?$_Tree_iterator@V?$_Tree_val@U?$_Tree_simple_types@U?$pair@QBXUtss_data_node@detail@boost@@@std@@@std@@@std@@@std@@QAE@PAU?$_Tree_node@U?$pair@QBXUtss_data_node@detail@boost@@@std@@PAX@1@PBV?$_Tree_val@U?$_Tree_simple_types@U?$pair@QBXUtss_data_node@detail@boost@@@std@@@std@@@1@@Z 100028e3 f i nav.obj
 0001:000018e3       ??0?$_Tree_iterator@V?$_Tree_val@U?$_Tree_simple_types@U?$pair@QAUlua_State@@PAVILuaInterface@@@std@@@std@@@std@@@std@@QAE@PAU?$_Tree_node@U?$pair@QAUlua_State@@PAVILuaInterface@@@std@@PAX@1@PBV?$_Tree_val@U?$_Tree_simple_types@U?$pair@QAUlua_State@@PAVILuaInterface@@@std@@@std@@@1@@Z 100028e3 f i ILuaModuleManager.obj
 0001:00001901       ??9?$_Tree_const_iterator@V?$_Tree_val@U?$_Tree_simple_types@U?$pair@QBXUtss_data_node@detail@boost@@@std@@@std@@@std@@@std@@QBE_NABV01@@Z 10002901 f i nav.obj
 0001:00001901       ??9?$_Tree_const_iterator@V?$_Tree_val@U?$_Tree_simple_types@U?$pair@QAUlua_State@@PAVILuaInterface@@@std@@@std@@@std@@@std@@QBE_NABV01@@Z 10002901 f i ILuaModuleManager.obj
 0001:00001931       ??8?$_Tree_const_iterator@V?$_Tree_val@U?$_Tree_simple_types@U?$pair@QBXUtss_data_node@detail@boost@@@std@@@std@@@std@@@std@@QBE_NABV01@@Z 10002931 f i nav.obj
 0001:00001931       ??8?$_Tree_const_iterator@V?$_Tree_val@U?$_Tree_simple_types@U?$pair@QAUlua_State@@PAVILuaInterface@@@std@@@std@@@std@@@std@@QBE_NABV01@@Z 10002931 f i ILuaModuleManager.obj
 0001:0000195b       ??E?$_Tree_const_iterator@V?$_Tree_val@U?$_Tree_simple_types@U?$pair@QAUlua_State@@PAVILuaInterface@@@std@@@std@@@std@@@std@@QAE?AV01@H@Z 1000295b f i ILuaModuleManager.obj
 0001:0000195b       ??E?$_Tree_const_iterator@V?$_Tree_val@U?$_Tree_simple_types@U?$pair@QBXUtss_data_node@detail@boost@@@std@@@std@@@std@@@std@@QAE?AV01@H@Z 1000295b f i nav.obj
 0001:00001984       ?_Myhead@?$_Tree_comp_alloc@V?$_Tmap_traits@PBXUtss_data_node@detail@boost@@U?$less@PBX@std@@V?$allocator@U?$pair@QBXUtss_data_node@detail@boost@@@std@@@5@$0A@@std@@@std@@QAEAAPAU?$_Tree_node@U?$pair@QBXUtss_data_node@detail@boost@@@std@@PAX@2@XZ 10002984 f i nav.obj
 0001:00001984       ?_Myhead@?$_Tree_comp_alloc@V?$_Tmap_traits@PBXUtss_data_node@detail@boost@@U?$less@PBX@std@@V?$allocator@U?$pair@QBXUtss_data_node@detail@boost@@@std@@@5@$0A@@std@@@std@@QBEABQAU?$_Tree_node@U?$pair@QBXUtss_data_node@detail@boost@@@std@@PAX@2@XZ 10002984 f i nav.obj
 0001:00001984       ?_Myhead@?$_Tree_comp_alloc@V?$_Tmap_traits@PAUlua_State@@PAVILuaInterface@@U?$less@PAUlua_State@@@std@@V?$allocator@U?$pair@QAUlua_State@@PAVILuaInterface@@@std@@@4@$0A@@std@@@std@@QBEABQAU?$_Tree_node@U?$pair@QAUlua_State@@PAVILuaInterface@@@std@@PAX@2@XZ 10002984 f i ILuaModuleManager.obj
 0001:00001984       ?_Myhead@?$_Tree_comp_alloc@V?$_Tmap_traits@PAUlua_State@@PAVILuaInterface@@U?$less@PAUlua_State@@@std@@V?$allocator@U?$pair@QAUlua_State@@PAVILuaInterface@@@std@@@4@$0A@@std@@@std@@QAEAAPAU?$_Tree_node@U?$pair@QAUlua_State@@PAVILuaInterface@@@std@@PAX@2@XZ 10002984 f i ILuaModuleManager.obj
 0001:00001997       ?_Getal@?$_Tree_comp_alloc@V?$_Tmap_traits@PAUlua_State@@PAVILuaInterface@@U?$less@PAUlua_State@@@std@@V?$allocator@U?$pair@QAUlua_State@@PAVILuaInterface@@@std@@@4@$0A@@std@@@std@@QBEABU?$_Wrap_alloc@V?$allocator@U?$_Tree_node@U?$pair@QAUlua_State@@PAVILuaInterface@@@std@@PAX@std@@@std@@@2@XZ 10002997 f i ILuaModuleManager.obj
 0001:00001997       ?_Get_data@?$_Tree_comp_alloc@V?$_Tmap_traits@PAUlua_State@@PAVILuaInterface@@U?$less@PAUlua_State@@@std@@V?$allocator@U?$pair@QAUlua_State@@PAVILuaInterface@@@std@@@4@$0A@@std@@@std@@QBEABV?$_Tree_val@U?$_Tree_simple_types@U?$pair@QAUlua_State@@PAVILuaInterface@@@std@@@std@@@2@XZ 10002997 f i ILuaModuleManager.obj
 0001:00001997       ?_Getal@?$_Tree_comp_alloc@V?$_Tmap_traits@PBXUtss_data_node@detail@boost@@U?$less@PBX@std@@V?$allocator@U?$pair@QBXUtss_data_node@detail@boost@@@std@@@5@$0A@@std@@@std@@QAEAAU?$_Wrap_alloc@V?$allocator@U?$_Tree_node@U?$pair@QBXUtss_data_node@detail@boost@@@std@@PAX@std@@@std@@@2@XZ 10002997 f i nav.obj
 0001:00001997       ?_Get_data@?$_Tree_comp_alloc@V?$_Tmap_traits@PAUlua_State@@PAVILuaInterface@@U?$less@PAUlua_State@@@std@@V?$allocator@U?$pair@QAUlua_State@@PAVILuaInterface@@@std@@@4@$0A@@std@@@std@@QAEAAV?$_Tree_val@U?$_Tree_simple_types@U?$pair@QAUlua_State@@PAVILuaInterface@@@std@@@std@@@2@XZ 10002997 f i ILuaModuleManager.obj
 0001:00001997       ?_Get_data@?$_Tree_comp_alloc@V?$_Tmap_traits@PBXUtss_data_node@detail@boost@@U?$less@PBX@std@@V?$allocator@U?$pair@QBXUtss_data_node@detail@boost@@@std@@@5@$0A@@std@@@std@@QAEAAV?$_Tree_val@U?$_Tree_simple_types@U?$pair@QBXUtss_data_node@detail@boost@@@std@@@std@@@2@XZ 10002997 f i nav.obj
 0001:00001997       ?_Getal@?$_Tree_comp_alloc@V?$_Tmap_traits@PAUlua_State@@PAVILuaInterface@@U?$less@PAUlua_State@@@std@@V?$allocator@U?$pair@QAUlua_State@@PAVILuaInterface@@@std@@@4@$0A@@std@@@std@@QAEAAU?$_Wrap_alloc@V?$allocator@U?$_Tree_node@U?$pair@QAUlua_State@@PAVILuaInterface@@@std@@PAX@std@@@std@@@2@XZ 10002997 f i ILuaModuleManager.obj
 0001:00001997       ?_Get_data@?$_Tree_comp_alloc@V?$_Tmap_traits@PBXUtss_data_node@detail@boost@@U?$less@PBX@std@@V?$allocator@U?$pair@QBXUtss_data_node@detail@boost@@@std@@@5@$0A@@std@@@std@@QBEABV?$_Tree_val@U?$_Tree_simple_types@U?$pair@QBXUtss_data_node@detail@boost@@@std@@@std@@@2@XZ 10002997 f i nav.obj
 0001:000019b1       ??0?$_Tree_comp_alloc@V?$_Tmap_traits@PAUlua_State@@PAVILuaInterface@@U?$less@PAUlua_State@@@std@@V?$allocator@U?$pair@QAUlua_State@@PAVILuaInterface@@@std@@@4@$0A@@std@@@std@@QAE@ABU?$less@PAUlua_State@@@1@@Z 100029b1 f i ILuaModuleManager.obj
 0001:000019dd       ?clear@?$_Tree@V?$_Tmap_traits@PAUlua_State@@PAVILuaInterface@@U?$less@PAUlua_State@@@std@@V?$allocator@U?$pair@QAUlua_State@@PAVILuaInterface@@@std@@@4@$0A@@std@@@std@@QAEXXZ 100029dd f i ILuaModuleManager.obj
 0001:00001a73       ?erase@?$_Tree@V?$_Tmap_traits@PAUlua_State@@PAVILuaInterface@@U?$less@PAUlua_State@@@std@@V?$allocator@U?$pair@QAUlua_State@@PAVILuaInterface@@@std@@@4@$0A@@std@@@std@@QAE?AV?$_Tree_iterator@V?$_Tree_val@U?$_Tree_simple_types@U?$pair@QAUlua_State@@PAVILuaInterface@@@std@@@std@@@std@@@2@V?$_Tree_const_iterator@V?$_Tree_val@U?$_Tree_simple_types@U?$pair@QAUlua_State@@PAVILuaInterface@@@std@@@std@@@std@@@2@@Z 10002a73 f i ILuaModuleManager.obj
 0001:000020d0       ?end@?$_Tree@V?$_Tmap_traits@PBXUtss_data_node@detail@boost@@U?$less@PBX@std@@V?$allocator@U?$pair@QBXUtss_data_node@detail@boost@@@std@@@5@$0A@@std@@@std@@QAE?AV?$_Tree_iterator@V?$_Tree_val@U?$_Tree_simple_types@U?$pair@QBXUtss_data_node@detail@boost@@@std@@@std@@@std@@@2@XZ 100030d0 f i nav.obj
 0001:000020d0       ?end@?$_Tree@V?$_Tmap_traits@PAUlua_State@@PAVILuaInterface@@U?$less@PAUlua_State@@@std@@V?$allocator@U?$pair@QAUlua_State@@PAVILuaInterface@@@std@@@4@$0A@@std@@@std@@QAE?AV?$_Tree_iterator@V?$_Tree_val@U?$_Tree_simple_types@U?$pair@QAUlua_State@@PAVILuaInterface@@@std@@@std@@@std@@@2@XZ 100030d0 f i ILuaModuleManager.obj
 0001:00002125       ?begin@?$_Tree@V?$_Tmap_traits@PBXUtss_data_node@detail@boost@@U?$less@PBX@std@@V?$allocator@U?$pair@QBXUtss_data_node@detail@boost@@@std@@@5@$0A@@std@@@std@@QAE?AV?$_Tree_iterator@V?$_Tree_val@U?$_Tree_simple_types@U?$pair@QBXUtss_data_node@detail@boost@@@std@@@std@@@std@@@2@XZ 10003125 f i nav.obj
 0001:00002125       ?begin@?$_Tree@V?$_Tmap_traits@PAUlua_State@@PAVILuaInterface@@U?$less@PAUlua_State@@@std@@V?$allocator@U?$pair@QAUlua_State@@PAVILuaInterface@@@std@@@4@$0A@@std@@@std@@QAE?AV?$_Tree_iterator@V?$_Tree_val@U?$_Tree_simple_types@U?$pair@QAUlua_State@@PAVILuaInterface@@@std@@@std@@@std@@@2@XZ 10003125 f i ILuaModuleManager.obj
 0001:0000217a       ?Base@?$CUtlMemory@U?$UtlLinkedListElem_t@UGroundSeedSpot@@H@@H@@QAEPAU?$UtlLinkedListElem_t@UGroundSeedSpot@@H@@XZ 1000317a f i nav.obj
 0001:0000217a       ?Base@?$CUtlMemory@PAUJobInfo_t@@H@@QAEPAPAUJobInfo_t@@XZ 1000317a f i main.obj
 0001:0000217a       ?value@error_code@system@boost@@QBEHXZ 1000317a f i nav.obj
 0001:0000217a       ?_Mynode@?$_Tree_unchecked_const_iterator@V?$_Tree_val@U?$_Tree_simple_types@U?$pair@QAUlua_State@@PAVILuaInterface@@@std@@@std@@@std@@U_Iterator_base0@2@@std@@QBEPAU?$_Tree_node@U?$pair@QAUlua_State@@PAVILuaInterface@@@std@@PAX@2@XZ 1000317a f i ILuaModuleManager.obj
 0001:0000217a       ?_Mynode@?$_Tree_unchecked_const_iterator@V?$_Tree_val@U?$_Tree_simple_types@U?$pair@QBXUtss_data_node@detail@boost@@@std@@@std@@@std@@U_Iterator_base0@2@@std@@QBEPAU?$_Tree_node@U?$pair@QBXUtss_data_node@detail@boost@@@std@@PAX@2@XZ 1000317a f i nav.obj
 0001:0000217a       ?Base@?$CUtlMemory@PAVNode@@H@@QAEPAPAVNode@@XZ 1000317a f i main.obj
 0001:0000217a       ?Base@?$CUtlMemory@U?$UtlLinkedListElem_t@UAirSeedSpot@@H@@H@@QAEPAU?$UtlLinkedListElem_t@UAirSeedSpot@@H@@XZ 1000317a f i nav.obj
 0001:0000217a       ?get@?$refcount_ptr@Uerror_info_container@exception_detail@boost@@@exception_detail@boost@@QBEPAUerror_info_container@23@XZ 1000317a f i main.obj
 0001:0000217a       ?as_number@?$int_adapter@I@date_time@boost@@QBEIXZ 1000317a f i main.obj
 0001:0000217a       ?day_number@date@gregorian@boost@@QBEIXZ 1000317a f i main.obj
 0001:0000218a       ??E?$_Tree_const_iterator@V?$_Tree_val@U?$_Tree_simple_types@U?$pair@QBXUtss_data_node@detail@boost@@@std@@@std@@@std@@@std@@QAEAAV01@XZ 1000318a f i nav.obj
 0001:0000218a       ??E?$_Tree_const_iterator@V?$_Tree_val@U?$_Tree_simple_types@U?$pair@QAUlua_State@@PAVILuaInterface@@@std@@@std@@@std@@@std@@QAEAAV01@XZ 1000318a f i ILuaModuleManager.obj
 0001:000021a0       ??D?$_Tree_const_iterator@V?$_Tree_val@U?$_Tree_simple_types@U?$pair@QAUlua_State@@PAVILuaInterface@@@std@@@std@@@std@@@std@@QBEABU?$pair@QAUlua_State@@PAVILuaInterface@@@1@XZ 100031a0 f i ILuaModuleManager.obj
 0001:000021b6       ??0?$_Tree_const_iterator@V?$_Tree_val@U?$_Tree_simple_types@U?$pair@QBXUtss_data_node@detail@boost@@@std@@@std@@@std@@@std@@QAE@PAU?$_Tree_node@U?$pair@QBXUtss_data_node@detail@boost@@@std@@PAX@1@PBV?$_Tree_val@U?$_Tree_simple_types@U?$pair@QBXUtss_data_node@detail@boost@@@std@@@std@@@1@@Z 100031b6 f i nav.obj
 0001:000021b6       ??0?$_Tree_const_iterator@V?$_Tree_val@U?$_Tree_simple_types@U?$pair@QAUlua_State@@PAVILuaInterface@@@std@@@std@@@std@@@std@@QAE@PAU?$_Tree_node@U?$pair@QAUlua_State@@PAVILuaInterface@@@std@@PAX@1@PBV?$_Tree_val@U?$_Tree_simple_types@U?$pair@QAUlua_State@@PAVILuaInterface@@@std@@@std@@@1@@Z 100031b6 f i ILuaModuleManager.obj
 0001:000021d4       ?deallocate@?$_Wrap_alloc@V?$allocator@U?$_Tree_node@U?$pair@QAUlua_State@@PAVILuaInterface@@@std@@PAX@std@@@std@@@std@@QAEXPAU?$_Tree_node@U?$pair@QAUlua_State@@PAVILuaInterface@@@std@@PAX@2@I@Z 100031d4 f i ILuaModuleManager.obj
 0001:000021ef       ?_Mysize@?$_Tree_comp_alloc@V?$_Tmap_traits@PAUlua_State@@PAVILuaInterface@@U?$less@PAUlua_State@@@std@@V?$allocator@U?$pair@QAUlua_State@@PAVILuaInterface@@@std@@@4@$0A@@std@@@std@@QAEAAIXZ 100031ef f i ILuaModuleManager.obj
 0001:000021ef       ?_Mysize@?$_Tree_comp_alloc@V?$_Tmap_traits@PBXUtss_data_node@detail@boost@@U?$less@PBX@std@@V?$allocator@U?$pair@QBXUtss_data_node@detail@boost@@@std@@@5@$0A@@std@@@std@@QAEAAIXZ 100031ef f i nav.obj
 0001:000021ef       ?_Mysize@?$_Tree_comp_alloc@V?$_Tmap_traits@PAUlua_State@@PAVILuaInterface@@U?$less@PAUlua_State@@@std@@V?$allocator@U?$pair@QAUlua_State@@PAVILuaInterface@@@std@@@4@$0A@@std@@@std@@QBEABIXZ 100031ef f i ILuaModuleManager.obj
 0001:00002205       ?_Construct@?$_Tree_comp_alloc@V?$_Tmap_traits@PAUlua_State@@PAVILuaInterface@@U?$less@PAUlua_State@@@std@@V?$allocator@U?$pair@QAUlua_State@@PAVILuaInterface@@@std@@@4@$0A@@std@@@std@@QAEXXZ 10003205 f i ILuaModuleManager.obj
 0001:00002226       ?_Min@?$_Tree_comp_alloc@V?$_Tmap_traits@PAUlua_State@@PAVILuaInterface@@U?$less@PAUlua_State@@@std@@V?$allocator@U?$pair@QAUlua_State@@PAVILuaInterface@@@std@@@4@$0A@@std@@@std@@SAPAU?$_Tree_node@U?$pair@QAUlua_State@@PAVILuaInterface@@@std@@PAX@2@PAU32@@Z 10003226 f i ILuaModuleManager.obj
 0001:00002226       ?_Min@?$_Tree_comp_alloc@V?$_Tmap_traits@PBXUtss_data_node@detail@boost@@U?$less@PBX@std@@V?$allocator@U?$pair@QBXUtss_data_node@detail@boost@@@std@@@5@$0A@@std@@@std@@SAPAU?$_Tree_node@U?$pair@QBXUtss_data_node@detail@boost@@@std@@PAX@2@PAU32@@Z 10003226 f i nav.obj
 0001:00002234       ?_Max@?$_Tree_comp_alloc@V?$_Tmap_traits@PAUlua_State@@PAVILuaInterface@@U?$less@PAUlua_State@@@std@@V?$allocator@U?$pair@QAUlua_State@@PAVILuaInterface@@@std@@@4@$0A@@std@@@std@@SAPAU?$_Tree_node@U?$pair@QAUlua_State@@PAVILuaInterface@@@std@@PAX@2@PAU32@@Z 10003234 f i ILuaModuleManager.obj
 0001:00002234       ?_Max@?$_Tree_comp_alloc@V?$_Tmap_traits@PBXUtss_data_node@detail@boost@@U?$less@PBX@std@@V?$allocator@U?$pair@QBXUtss_data_node@detail@boost@@@std@@@5@$0A@@std@@@std@@SAPAU?$_Tree_node@U?$pair@QBXUtss_data_node@detail@boost@@@std@@PAX@2@PAU32@@Z 10003234 f i nav.obj
 0001:00002242       ?_Myval@?$_Tree_comp_alloc@V?$_Tmap_traits@PAUlua_State@@PAVILuaInterface@@U?$less@PAUlua_State@@@std@@V?$allocator@U?$pair@QAUlua_State@@PAVILuaInterface@@@std@@@4@$0A@@std@@@std@@SAAAU?$pair@QAUlua_State@@PAVILuaInterface@@@2@PAU?$_Tree_node@U?$pair@QAUlua_State@@PAVILuaInterface@@@std@@PAX@2@@Z 10003242 f i ILuaModuleManager.obj
 0001:00002242       ?_Myval@?$_Tree_comp_alloc@V?$_Tmap_traits@PBXUtss_data_node@detail@boost@@U?$less@PBX@std@@V?$allocator@U?$pair@QBXUtss_data_node@detail@boost@@@std@@@5@$0A@@std@@@std@@SAAAU?$pair@QBXUtss_data_node@detail@boost@@@2@PAU?$_Tree_node@U?$pair@QBXUtss_data_node@detail@boost@@@std@@PAX@2@@Z 10003242 f i nav.obj
 0001:00002250       ?_Right@?$_Tree_comp_alloc@V?$_Tmap_traits@PBXUtss_data_node@detail@boost@@U?$less@PBX@std@@V?$allocator@U?$pair@QBXUtss_data_node@detail@boost@@@std@@@5@$0A@@std@@@std@@SAAAPAU?$_Tree_node@U?$pair@QBXUtss_data_node@detail@boost@@@std@@PAX@2@PAU32@@Z 10003250 f i nav.obj
 0001:00002250       ?_Right@?$_Tree_comp_alloc@V?$_Tmap_traits@PAUlua_State@@PAVILuaInterface@@U?$less@PAUlua_State@@@std@@V?$allocator@U?$pair@QAUlua_State@@PAVILuaInterface@@@std@@@4@$0A@@std@@@std@@SAAAPAU?$_Tree_node@U?$pair@QAUlua_State@@PAVILuaInterface@@@std@@PAX@2@PAU32@@Z 10003250 f i ILuaModuleManager.obj
 0001:0000225e       ?_Parent@?$_Tree_comp_alloc@V?$_Tmap_traits@PAUlua_State@@PAVILuaInterface@@U?$less@PAUlua_State@@@std@@V?$allocator@U?$pair@QAUlua_State@@PAVILuaInterface@@@std@@@4@$0A@@std@@@std@@SAAAPAU?$_Tree_node@U?$pair@QAUlua_State@@PAVILuaInterface@@@std@@PAX@2@PAU32@@Z 1000325e f i ILuaModuleManager.obj
 0001:0000225e       ?_Parent@?$_Tree_comp_alloc@V?$_Tmap_traits@PBXUtss_data_node@detail@boost@@U?$less@PBX@std@@V?$allocator@U?$pair@QBXUtss_data_node@detail@boost@@@std@@@5@$0A@@std@@@std@@SAAAPAU?$_Tree_node@U?$pair@QBXUtss_data_node@detail@boost@@@std@@PAX@2@PAU32@@Z 1000325e f i nav.obj
 0001:0000226c       ?_Left@?$_Tree_comp_alloc@V?$_Tmap_traits@PBXUtss_data_node@detail@boost@@U?$less@PBX@std@@V?$allocator@U?$pair@QBXUtss_data_node@detail@boost@@@std@@@5@$0A@@std@@@std@@SAAAPAU?$_Tree_node@U?$pair@QBXUtss_data_node@detail@boost@@@std@@PAX@2@PAU32@@Z 1000326c f i nav.obj
 0001:0000226c       ?_Left@?$_Tree_comp_alloc@V?$_Tmap_traits@PAUlua_State@@PAVILuaInterface@@U?$less@PAUlua_State@@@std@@V?$allocator@U?$pair@QAUlua_State@@PAVILuaInterface@@@std@@@4@$0A@@std@@@std@@SAAAPAU?$_Tree_node@U?$pair@QAUlua_State@@PAVILuaInterface@@@std@@PAX@2@PAU32@@Z 1000326c f i ILuaModuleManager.obj
 0001:0000227a       ?_Isnil@?$_Tree_comp_alloc@V?$_Tmap_traits@PBXUtss_data_node@detail@boost@@U?$less@PBX@std@@V?$allocator@U?$pair@QBXUtss_data_node@detail@boost@@@std@@@5@$0A@@std@@@std@@SAAADPAU?$_Tree_node@U?$pair@QBXUtss_data_node@detail@boost@@@std@@PAX@2@@Z 1000327a f i nav.obj
 0001:0000227a       ?_Isnil@?$_Tree_comp_alloc@V?$_Tmap_traits@PAUlua_State@@PAVILuaInterface@@U?$less@PAUlua_State@@@std@@V?$allocator@U?$pair@QAUlua_State@@PAVILuaInterface@@@std@@@4@$0A@@std@@@std@@SAAADPAU?$_Tree_node@U?$pair@QAUlua_State@@PAVILuaInterface@@@std@@PAX@2@@Z 1000327a f i ILuaModuleManager.obj
 0001:00002288       ?_Color@?$_Tree_comp_alloc@V?$_Tmap_traits@PBXUtss_data_node@detail@boost@@U?$less@PBX@std@@V?$allocator@U?$pair@QBXUtss_data_node@detail@boost@@@std@@@5@$0A@@std@@@std@@SAAADPAU?$_Tree_node@U?$pair@QBXUtss_data_node@detail@boost@@@std@@PAX@2@@Z 10003288 f i nav.obj
 0001:00002288       ?_Color@?$_Tree_comp_alloc@V?$_Tmap_traits@PAUlua_State@@PAVILuaInterface@@U?$less@PAUlua_State@@@std@@V?$allocator@U?$pair@QAUlua_State@@PAVILuaInterface@@@std@@@4@$0A@@std@@@std@@SAAADPAU?$_Tree_node@U?$pair@QAUlua_State@@PAVILuaInterface@@@std@@PAX@2@@Z 10003288 f i ILuaModuleManager.obj
 0001:00002296       ?_Rrotate@?$_Tree@V?$_Tmap_traits@PAUlua_State@@PAVILuaInterface@@U?$less@PAUlua_State@@@std@@V?$allocator@U?$pair@QAUlua_State@@PAVILuaInterface@@@std@@@4@$0A@@std@@@std@@IAEXPAU?$_Tree_node@U?$pair@QAUlua_State@@PAVILuaInterface@@@std@@PAX@2@@Z 10003296 f i ILuaModuleManager.obj
 0001:00002296       ?_Rrotate@?$_Tree@V?$_Tmap_traits@PBXUtss_data_node@detail@boost@@U?$less@PBX@std@@V?$allocator@U?$pair@QBXUtss_data_node@detail@boost@@@std@@@5@$0A@@std@@@std@@IAEXPAU?$_Tree_node@U?$pair@QBXUtss_data_node@detail@boost@@@std@@PAX@2@@Z 10003296 f i nav.obj
 0001:00002392       ?_Root@?$_Tree@V?$_Tmap_traits@PAUlua_State@@PAVILuaInterface@@U?$less@PAUlua_State@@@std@@V?$allocator@U?$pair@QAUlua_State@@PAVILuaInterface@@@std@@@4@$0A@@std@@@std@@IBEAAPAU?$_Tree_node@U?$pair@QAUlua_State@@PAVILuaInterface@@@std@@PAX@2@XZ 10003392 f i ILuaModuleManager.obj
 0001:00002392       ?_Root@?$_Tree@V?$_Tmap_traits@PBXUtss_data_node@detail@boost@@U?$less@PBX@std@@V?$allocator@U?$pair@QBXUtss_data_node@detail@boost@@@std@@@5@$0A@@std@@@std@@IBEAAPAU?$_Tree_node@U?$pair@QBXUtss_data_node@detail@boost@@@std@@PAX@2@XZ 10003392 f i nav.obj
 0001:000023ad       ?_Rmost@?$_Tree@V?$_Tmap_traits@PBXUtss_data_node@detail@boost@@U?$less@PBX@std@@V?$allocator@U?$pair@QBXUtss_data_node@detail@boost@@@std@@@5@$0A@@std@@@std@@IBEAAPAU?$_Tree_node@U?$pair@QBXUtss_data_node@detail@boost@@@std@@PAX@2@XZ 100033ad f i nav.obj
 0001:000023ad       ?_Rmost@?$_Tree@V?$_Tmap_traits@PAUlua_State@@PAVILuaInterface@@U?$less@PAUlua_State@@@std@@V?$allocator@U?$pair@QAUlua_State@@PAVILuaInterface@@@std@@@4@$0A@@std@@@std@@IBEAAPAU?$_Tree_node@U?$pair@QAUlua_State@@PAVILuaInterface@@@std@@PAX@2@XZ 100033ad f i ILuaModuleManager.obj
 0001:000023c8       ?_Lrotate@?$_Tree@V?$_Tmap_traits@PBXUtss_data_node@detail@boost@@U?$less@PBX@std@@V?$allocator@U?$pair@QBXUtss_data_node@detail@boost@@@std@@@5@$0A@@std@@@std@@IAEXPAU?$_Tree_node@U?$pair@QBXUtss_data_node@detail@boost@@@std@@PAX@2@@Z 100033c8 f i nav.obj
 0001:000023c8       ?_Lrotate@?$_Tree@V?$_Tmap_traits@PAUlua_State@@PAVILuaInterface@@U?$less@PAUlua_State@@@std@@V?$allocator@U?$pair@QAUlua_State@@PAVILuaInterface@@@std@@@4@$0A@@std@@@std@@IAEXPAU?$_Tree_node@U?$pair@QAUlua_State@@PAVILuaInterface@@@std@@PAX@2@@Z 100033c8 f i ILuaModuleManager.obj
 0001:000024c4       ?_Lmost@?$_Tree@V?$_Tmap_traits@PBXUtss_data_node@detail@boost@@U?$less@PBX@std@@V?$allocator@U?$pair@QBXUtss_data_node@detail@boost@@@std@@@5@$0A@@std@@@std@@IBEAAPAU?$_Tree_node@U?$pair@QBXUtss_data_node@detail@boost@@@std@@PAX@2@XZ 100034c4 f i nav.obj
 0001:000024c4       ?_Lmost@?$_Tree@V?$_Tmap_traits@PAUlua_State@@PAVILuaInterface@@U?$less@PAUlua_State@@@std@@V?$allocator@U?$pair@QAUlua_State@@PAVILuaInterface@@@std@@@4@$0A@@std@@@std@@IBEAAPAU?$_Tree_node@U?$pair@QAUlua_State@@PAVILuaInterface@@@std@@PAX@2@XZ 100034c4 f i ILuaModuleManager.obj
 0001:000024df       ?_Erase@?$_Tree@V?$_Tmap_traits@PAUlua_State@@PAVILuaInterface@@U?$less@PAUlua_State@@@std@@V?$allocator@U?$pair@QAUlua_State@@PAVILuaInterface@@@std@@@4@$0A@@std@@@std@@IAEXPAU?$_Tree_node@U?$pair@QAUlua_State@@PAVILuaInterface@@@std@@PAX@2@@Z 100034df f i ILuaModuleManager.obj
 0001:00002562       ??E?$_Tree_unchecked_const_iterator@V?$_Tree_val@U?$_Tree_simple_types@U?$pair@QAUlua_State@@PAVILuaInterface@@@std@@@std@@@std@@U_Iterator_base0@2@@std@@QAEAAV01@XZ 10003562 f i ILuaModuleManager.obj
 0001:00002562       ??E?$_Tree_unchecked_const_iterator@V?$_Tree_val@U?$_Tree_simple_types@U?$pair@QBXUtss_data_node@detail@boost@@@std@@@std@@@std@@U_Iterator_base0@2@@std@@QAEAAV01@XZ 10003562 f i nav.obj
 0001:000025fd       ??0?$_Tree_unchecked_const_iterator@V?$_Tree_val@U?$_Tree_simple_types@U?$pair@QAUlua_State@@PAVILuaInterface@@@std@@@std@@@std@@U_Iterator_base0@2@@std@@QAE@PAU?$_Tree_node@U?$pair@QAUlua_State@@PAVILuaInterface@@@std@@PAX@1@PBV?$_Tree_val@U?$_Tree_simple_types@U?$pair@QAUlua_State@@PAVILuaInterface@@@std@@@std@@@1@@Z 100035fd f i ILuaModuleManager.obj
 0001:000025fd       ??0?$_Tree_unchecked_const_iterator@V?$_Tree_val@U?$_Tree_simple_types@U?$pair@QBXUtss_data_node@detail@boost@@@std@@@std@@@std@@U_Iterator_base0@2@@std@@QAE@PAU?$_Tree_node@U?$pair@QBXUtss_data_node@detail@boost@@@std@@PAX@1@PBV?$_Tree_val@U?$_Tree_simple_types@U?$pair@QBXUtss_data_node@detail@boost@@@std@@@std@@@1@@Z 100035fd f i nav.obj
 0001:00002620       ?_Min@?$_Tree_val@U?$_Tree_simple_types@U?$pair@QBXUtss_data_node@detail@boost@@@std@@@std@@@std@@SAPAU?$_Tree_node@U?$pair@QBXUtss_data_node@detail@boost@@@std@@PAX@2@PAU32@@Z 10003620 f i nav.obj
 0001:00002620       ?_Min@?$_Tree_val@U?$_Tree_simple_types@U?$pair@QAUlua_State@@PAVILuaInterface@@@std@@@std@@@std@@SAPAU?$_Tree_node@U?$pair@QAUlua_State@@PAVILuaInterface@@@std@@PAX@2@PAU32@@Z 10003620 f i ILuaModuleManager.obj
 0001:00002650       ?_Max@?$_Tree_val@U?$_Tree_simple_types@U?$pair@QBXUtss_data_node@detail@boost@@@std@@@std@@@std@@SAPAU?$_Tree_node@U?$pair@QBXUtss_data_node@detail@boost@@@std@@PAX@2@PAU32@@Z 10003650 f i nav.obj
 0001:00002650       ?_Max@?$_Tree_val@U?$_Tree_simple_types@U?$pair@QAUlua_State@@PAVILuaInterface@@@std@@@std@@@std@@SAPAU?$_Tree_node@U?$pair@QAUlua_State@@PAVILuaInterface@@@std@@PAX@2@PAU32@@Z 10003650 f i ILuaModuleManager.obj
 0001:00002680       ?_Myval@?$_Tree_val@U?$_Tree_simple_types@U?$pair@QBXUtss_data_node@detail@boost@@@std@@@std@@@std@@SAAAU?$pair@QBXUtss_data_node@detail@boost@@@2@PAU?$_Tree_node@U?$pair@QBXUtss_data_node@detail@boost@@@std@@PAX@2@@Z 10003680 f i nav.obj
 0001:00002680       ?_Myval@?$_Tree_val@U?$_Tree_simple_types@U?$pair@QAUlua_State@@PAVILuaInterface@@@std@@@std@@@std@@SAAAU?$pair@QAUlua_State@@PAVILuaInterface@@@2@PAU?$_Tree_node@U?$pair@QAUlua_State@@PAVILuaInterface@@@std@@PAX@2@@Z 10003680 f i ILuaModuleManager.obj
 0001:0000268b       ?_Right@?$_Tree_val@U?$_Tree_simple_types@U?$pair@QBXUtss_data_node@detail@boost@@@std@@@std@@@std@@SAAAPAU?$_Tree_node@U?$pair@QBXUtss_data_node@detail@boost@@@std@@PAX@2@PAU32@@Z 1000368b f i nav.obj
 0001:0000268b       ?_Right@?$_Tree_val@U?$_Tree_simple_types@U?$pair@QAUlua_State@@PAVILuaInterface@@@std@@@std@@@std@@SAAAPAU?$_Tree_node@U?$pair@QAUlua_State@@PAVILuaInterface@@@std@@PAX@2@PAU32@@Z 1000368b f i ILuaModuleManager.obj
 0001:00002696       ?_Parent@?$_Tree_val@U?$_Tree_simple_types@U?$pair@QBXUtss_data_node@detail@boost@@@std@@@std@@@std@@SAAAPAU?$_Tree_node@U?$pair@QBXUtss_data_node@detail@boost@@@std@@PAX@2@PAU32@@Z 10003696 f i nav.obj
 0001:00002696       ?_Parent@?$_Tree_val@U?$_Tree_simple_types@U?$pair@QAUlua_State@@PAVILuaInterface@@@std@@@std@@@std@@SAAAPAU?$_Tree_node@U?$pair@QAUlua_State@@PAVILuaInterface@@@std@@PAX@2@PAU32@@Z 10003696 f i ILuaModuleManager.obj
 0001:000026a1       ??$forward@AAU?$pair@QAUlua_State@@PAVILuaInterface@@@std@@@std@@YAAAU?$pair@QAUlua_State@@PAVILuaInterface@@@0@AAU10@@Z 100036a1 f i ILuaModuleManager.obj
 0001:000026a1       ??$_Addressof@PAU?$_Tree_node@U?$pair@QAUlua_State@@PAVILuaInterface@@@std@@PAX@std@@@std@@YAPAPAU?$_Tree_node@U?$pair@QAUlua_State@@PAVILuaInterface@@@std@@PAX@0@AAPAU10@U?$integral_constant@_N$0A@@0@@Z 100036a1 f i ILuaModuleManager.obj
 0001:000026a1       ??$forward@V?$tuple@ABQAUlua_State@@@std@@@std@@YA$$QAV?$tuple@ABQAUlua_State@@@0@AAV10@@Z 100036a1 f i ILuaModuleManager.obj
 0001:000026a1       ??$forward@V?$bind_t@XV?$mf3@XVNav@@PAUJobInfo_t@@PAVNode@@PAV3@@_mfi@boost@@V?$list4@V?$value@PAVNav@@@_bi@boost@@V?$value@PAUJobInfo_t@@@23@V?$value@PAVNode@@@23@V523@@_bi@3@@_bi@boost@@@boost@@YA$$QAV?$bind_t@XV?$mf3@XVNav@@PAUJobInfo_t@@PAVNode@@PAV3@@_mfi@boost@@V?$list4@V?$value@PAVNav@@@_bi@boost@@V?$value@PAUJobInfo_t@@@23@V?$value@PAVNode@@@23@V523@@_bi@3@@_bi@0@AAV120@@Z 100036a1 f i nav.obj
 0001:000026a1       ??$move@AAU?$_Wrap_alloc@V?$allocator@D@std@@@std@@@std@@YA$$QAU?$_Wrap_alloc@V?$allocator@D@std@@@0@AAU10@@Z 100036a1 f i nav.obj
 0001:000026a1       ??$forward@AAPAVcondition_variable@boost@@@std@@YAAAPAVcondition_variable@boost@@AAPAV12@@Z 100036a1 f i nav.obj
 0001:000026a1       ??$move@AAV?$tuple@ABQAUlua_State@@@std@@@std@@YA$$QAV?$tuple@ABQAUlua_State@@@0@AAV10@@Z 100036a1 f i ILuaModuleManager.obj
 0001:000026a1       ??$forward@ABU?$less@PBX@std@@@std@@YAABU?$less@PBX@0@ABU10@@Z 100036a1 f i nav.obj
 0001:000026a1       ??$forward@U?$_Wrap_alloc@V?$allocator@D@std@@@std@@@std@@YA$$QAU?$_Wrap_alloc@V?$allocator@D@std@@@0@AAU10@@Z 100036a1 f i nav.obj
 0001:000026a1       ??$forward@V?$tuple@$$V@std@@@std@@YA$$QAV?$tuple@$$V@0@AAV10@@Z 100036a1 f i ILuaModuleManager.obj
 0001:000026a1       ??$_Unchecked@PAU?$pair@PAVcondition_variable@boost@@PAVmutex@2@@std@@@std@@YAPAU?$pair@PAVcondition_variable@boost@@PAVmutex@2@@0@PAU10@@Z 100036a1 f i nav.obj
 0001:000026a1       ??$_Addressof@U?$pair@PAVcondition_variable@boost@@PAVmutex@2@@std@@@std@@YAPAU?$pair@PAVcondition_variable@boost@@PAVmutex@2@@0@AAU10@U?$integral_constant@_N$0A@@0@@Z 100036a1 f i nav.obj
 0001:000026a1       ??$_Addressof@V?$shared_ptr@Ushared_state_base@detail@boost@@@boost@@@std@@YAPAV?$shared_ptr@Ushared_state_base@detail@boost@@@boost@@AAV12@U?$integral_constant@_N$0A@@0@@Z 100036a1 f i nav.obj
 0001:000026a1       ?_Left@?$_Tree_val@U?$_Tree_simple_types@U?$pair@QBXUtss_data_node@detail@boost@@@std@@@std@@@std@@SAAAPAU?$_Tree_node@U?$pair@QBXUtss_data_node@detail@boost@@@std@@PAX@2@PAU32@@Z 100036a1 f i nav.obj
 0001:000026a1       ??$_Addressof@PAU?$_Tree_node@U?$pair@QBXUtss_data_node@detail@boost@@@std@@PAX@std@@@std@@YAPAPAU?$_Tree_node@U?$pair@QBXUtss_data_node@detail@boost@@@std@@PAX@0@AAPAU10@U?$integral_constant@_N$0A@@0@@Z 100036a1 f i nav.obj
 0001:000026a1       ??$forward@ABU?$less@PAUlua_State@@@std@@@std@@YAABU?$less@PAUlua_State@@@0@ABU10@@Z 100036a1 f i ILuaModuleManager.obj
 0001:000026a1       ??$forward@_N@std@@YA$$QA_NAA_N@Z 100036a1 f i ILuaModuleManager.obj
 0001:000026a1       ??$forward@V?$_Tree_iterator@V?$_Tree_val@U?$_Tree_simple_types@U?$pair@QAUlua_State@@PAVILuaInterface@@@std@@@std@@@std@@@std@@@std@@YA$$QAV?$_Tree_iterator@V?$_Tree_val@U?$_Tree_simple_types@U?$pair@QAUlua_State@@PAVILuaInterface@@@std@@@std@@@std@@@0@AAV10@@Z 100036a1 f i ILuaModuleManager.obj
 0001:000026a1       ??$forward@V?$allocator@D@std@@@std@@YA$$QAV?$allocator@D@0@AAV10@@Z 100036a1 f i nav.obj
 0001:000026a1       ??$_Addressof@U?$pair@QAUlua_State@@PAVILuaInterface@@@std@@@std@@YAPAU?$pair@QAUlua_State@@PAVILuaInterface@@@0@AAU10@U?$integral_constant@_N$0A@@0@@Z 100036a1 f i ILuaModuleManager.obj
 0001:000026a1       ??$_Addressof@U?$pair@QBXUtss_data_node@detail@boost@@@std@@@std@@YAPAU?$pair@QBXUtss_data_node@detail@boost@@@0@AAU10@U?$integral_constant@_N$0A@@0@@Z 100036a1 f i nav.obj
 0001:000026a1       ??$move@AAU?$pair@PAVcondition_variable@boost@@PAVmutex@2@@std@@@std@@YA$$QAU?$pair@PAVcondition_variable@boost@@PAVmutex@2@@0@AAU10@@Z 100036a1 f i nav.obj
 0001:000026a1       ??$forward@AAPAU?$_Tree_node@U?$pair@QBXUtss_data_node@detail@boost@@@std@@PAX@std@@@std@@YAAAPAU?$_Tree_node@U?$pair@QBXUtss_data_node@detail@boost@@@std@@PAX@0@AAPAU10@@Z 100036a1 f i nav.obj
 0001:000026a1       ??$forward@AAV?$_Tree_const_iterator@V?$_Tree_val@U?$_Tree_simple_types@U?$pair@QAUlua_State@@PAVILuaInterface@@@std@@@std@@@std@@@std@@@std@@YAAAV?$_Tree_const_iterator@V?$_Tree_val@U?$_Tree_simple_types@U?$pair@QAUlua_State@@PAVILuaInterface@@@std@@@std@@@std@@@0@AAV10@@Z 100036a1 f i ILuaModuleManager.obj
 0001:000026a1       ?unwrap@?$unwrapper@V?$mf3@XVNav@@PAUJobInfo_t@@PAVNode@@PAV3@@_mfi@boost@@@_bi@boost@@SAAAV?$mf3@XVNav@@PAUJobInfo_t@@PAVNode@@PAV3@@_mfi@3@AAV453@J@Z 100036a1 f i nav.obj
 0001:000026a1       ??$forward@AAV?$_Tree_iterator@V?$_Tree_val@U?$_Tree_simple_types@U?$pair@QAUlua_State@@PAVILuaInterface@@@std@@@std@@@std@@@std@@@std@@YAAAV?$_Tree_iterator@V?$_Tree_val@U?$_Tree_simple_types@U?$pair@QAUlua_State@@PAVILuaInterface@@@std@@@std@@@std@@@0@AAV10@@Z 100036a1 f i ILuaModuleManager.obj
 0001:000026a1       ??$forward@ABUpiecewise_construct_t@std@@@std@@YAABUpiecewise_construct_t@0@ABU10@@Z 100036a1 f i ILuaModuleManager.obj
 0001:000026a1       ??$_Kfn@QAUlua_State@@PAVILuaInterface@@@?$_Tmap_traits@PAUlua_State@@PAVILuaInterface@@U?$less@PAUlua_State@@@std@@V?$allocator@U?$pair@QAUlua_State@@PAVILuaInterface@@@std@@@4@$0A@@std@@SAABQAUlua_State@@ABU?$pair@QAUlua_State@@PAVILuaInterface@@@1@@Z 100036a1 f i ILuaModuleManager.obj
 0001:000026a1       ??$forward@ABQAUlua_State@@@std@@YAABQAUlua_State@@ABQAU1@@Z 100036a1 f i ILuaModuleManager.obj
 0001:000026a1       ??$move@AAD@std@@YA$$QADAAD@Z 100036a1 f i ILuaModuleManager.obj
 0001:000026a1       ??$forward@AAPAU?$_Tree_node@U?$pair@QAUlua_State@@PAVILuaInterface@@@std@@PAX@std@@@std@@YAAAPAU?$_Tree_node@U?$pair@QAUlua_State@@PAVILuaInterface@@@std@@PAX@0@AAPAU10@@Z 100036a1 f i ILuaModuleManager.obj
 0001:000026a1       ??$_Addressof@D@std@@YAPADAADU?$integral_constant@_N$0A@@0@@Z 100036a1 f i main.obj
 0001:000026a1       ??$forward@U?$pair@PAVcondition_variable@boost@@PAVmutex@2@@std@@@std@@YA$$QAU?$pair@PAVcondition_variable@boost@@PAVmutex@2@@0@AAU10@@Z 100036a1 f i nav.obj
 0001:000026a1       ??$forward@V?$bind_t@XV?$mf1@XVNav@@PA_N@_mfi@boost@@V?$list2@V?$value@PAVNav@@@_bi@boost@@V?$value@PA_N@23@@_bi@3@@_bi@boost@@@boost@@YA$$QAV?$bind_t@XV?$mf1@XVNav@@PA_N@_mfi@boost@@V?$list2@V?$value@PAVNav@@@_bi@boost@@V?$value@PA_N@23@@_bi@3@@_bi@0@AAV120@@Z 100036a1 f i nav.obj
 0001:000026a1       ?unwrap@?$unwrapper@V?$mf1@XVNav@@PA_N@_mfi@boost@@@_bi@boost@@SAAAV?$mf1@XVNav@@PA_N@_mfi@3@AAV453@J@Z 100036a1 f i nav.obj
 0001:000026a1       ??$forward@AAPAD@std@@YAAAPADAAPAD@Z 100036a1 f i main.obj
 0001:000026a1       ??$forward@AAPAVmutex@boost@@@std@@YAAAPAVmutex@boost@@AAPAV12@@Z 100036a1 f i nav.obj
 0001:000026a1       ??$forward@U_Zero_then_variadic_args_t@std@@@std@@YA$$QAU_Zero_then_variadic_args_t@0@AAU10@@Z 100036a1 f i ILuaModuleManager.obj
 0001:000026a1       ?_Left@?$_Tree_val@U?$_Tree_simple_types@U?$pair@QAUlua_State@@PAVILuaInterface@@@std@@@std@@@std@@SAAAPAU?$_Tree_node@U?$pair@QAUlua_State@@PAVILuaInterface@@@std@@PAX@2@PAU32@@Z 100036a1 f i ILuaModuleManager.obj
 0001:000026a9       ?_Isnil@?$_Tree_val@U?$_Tree_simple_types@U?$pair@QBXUtss_data_node@detail@boost@@@std@@@std@@@std@@SAAADPAU?$_Tree_node@U?$pair@QBXUtss_data_node@detail@boost@@@std@@PAX@2@@Z 100036a9 f i nav.obj
 0001:000026a9       ?_Isnil@?$_Tree_val@U?$_Tree_simple_types@U?$pair@QAUlua_State@@PAVILuaInterface@@@std@@@std@@@std@@SAAADPAU?$_Tree_node@U?$pair@QAUlua_State@@PAVILuaInterface@@@std@@PAX@2@@Z 100036a9 f i ILuaModuleManager.obj
 0001:000026b4       ?_Color@?$_Tree_val@U?$_Tree_simple_types@U?$pair@QBXUtss_data_node@detail@boost@@@std@@@std@@@std@@SAAADPAU?$_Tree_node@U?$pair@QBXUtss_data_node@detail@boost@@@std@@PAX@2@@Z 100036b4 f i nav.obj
 0001:000026b4       ?_Color@?$_Tree_val@U?$_Tree_simple_types@U?$pair@QAUlua_State@@PAVILuaInterface@@@std@@@std@@@std@@SAAADPAU?$_Tree_node@U?$pair@QAUlua_State@@PAVILuaInterface@@@std@@PAX@2@@Z 100036b4 f i ILuaModuleManager.obj
 0001:000026bf       ?deallocate@?$allocator@U?$_Tree_node@U?$pair@QAUlua_State@@PAVILuaInterface@@@std@@PAX@std@@@std@@QAEXPAU?$_Tree_node@U?$pair@QAUlua_State@@PAVILuaInterface@@@std@@PAX@2@I@Z 100036bf f i ILuaModuleManager.obj
 0001:000026dc       ?_Buyheadnode@?$_Tree_comp_alloc@V?$_Tmap_traits@PAUlua_State@@PAVILuaInterface@@U?$less@PAUlua_State@@@std@@V?$allocator@U?$pair@QAUlua_State@@PAVILuaInterface@@@std@@@4@$0A@@std@@@std@@QAEPAU?$_Tree_node@U?$pair@QAUlua_State@@PAVILuaInterface@@@std@@PAX@2@XZ 100036dc f i ILuaModuleManager.obj
 0001:000027fa       ?allocate@?$_Wrap_alloc@V?$allocator@U?$_Tree_node@U?$pair@QAUlua_State@@PAVILuaInterface@@@std@@PAX@std@@@std@@@std@@QAEPAU?$_Tree_node@U?$pair@QAUlua_State@@PAVILuaInterface@@@std@@PAX@2@I@Z 100037fa f i ILuaModuleManager.obj
 0001:00002812       ?allocate@?$allocator@U?$_Tree_node@U?$pair@QAUlua_State@@PAVILuaInterface@@@std@@PAX@std@@@std@@QAEPAU?$_Tree_node@U?$pair@QAUlua_State@@PAVILuaInterface@@@std@@PAX@2@I@Z 10003812 f i ILuaModuleManager.obj
 0001:0000282e       ??$_Distance@V?$_Tree_iterator@V?$_Tree_val@U?$_Tree_simple_types@U?$pair@QAUlua_State@@PAVILuaInterface@@@std@@@std@@@std@@@std@@I@std@@YAXV?$_Tree_iterator@V?$_Tree_val@U?$_Tree_simple_types@U?$pair@QAUlua_State@@PAVILuaInterface@@@std@@@std@@@std@@@0@0AAI@Z 1000382e f i ILuaModuleManager.obj
 0001:0000285c       ??$try_emplace@$$V@?$map@PAUlua_State@@PAVILuaInterface@@U?$less@PAUlua_State@@@std@@V?$allocator@U?$pair@QAUlua_State@@PAVILuaInterface@@@std@@@4@@std@@QAE?AU?$pair@V?$_Tree_iterator@V?$_Tree_val@U?$_Tree_simple_types@U?$pair@QAUlua_State@@PAVILuaInterface@@@std@@@std@@@std@@@std@@_N@1@ABQAUlua_State@@@Z 1000385c f i ILuaModuleManager.obj
 0001:0000287a       ??$_Eqrange@PAUlua_State@@@?$_Tree@V?$_Tmap_traits@PAUlua_State@@PAVILuaInterface@@U?$less@PAUlua_State@@@std@@V?$allocator@U?$pair@QAUlua_State@@PAVILuaInterface@@@std@@@4@$0A@@std@@@std@@IAE?AU?$pair@V?$_Tree_iterator@V?$_Tree_val@U?$_Tree_simple_types@U?$pair@QAUlua_State@@PAVILuaInterface@@@std@@@std@@@std@@@std@@V12@@1@ABQAUlua_State@@@Z 1000387a f i ILuaModuleManager.obj
 0001:000028d3       ??$addressof@U?$pair@QAUlua_State@@PAVILuaInterface@@@std@@@std@@YAPAU?$pair@QAUlua_State@@PAVILuaInterface@@@0@AAU10@@Z 100038d3 f i ILuaModuleManager.obj
 0001:000028d3       ??$addressof@U?$pair@QBXUtss_data_node@detail@boost@@@std@@@std@@YAPAU?$pair@QBXUtss_data_node@detail@boost@@@0@AAU10@@Z 100038d3 f i nav.obj
 0001:000028d3       ??$addressof@V?$shared_ptr@Ushared_state_base@detail@boost@@@boost@@@std@@YAPAV?$shared_ptr@Ushared_state_base@detail@boost@@@boost@@AAV12@@Z 100038d3 f i nav.obj
 0001:000028d3       ??$addressof@U?$pair@PAVcondition_variable@boost@@PAVmutex@2@@std@@@std@@YAPAU?$pair@PAVcondition_variable@boost@@PAVmutex@2@@0@AAU10@@Z 100038d3 f i nav.obj
 0001:000028d3       ??$addressof@PAU?$_Tree_node@U?$pair@QBXUtss_data_node@detail@boost@@@std@@PAX@std@@@std@@YAPAPAU?$_Tree_node@U?$pair@QBXUtss_data_node@detail@boost@@@std@@PAX@0@AAPAU10@@Z 100038d3 f i nav.obj
 0001:000028d3       ??$addressof@PAU?$_Tree_node@U?$pair@QAUlua_State@@PAVILuaInterface@@@std@@PAX@std@@@std@@YAPAPAU?$_Tree_node@U?$pair@QAUlua_State@@PAVILuaInterface@@@std@@PAX@0@AAPAU10@@Z 100038d3 f i ILuaModuleManager.obj
 0001:000028d3       ??$addressof@D@std@@YAPADAAD@Z 100038d3 f i main.obj
 0001:000028e8       ??$destroy@PAD@?$_Wrap_alloc@V?$allocator@D@std@@@std@@QAEXPAPAD@Z 100038e8 f i main.obj
 0001:000028e8       ??$destroy@U?$pair@PAVcondition_variable@boost@@PAVmutex@2@@std@@@?$_Wrap_alloc@V?$allocator@U?$pair@PAVcondition_variable@boost@@PAVmutex@2@@std@@@std@@@std@@QAEXPAU?$pair@PAVcondition_variable@boost@@PAVmutex@2@@1@@Z 100038e8 f i nav.obj
 0001:000028e8       ??$destroy@PAU?$_Tree_node@U?$pair@QAUlua_State@@PAVILuaInterface@@@std@@PAX@std@@@?$_Wrap_alloc@V?$allocator@U?$_Tree_node@U?$pair@QAUlua_State@@PAVILuaInterface@@@std@@PAX@std@@@std@@@std@@QAEXPAPAU?$_Tree_node@U?$pair@QAUlua_State@@PAVILuaInterface@@@std@@PAX@1@@Z 100038e8 f i ILuaModuleManager.obj
 0001:000028e8       ??$destroy@U?$pair@QAUlua_State@@PAVILuaInterface@@@std@@@?$_Wrap_alloc@V?$allocator@U?$_Tree_node@U?$pair@QAUlua_State@@PAVILuaInterface@@@std@@PAX@std@@@std@@@std@@QAEXPAU?$pair@QAUlua_State@@PAVILuaInterface@@@1@@Z 100038e8 f i ILuaModuleManager.obj
 0001:000028e8       ??$destroy@PAU?$_Tree_node@U?$pair@QBXUtss_data_node@detail@boost@@@std@@PAX@std@@@?$_Wrap_alloc@V?$allocator@U?$_Tree_node@U?$pair@QBXUtss_data_node@detail@boost@@@std@@PAX@std@@@std@@@std@@QAEXPAPAU?$_Tree_node@U?$pair@QBXUtss_data_node@detail@boost@@@std@@PAX@1@@Z 100038e8 f i nav.obj
 0001:00002902       ??$?0ABU?$less@PBX@std@@U_Zero_then_variadic_args_t@1@@?$_Compressed_pair@U?$less@PBX@std@@V?$_Compressed_pair@U?$_Wrap_alloc@V?$allocator@U?$_Tree_node@U?$pair@QBXUtss_data_node@detail@boost@@@std@@PAX@std@@@std@@@std@@V?$_Tree_val@U?$_Tree_simple_types@U?$pair@QBXUtss_data_node@detail@boost@@@std@@@std@@@2@$00@2@$00@std@@QAE@U_One_then_variadic_args_t@1@ABU?$less@PBX@1@$$QAU_Zero_then_variadic_args_t@1@@Z 10003902 f i nav.obj
 0001:00002902       ??$?0ABU?$less@PAUlua_State@@@std@@U_Zero_then_variadic_args_t@1@@?$_Compressed_pair@U?$less@PAUlua_State@@@std@@V?$_Compressed_pair@U?$_Wrap_alloc@V?$allocator@U?$_Tree_node@U?$pair@QAUlua_State@@PAVILuaInterface@@@std@@PAX@std@@@std@@@std@@V?$_Tree_val@U?$_Tree_simple_types@U?$pair@QAUlua_State@@PAVILuaInterface@@@std@@@std@@@2@$00@2@$00@std@@QAE@U_One_then_variadic_args_t@1@ABU?$less@PAUlua_State@@@1@$$QAU_Zero_then_variadic_args_t@1@@Z 10003902 f i ILuaModuleManager.obj
 0001:00002932       ??$swap@D@std@@YAXAAD0@Z   10003932 f i ILuaModuleManager.obj
 0001:00002969       ??$construct@PADAAPAD@?$_Wrap_alloc@V?$allocator@D@std@@@std@@QAEXPAPADAAPAD@Z 10003969 f i main.obj
 0001:00002969       ??$construct@PAU?$_Tree_node@U?$pair@QBXUtss_data_node@detail@boost@@@std@@PAX@std@@AAPAU12@@?$_Wrap_alloc@V?$allocator@U?$_Tree_node@U?$pair@QBXUtss_data_node@detail@boost@@@std@@PAX@std@@@std@@@std@@QAEXPAPAU?$_Tree_node@U?$pair@QBXUtss_data_node@detail@boost@@@std@@PAX@1@AAPAU21@@Z 10003969 f i nav.obj
 0001:00002969       ??$construct@PAU?$_Tree_node@U?$pair@QAUlua_State@@PAVILuaInterface@@@std@@PAX@std@@AAPAU12@@?$_Wrap_alloc@V?$allocator@U?$_Tree_node@U?$pair@QAUlua_State@@PAVILuaInterface@@@std@@PAX@std@@@std@@@std@@QAEXPAPAU?$_Tree_node@U?$pair@QAUlua_State@@PAVILuaInterface@@@std@@PAX@1@AAPAU21@@Z 10003969 f i ILuaModuleManager.obj
 0001:0000298e       ??$_Eqrange@PAUlua_State@@@?$_Tree@V?$_Tmap_traits@PAUlua_State@@PAVILuaInterface@@U?$less@PAUlua_State@@@std@@V?$allocator@U?$pair@QAUlua_State@@PAVILuaInterface@@@std@@@4@$0A@@std@@@std@@IBE?AU?$pair@V?$_Tree_const_iterator@V?$_Tree_val@U?$_Tree_simple_types@U?$pair@QAUlua_State@@PAVILuaInterface@@@std@@@std@@@std@@@std@@V12@@1@ABQAUlua_State@@@Z 1000398e f i ILuaModuleManager.obj
 0001:00002b2a       ??$_Iter_cat@V?$_Tree_iterator@V?$_Tree_val@U?$_Tree_simple_types@U?$pair@QAUlua_State@@PAVILuaInterface@@@std@@@std@@@std@@@std@@@std@@YA?AUbidirectional_iterator_tag@0@ABV?$_Tree_iterator@V?$_Tree_val@U?$_Tree_simple_types@U?$pair@QAUlua_State@@PAVILuaInterface@@@std@@@std@@@std@@@0@@Z 10003b2a f i ILuaModuleManager.obj
 0001:00002b39       ??$_Distance2@V?$_Tree_iterator@V?$_Tree_val@U?$_Tree_simple_types@U?$pair@QAUlua_State@@PAVILuaInterface@@@std@@@std@@@std@@@std@@I@std@@YAXV?$_Tree_iterator@V?$_Tree_val@U?$_Tree_simple_types@U?$pair@QAUlua_State@@PAVILuaInterface@@@std@@@std@@@std@@@0@0AAIUbidirectional_iterator_tag@0@@Z 10003b39 f i ILuaModuleManager.obj
 0001:00002b68       ??$_Try_emplace@ABQAUlua_State@@$$V@?$map@PAUlua_State@@PAVILuaInterface@@U?$less@PAUlua_State@@@std@@V?$allocator@U?$pair@QAUlua_State@@PAVILuaInterface@@@std@@@4@@std@@QAE?AU?$pair@V?$_Tree_iterator@V?$_Tree_val@U?$_Tree_simple_types@U?$pair@QAUlua_State@@PAVILuaInterface@@@std@@@std@@@std@@@std@@_N@1@ABQAUlua_State@@@Z 10003b68 f i ILuaModuleManager.obj
 0001:00002c37       ??$?0AAV?$_Tree_iterator@V?$_Tree_val@U?$_Tree_simple_types@U?$pair@QAUlua_State@@PAVILuaInterface@@@std@@@std@@@std@@@std@@AAV01@X$0A@@?$pair@V?$_Tree_iterator@V?$_Tree_val@U?$_Tree_simple_types@U?$pair@QAUlua_State@@PAVILuaInterface@@@std@@@std@@@std@@@std@@V12@@std@@QAE@AAV?$_Tree_iterator@V?$_Tree_val@U?$_Tree_simple_types@U?$pair@QAUlua_State@@PAVILuaInterface@@@std@@@std@@@std@@@1@0@Z 10003c37 f i ILuaModuleManager.obj
 0001:00002c37       ??$?0AAV?$_Tree_const_iterator@V?$_Tree_val@U?$_Tree_simple_types@U?$pair@QAUlua_State@@PAVILuaInterface@@@std@@@std@@@std@@@std@@AAV01@X$0A@@?$pair@V?$_Tree_const_iterator@V?$_Tree_val@U?$_Tree_simple_types@U?$pair@QAUlua_State@@PAVILuaInterface@@@std@@@std@@@std@@@std@@V12@@std@@QAE@AAV?$_Tree_const_iterator@V?$_Tree_val@U?$_Tree_simple_types@U?$pair@QAUlua_State@@PAVILuaInterface@@@std@@@std@@@std@@@1@0@Z 10003c37 f i ILuaModuleManager.obj
 0001:00002c68       ??$destroy@PAU?$_Tree_node@U?$pair@QAUlua_State@@PAVILuaInterface@@@std@@PAX@std@@@?$allocator_traits@V?$allocator@U?$_Tree_node@U?$pair@QAUlua_State@@PAVILuaInterface@@@std@@PAX@std@@@std@@@std@@SAXAAV?$allocator@U?$_Tree_node@U?$pair@QAUlua_State@@PAVILuaInterface@@@std@@PAX@std@@@1@PAPAU?$_Tree_node@U?$pair@QAUlua_State@@PAVILuaInterface@@@std@@PAX@1@@Z 10003c68 f i ILuaModuleManager.obj
 0001:00002c68       ??$destroy@U?$pair@QAUlua_State@@PAVILuaInterface@@@std@@@?$allocator_traits@V?$allocator@U?$_Tree_node@U?$pair@QAUlua_State@@PAVILuaInterface@@@std@@PAX@std@@@std@@@std@@SAXAAV?$allocator@U?$_Tree_node@U?$pair@QAUlua_State@@PAVILuaInterface@@@std@@PAX@std@@@1@PAU?$pair@QAUlua_State@@PAVILuaInterface@@@1@@Z 10003c68 f i ILuaModuleManager.obj
 0001:00002c68       ??$destroy@U?$pair@PAVcondition_variable@boost@@PAVmutex@2@@std@@@?$allocator_traits@V?$allocator@U?$pair@PAVcondition_variable@boost@@PAVmutex@2@@std@@@std@@@std@@SAXAAV?$allocator@U?$pair@PAVcondition_variable@boost@@PAVmutex@2@@std@@@1@PAU?$pair@PAVcondition_variable@boost@@PAVmutex@2@@1@@Z 10003c68 f i nav.obj
 0001:00002c68       ??$destroy@PAD@?$allocator_traits@V?$allocator@D@std@@@std@@SAXAAV?$allocator@D@1@PAPAD@Z 10003c68 f i main.obj
 0001:00002c68       ??$destroy@PAU?$_Tree_node@U?$pair@QBXUtss_data_node@detail@boost@@@std@@PAX@std@@@?$allocator_traits@V?$allocator@U?$_Tree_node@U?$pair@QBXUtss_data_node@detail@boost@@@std@@PAX@std@@@std@@@std@@SAXAAV?$allocator@U?$_Tree_node@U?$pair@QBXUtss_data_node@detail@boost@@@std@@PAX@std@@@1@PAPAU?$_Tree_node@U?$pair@QBXUtss_data_node@detail@boost@@@std@@PAX@1@@Z 10003c68 f i nav.obj
 0001:00002c78       ??$?0$$V@?$_Compressed_pair@U?$_Wrap_alloc@V?$allocator@U?$_Tree_node@U?$pair@QAUlua_State@@PAVILuaInterface@@@std@@PAX@std@@@std@@@std@@V?$_Tree_val@U?$_Tree_simple_types@U?$pair@QAUlua_State@@PAVILuaInterface@@@std@@@std@@@2@$00@std@@QAE@U_Zero_then_variadic_args_t@1@@Z 10003c78 f i ILuaModuleManager.obj
 0001:00002c78       ??$?0$$V@?$_Compressed_pair@U?$_Wrap_alloc@V?$allocator@U?$_Tree_node@U?$pair@QBXUtss_data_node@detail@boost@@@std@@PAX@std@@@std@@@std@@V?$_Tree_val@U?$_Tree_simple_types@U?$pair@QBXUtss_data_node@detail@boost@@@std@@@std@@@2@$00@std@@QAE@U_Zero_then_variadic_args_t@1@@Z 10003c78 f i nav.obj
 0001:00002c98       ??$construct@PADAAPAD@?$allocator_traits@V?$allocator@D@std@@@std@@SAXAAV?$allocator@D@1@PAPADAAPAD@Z 10003c98 f i main.obj
 0001:00002c98       ??$construct@PAU?$_Tree_node@U?$pair@QBXUtss_data_node@detail@boost@@@std@@PAX@std@@AAPAU12@@?$allocator_traits@V?$allocator@U?$_Tree_node@U?$pair@QBXUtss_data_node@detail@boost@@@std@@PAX@std@@@std@@@std@@SAXAAV?$allocator@U?$_Tree_node@U?$pair@QBXUtss_data_node@detail@boost@@@std@@PAX@std@@@1@PAPAU?$_Tree_node@U?$pair@QBXUtss_data_node@detail@boost@@@std@@PAX@1@AAPAU31@@Z 10003c98 f i nav.obj
 0001:00002c98       ??$construct@PAU?$_Tree_node@U?$pair@QAUlua_State@@PAVILuaInterface@@@std@@PAX@std@@AAPAU12@@?$allocator_traits@V?$allocator@U?$_Tree_node@U?$pair@QAUlua_State@@PAVILuaInterface@@@std@@PAX@std@@@std@@@std@@SAXAAV?$allocator@U?$_Tree_node@U?$pair@QAUlua_State@@PAVILuaInterface@@@std@@PAX@std@@@1@PAPAU?$_Tree_node@U?$pair@QAUlua_State@@PAVILuaInterface@@@std@@PAX@1@AAPAU31@@Z 10003c98 f i ILuaModuleManager.obj
 0001:00002cb2       ??E?$_Tree_iterator@V?$_Tree_val@U?$_Tree_simple_types@U?$pair@QAUlua_State@@PAVILuaInterface@@@std@@@std@@@std@@@std@@QAEAAV01@XZ 10003cb2 f i ILuaModuleManager.obj
 0001:00002cc8       ??0?$_Tree_val@U?$_Tree_simple_types@U?$pair@QAUlua_State@@PAVILuaInterface@@@std@@@std@@@std@@QAE@XZ 10003cc8 f i ILuaModuleManager.obj
 0001:00002cc8       ??0?$_Tree_val@U?$_Tree_simple_types@U?$pair@QBXUtss_data_node@detail@boost@@@std@@@std@@@std@@QAE@XZ 10003cc8 f i nav.obj
 0001:00002ce3       ??0?$_Wrap_alloc@V?$allocator@U?$_Tree_node@U?$pair@QAUlua_State@@PAVILuaInterface@@@std@@PAX@std@@@std@@@std@@QAE@XZ 10003ce3 f i ILuaModuleManager.obj
 0001:00002ce3       ??0?$_Wrap_alloc@V?$allocator@U?$_Tree_node@U?$pair@QBXUtss_data_node@detail@boost@@@std@@PAX@std@@@std@@@std@@QAE@XZ 10003ce3 f i nav.obj
 0001:00002ce3       ??0?$_Wrap_alloc@V?$allocator@V?$shared_ptr@Ushared_state_base@detail@boost@@@boost@@@std@@@std@@QAE@XZ 10003ce3 f i nav.obj
 0001:00002ce3       ??0?$_Wrap_alloc@V?$allocator@U?$pair@PAVcondition_variable@boost@@PAVmutex@2@@std@@@std@@@std@@QAE@XZ 10003ce3 f i nav.obj
 0001:00002ce3       ??0?$_Wrap_alloc@V?$allocator@D@std@@@std@@QAE@XZ 10003ce3 f i main.obj
 0001:00002ce3       ??0cplane_t@@QAE@XZ        10003ce3 f i nav.obj
 0001:00002ce3       ??0VectorAligned@@QAE@XZ   10003ce3 f i nav.obj
 0001:00002cf9       ?_Get_data@?$_Vector_alloc@U?$_Vec_base_types@U?$pair@PAVcondition_variable@boost@@PAVmutex@2@@std@@V?$allocator@U?$pair@PAVcondition_variable@boost@@PAVmutex@2@@std@@@2@@std@@@std@@QBEABV?$_Vector_val@U?$_Simple_types@U?$pair@PAVcondition_variable@boost@@PAVmutex@2@@std@@@std@@@2@XZ 10003cf9 f i nav.obj
 0001:00002cf9       ?_Getal@?$_Vector_alloc@U?$_Vec_base_types@V?$shared_ptr@Ushared_state_base@detail@boost@@@boost@@V?$allocator@V?$shared_ptr@Ushared_state_base@detail@boost@@@boost@@@std@@@std@@@std@@QAEAAU?$_Wrap_alloc@V?$allocator@V?$shared_ptr@Ushared_state_base@detail@boost@@@boost@@@std@@@2@XZ 10003cf9 f i nav.obj
 0001:00002cf9       ?_Get_data@?$_Vector_alloc@U?$_Vec_base_types@U?$pair@PAVcondition_variable@boost@@PAVmutex@2@@std@@V?$allocator@U?$pair@PAVcondition_variable@boost@@PAVmutex@2@@std@@@2@@std@@@std@@QAEAAV?$_Vector_val@U?$_Simple_types@U?$pair@PAVcondition_variable@boost@@PAVmutex@2@@std@@@std@@@2@XZ 10003cf9 f i nav.obj
 0001:00002cf9       ?_Getcomp@?$_Tree_comp_alloc@V?$_Tmap_traits@PAUlua_State@@PAVILuaInterface@@U?$less@PAUlua_State@@@std@@V?$allocator@U?$pair@QAUlua_State@@PAVILuaInterface@@@std@@@4@$0A@@std@@@std@@QAEAAU?$less@PAUlua_State@@@2@XZ 10003cf9 f i ILuaModuleManager.obj
 0001:00002cf9       ?_Getal@?$_String_alloc@U?$_String_base_types@DV?$allocator@D@std@@@std@@@std@@QBEABU?$_Wrap_alloc@V?$allocator@D@std@@@2@XZ 10003cf9 f i main.obj
 0001:00002cf9       ?_Getal@?$_String_alloc@U?$_String_base_types@DV?$allocator@D@std@@@std@@@std@@QAEAAU?$_Wrap_alloc@V?$allocator@D@std@@@2@XZ 10003cf9 f i main.obj
 0001:00002cf9       ?_Getal@?$_Vector_alloc@U?$_Vec_base_types@U?$pair@PAVcondition_variable@boost@@PAVmutex@2@@std@@V?$allocator@U?$pair@PAVcondition_variable@boost@@PAVmutex@2@@std@@@2@@std@@@std@@QBEABU?$_Wrap_alloc@V?$allocator@U?$pair@PAVcondition_variable@boost@@PAVmutex@2@@std@@@std@@@2@XZ 10003cf9 f i nav.obj
 0001:00002cf9       ?_Get_data@?$_String_alloc@U?$_String_base_types@DV?$allocator@D@std@@@std@@@std@@QBEABV?$_String_val@U?$_Simple_types@D@std@@@2@XZ 10003cf9 f i main.obj
 0001:00002cf9       ?_Get_data@?$_String_alloc@U?$_String_base_types@DV?$allocator@D@std@@@std@@@std@@QAEAAV?$_String_val@U?$_Simple_types@D@std@@@2@XZ 10003cf9 f i main.obj
 0001:00002cf9       ?_Getcomp@?$_Tree_comp_alloc@V?$_Tmap_traits@PAUlua_State@@PAVILuaInterface@@U?$less@PAUlua_State@@@std@@V?$allocator@U?$pair@QAUlua_State@@PAVILuaInterface@@@std@@@4@$0A@@std@@@std@@QBEABU?$less@PAUlua_State@@@2@XZ 10003cf9 f i ILuaModuleManager.obj
 0001:00002cf9       ?_Getal@?$_Vector_alloc@U?$_Vec_base_types@U?$pair@PAVcondition_variable@boost@@PAVmutex@2@@std@@V?$allocator@U?$pair@PAVcondition_variable@boost@@PAVmutex@2@@std@@@2@@std@@@std@@QAEAAU?$_Wrap_alloc@V?$allocator@U?$pair@PAVcondition_variable@boost@@PAVmutex@2@@std@@@std@@@2@XZ 10003cf9 f i nav.obj
 0001:00002cf9       ?_Get_data@?$_Vector_alloc@U?$_Vec_base_types@V?$shared_ptr@Ushared_state_base@detail@boost@@@boost@@V?$allocator@V?$shared_ptr@Ushared_state_base@detail@boost@@@boost@@@std@@@std@@@std@@QAEAAV?$_Vector_val@U?$_Simple_types@V?$shared_ptr@Ushared_state_base@detail@boost@@@boost@@@std@@@2@XZ 10003cf9 f i nav.obj
 0001:00002d0c       ?_Key@?$_Tree@V?$_Tmap_traits@PAUlua_State@@PAVILuaInterface@@U?$less@PAUlua_State@@@std@@V?$allocator@U?$pair@QAUlua_State@@PAVILuaInterface@@@std@@@4@$0A@@std@@@std@@IBEABQAUlua_State@@PAU?$_Tree_node@U?$pair@QAUlua_State@@PAVILuaInterface@@@std@@PAX@2@@Z 10003d0c f i ILuaModuleManager.obj
 0001:00002d2b       ?lower_bound@?$_Tree@V?$_Tmap_traits@PAUlua_State@@PAVILuaInterface@@U?$less@PAUlua_State@@@std@@V?$allocator@U?$pair@QAUlua_State@@PAVILuaInterface@@@std@@@4@$0A@@std@@@std@@QAE?AV?$_Tree_iterator@V?$_Tree_val@U?$_Tree_simple_types@U?$pair@QAUlua_State@@PAVILuaInterface@@@std@@@std@@@std@@@2@ABQAUlua_State@@@Z 10003d2b f i ILuaModuleManager.obj
 0001:00002d58       ??R?$less@PAUlua_State@@@std@@QBE_NABQAUlua_State@@0@Z 10003d58 f i ILuaModuleManager.obj
 0001:00002d82       ?_Kfn@?$_Tree@V?$_Tmap_traits@PAUlua_State@@PAVILuaInterface@@U?$less@PAUlua_State@@@std@@V?$allocator@U?$pair@QAUlua_State@@PAVILuaInterface@@@std@@@4@$0A@@std@@@std@@IBEABQAUlua_State@@ABU?$pair@QAUlua_State@@PAVILuaInterface@@@2@@Z 10003d82 f i ILuaModuleManager.obj
 0001:00002d98       ??$forward_as_tuple@ABQAUlua_State@@@std@@YA?AV?$tuple@ABQAUlua_State@@@0@ABQAUlua_State@@@Z 10003d98 f i ILuaModuleManager.obj
 0001:00002dde       ??$forward_as_tuple@$$V@std@@YA?AV?$tuple@$$V@0@XZ 10003dde f i ILuaModuleManager.obj
 0001:00002dee       ??$emplace_hint@ABUpiecewise_construct_t@std@@V?$tuple@ABQAUlua_State@@@2@V?$tuple@$$V@2@@?$_Tree@V?$_Tmap_traits@PAUlua_State@@PAVILuaInterface@@U?$less@PAUlua_State@@@std@@V?$allocator@U?$pair@QAUlua_State@@PAVILuaInterface@@@std@@@4@$0A@@std@@@std@@QAE?AV?$_Tree_iterator@V?$_Tree_val@U?$_Tree_simple_types@U?$pair@QAUlua_State@@PAVILuaInterface@@@std@@@std@@@std@@@1@V?$_Tree_const_iterator@V?$_Tree_val@U?$_Tree_simple_types@U?$pair@QAUlua_State@@PAVILuaInterface@@@std@@@std@@@std@@@1@ABUpiecewise_construct_t@1@$$QAV?$tuple@ABQAUlua_State@@@1@$$QAV?$tuple@$$V@1@@Z 10003dee f i ILuaModuleManager.obj
 0001:00002e43       ??$?0AAV?$_Tree_iterator@V?$_Tree_val@U?$_Tree_simple_types@U?$pair@QAUlua_State@@PAVILuaInterface@@@std@@@std@@@std@@@std@@_NX$0A@@?$pair@V?$_Tree_iterator@V?$_Tree_val@U?$_Tree_simple_types@U?$pair@QAUlua_State@@PAVILuaInterface@@@std@@@std@@@std@@@std@@_N@std@@QAE@AAV?$_Tree_iterator@V?$_Tree_val@U?$_Tree_simple_types@U?$pair@QAUlua_State@@PAVILuaInterface@@@std@@@std@@@std@@@1@$$QA_N@Z 10003e43 f i ILuaModuleManager.obj
 0001:00002e43       ??$?0V?$_Tree_iterator@V?$_Tree_val@U?$_Tree_simple_types@U?$pair@QAUlua_State@@PAVILuaInterface@@@std@@@std@@@std@@@std@@_NX$0A@@?$pair@V?$_Tree_iterator@V?$_Tree_val@U?$_Tree_simple_types@U?$pair@QAUlua_State@@PAVILuaInterface@@@std@@@std@@@std@@@std@@_N@std@@QAE@$$QAV?$_Tree_iterator@V?$_Tree_val@U?$_Tree_simple_types@U?$pair@QAUlua_State@@PAVILuaInterface@@@std@@@std@@@std@@@1@$$QA_N@Z 10003e43 f i ILuaModuleManager.obj
 0001:00002e74       ??$construct@PAU?$_Tree_node@U?$pair@QAUlua_State@@PAVILuaInterface@@@std@@PAX@std@@AAPAU12@@?$allocator@U?$_Tree_node@U?$pair@QAUlua_State@@PAVILuaInterface@@@std@@PAX@std@@@std@@QAEXPAPAU?$_Tree_node@U?$pair@QAUlua_State@@PAVILuaInterface@@@std@@PAX@1@AAPAU21@@Z 10003e74 f i ILuaModuleManager.obj
 0001:00002e74       ??$construct@PADAAPAD@?$allocator@D@std@@QAEXPAPADAAPAD@Z 10003e74 f i main.obj
 0001:00002e74       ??$construct@PAU?$_Tree_node@U?$pair@QBXUtss_data_node@detail@boost@@@std@@PAX@std@@AAPAU12@@?$allocator@U?$_Tree_node@U?$pair@QBXUtss_data_node@detail@boost@@@std@@PAX@std@@@std@@QAEXPAPAU?$_Tree_node@U?$pair@QBXUtss_data_node@detail@boost@@@std@@PAX@1@AAPAU21@@Z 10003e74 f i nav.obj
 0001:00002eb4       ??$_Lbound@PAUlua_State@@@?$_Tree@V?$_Tmap_traits@PAUlua_State@@PAVILuaInterface@@U?$less@PAUlua_State@@@std@@V?$allocator@U?$pair@QAUlua_State@@PAVILuaInterface@@@std@@@4@$0A@@std@@@std@@IBEPAU?$_Tree_node@U?$pair@QAUlua_State@@PAVILuaInterface@@@std@@PAX@1@ABQAUlua_State@@@Z 10003eb4 f i ILuaModuleManager.obj
 0001:00002f34       ?_Compare@?$_Tree@V?$_Tmap_traits@PAUlua_State@@PAVILuaInterface@@U?$less@PAUlua_State@@@std@@V?$allocator@U?$pair@QAUlua_State@@PAVILuaInterface@@@std@@@4@$0A@@std@@@std@@IBE_NABQAUlua_State@@0@Z 10003f34 f i ILuaModuleManager.obj
 0001:00002f56       ??$?0ABQAUlua_State@@$0A@@?$tuple@ABQAUlua_State@@@std@@QAE@ABQAUlua_State@@@Z 10003f56 f i ILuaModuleManager.obj
 0001:00002f82       ??$_Buynode@ABUpiecewise_construct_t@std@@V?$tuple@ABQAUlua_State@@@2@V?$tuple@$$V@2@@?$_Tree_comp_alloc@V?$_Tmap_traits@PAUlua_State@@PAVILuaInterface@@U?$less@PAUlua_State@@@std@@V?$allocator@U?$pair@QAUlua_State@@PAVILuaInterface@@@std@@@4@$0A@@std@@@std@@QAEPAU?$_Tree_node@U?$pair@QAUlua_State@@PAVILuaInterface@@@std@@PAX@1@ABUpiecewise_construct_t@1@$$QAV?$tuple@ABQAUlua_State@@@1@$$QAV?$tuple@$$V@1@@Z 10003f82 f i ILuaModuleManager.obj
 0001:00003058       ??$_Insert_hint@AAU?$pair@QAUlua_State@@PAVILuaInterface@@@std@@PAU?$_Tree_node@U?$pair@QAUlua_State@@PAVILuaInterface@@@std@@PAX@2@@?$_Tree@V?$_Tmap_traits@PAUlua_State@@PAVILuaInterface@@U?$less@PAUlua_State@@@std@@V?$allocator@U?$pair@QAUlua_State@@PAVILuaInterface@@@std@@@4@$0A@@std@@@std@@IAE?AV?$_Tree_iterator@V?$_Tree_val@U?$_Tree_simple_types@U?$pair@QAUlua_State@@PAVILuaInterface@@@std@@@std@@@std@@@1@V?$_Tree_const_iterator@V?$_Tree_val@U?$_Tree_simple_types@U?$pair@QAUlua_State@@PAVILuaInterface@@@std@@@std@@@std@@@1@AAU?$pair@QAUlua_State@@PAVILuaInterface@@@1@PAU?$_Tree_node@U?$pair@QAUlua_State@@PAVILuaInterface@@@std@@PAX@1@@Z 10004058 f i ILuaModuleManager.obj
 0001:00003a1a       ??F?$_Tree_const_iterator@V?$_Tree_val@U?$_Tree_simple_types@U?$pair@QAUlua_State@@PAVILuaInterface@@@std@@@std@@@std@@@std@@QAEAAV01@XZ 10004a1a f i ILuaModuleManager.obj
 0001:00003a30       ??0?$_Tree_const_iterator@V?$_Tree_val@U?$_Tree_simple_types@U?$pair@QAUlua_State@@PAVILuaInterface@@@std@@@std@@@std@@@std@@QAE@XZ 10004a30 f i ILuaModuleManager.obj
 0001:00003a46       ?_Freenode0@?$_Tree_comp_alloc@V?$_Tmap_traits@PAUlua_State@@PAVILuaInterface@@U?$less@PAUlua_State@@@std@@V?$allocator@U?$pair@QAUlua_State@@PAVILuaInterface@@@std@@@4@$0A@@std@@@std@@QAEXPAU?$_Tree_node@U?$pair@QAUlua_State@@PAVILuaInterface@@@std@@PAX@2@@Z 10004a46 f i ILuaModuleManager.obj
 0001:00003ac7       ?_Buynode0@?$_Tree_comp_alloc@V?$_Tmap_traits@PAUlua_State@@PAVILuaInterface@@U?$less@PAUlua_State@@@std@@V?$allocator@U?$pair@QAUlua_State@@PAVILuaInterface@@@std@@@4@$0A@@std@@@std@@QAEPAU?$_Tree_node@U?$pair@QAUlua_State@@PAVILuaInterface@@@std@@PAX@2@XZ 10004ac7 f i ILuaModuleManager.obj
 0001:00003bdc       ?_Destroy_if_not_nil@?$_Tree@V?$_Tmap_traits@PAUlua_State@@PAVILuaInterface@@U?$less@PAUlua_State@@@std@@V?$allocator@U?$pair@QAUlua_State@@PAVILuaInterface@@@std@@@4@$0A@@std@@@std@@IAEXPAU?$_Tree_node@U?$pair@QAUlua_State@@PAVILuaInterface@@@std@@PAX@2@@Z 10004bdc f i ILuaModuleManager.obj
 0001:00003c1d       ?size@?$_Tree@V?$_Tmap_traits@PAUlua_State@@PAVILuaInterface@@U?$less@PAUlua_State@@@std@@V?$allocator@U?$pair@QAUlua_State@@PAVILuaInterface@@@std@@@4@$0A@@std@@@std@@QBEIXZ 10004c1d f i ILuaModuleManager.obj
 0001:00003c32       ??F?$_Tree_unchecked_const_iterator@V?$_Tree_val@U?$_Tree_simple_types@U?$pair@QAUlua_State@@PAVILuaInterface@@@std@@@std@@@std@@U_Iterator_base0@2@@std@@QAEAAV01@XZ 10004c32 f i ILuaModuleManager.obj
 0001:00003cf6       ??0?$refcount_ptr@Uerror_info_container@exception_detail@boost@@@exception_detail@boost@@QAE@XZ 10004cf6 f i main.obj
 0001:00003cf6       ??0?$_Tree_unchecked_const_iterator@V?$_Tree_val@U?$_Tree_simple_types@U?$pair@QAUlua_State@@PAVILuaInterface@@@std@@@std@@@std@@U_Iterator_base0@2@@std@@QAE@XZ 10004cf6 f i ILuaModuleManager.obj
 0001:00003cf6       ??0?$intrusive_ptr@Uthread_data_base@detail@boost@@@boost@@QAE@XZ 10004cf6 f i nav.obj
 0001:00003cf6       ??0handle_manager@win32@detail@boost@@QAE@XZ 10004cf6 f i nav.obj
 0001:00003d0a       ??$?0ABQAUlua_State@@@?$_Tuple_val@ABQAUlua_State@@@std@@QAE@ABQAUlua_State@@@Z 10004d0a f i ILuaModuleManager.obj
 0001:00003d28       ??$construct@U?$pair@QAUlua_State@@PAVILuaInterface@@@std@@ABUpiecewise_construct_t@2@V?$tuple@ABQAUlua_State@@@2@V?$tuple@$$V@2@@?$_Wrap_alloc@V?$allocator@U?$_Tree_node@U?$pair@QAUlua_State@@PAVILuaInterface@@@std@@PAX@std@@@std@@@std@@QAEXPAU?$pair@QAUlua_State@@PAVILuaInterface@@@1@ABUpiecewise_construct_t@1@$$QAV?$tuple@ABQAUlua_State@@@1@$$QAV?$tuple@$$V@1@@Z 10004d28 f i ILuaModuleManager.obj
 0001:00003d61       ??$_Insert_at@AAU?$pair@QAUlua_State@@PAVILuaInterface@@@std@@PAU?$_Tree_node@U?$pair@QAUlua_State@@PAVILuaInterface@@@std@@PAX@2@@?$_Tree@V?$_Tmap_traits@PAUlua_State@@PAVILuaInterface@@U?$less@PAUlua_State@@@std@@V?$allocator@U?$pair@QAUlua_State@@PAVILuaInterface@@@std@@@4@$0A@@std@@@std@@IAE?AV?$_Tree_iterator@V?$_Tree_val@U?$_Tree_simple_types@U?$pair@QAUlua_State@@PAVILuaInterface@@@std@@@std@@@std@@@1@_NPAU?$_Tree_node@U?$pair@QAUlua_State@@PAVILuaInterface@@@std@@PAX@1@AAU?$pair@QAUlua_State@@PAVILuaInterface@@@1@1@Z 10004d61 f i ILuaModuleManager.obj
 0001:000040eb       ??$_Insert_nohint@AAU?$pair@QAUlua_State@@PAVILuaInterface@@@std@@PAU?$_Tree_node@U?$pair@QAUlua_State@@PAVILuaInterface@@@std@@PAX@2@@?$_Tree@V?$_Tmap_traits@PAUlua_State@@PAVILuaInterface@@U?$less@PAUlua_State@@@std@@V?$allocator@U?$pair@QAUlua_State@@PAVILuaInterface@@@std@@@4@$0A@@std@@@std@@IAE?AU?$pair@V?$_Tree_iterator@V?$_Tree_val@U?$_Tree_simple_types@U?$pair@QAUlua_State@@PAVILuaInterface@@@std@@@std@@@std@@@std@@_N@1@_NAAU?$pair@QAUlua_State@@PAVILuaInterface@@@1@PAU?$_Tree_node@U?$pair@QAUlua_State@@PAVILuaInterface@@@std@@PAX@1@@Z 100050eb f i ILuaModuleManager.obj
 0001:000043dd       ??F?$_Tree_iterator@V?$_Tree_val@U?$_Tree_simple_types@U?$pair@QAUlua_State@@PAVILuaInterface@@@std@@@std@@@std@@@std@@QAEAAV01@XZ 100053dd f i ILuaModuleManager.obj
 0001:000043f3       ?max_size@?$_Tree@V?$_Tmap_traits@PAUlua_State@@PAVILuaInterface@@U?$less@PAUlua_State@@@std@@V?$allocator@U?$pair@QAUlua_State@@PAVILuaInterface@@@std@@@4@$0A@@std@@@std@@QBEIXZ 100053f3 f i ILuaModuleManager.obj
 0001:00004411       ?max_size@?$_Wrap_alloc@V?$allocator@U?$_Tree_node@U?$pair@QAUlua_State@@PAVILuaInterface@@@std@@PAX@std@@@std@@@std@@QBEIU_Nil@2@@Z 10005411 f i ILuaModuleManager.obj
 0001:00004427       ?max_size@?$allocator_traits@V?$allocator@U?$_Tree_node@U?$pair@QAUlua_State@@PAVILuaInterface@@@std@@PAX@std@@@std@@@std@@SAIABV?$allocator@U?$_Tree_node@U?$pair@QAUlua_State@@PAVILuaInterface@@@std@@PAX@std@@@2@@Z 10005427 f i ILuaModuleManager.obj
 0001:00004434       ?max_size@?$allocator@U?$_Tree_node@U?$pair@QAUlua_State@@PAVILuaInterface@@@std@@PAX@std@@@std@@QBEIXZ 10005434 f i ILuaModuleManager.obj
 0001:00004444       ??$construct@U?$pair@QAUlua_State@@PAVILuaInterface@@@std@@ABUpiecewise_construct_t@2@V?$tuple@ABQAUlua_State@@@2@V?$tuple@$$V@2@@?$allocator_traits@V?$allocator@U?$_Tree_node@U?$pair@QAUlua_State@@PAVILuaInterface@@@std@@PAX@std@@@std@@@std@@SAXAAV?$allocator@U?$_Tree_node@U?$pair@QAUlua_State@@PAVILuaInterface@@@std@@PAX@std@@@1@PAU?$pair@QAUlua_State@@PAVILuaInterface@@@1@ABUpiecewise_construct_t@1@$$QAV?$tuple@ABQAUlua_State@@@1@$$QAV?$tuple@$$V@1@@Z 10005444 f i ILuaModuleManager.obj
 0001:00004472       ??$_Buynode_if_nil@AAU?$pair@QAUlua_State@@PAVILuaInterface@@@std@@@?$_Tree@V?$_Tmap_traits@PAUlua_State@@PAVILuaInterface@@U?$less@PAUlua_State@@@std@@V?$allocator@U?$pair@QAUlua_State@@PAVILuaInterface@@@std@@@4@$0A@@std@@@std@@IAEPAU?$_Tree_node@U?$pair@QAUlua_State@@PAVILuaInterface@@@std@@PAX@1@PAU21@AAU?$pair@QAUlua_State@@PAVILuaInterface@@@1@@Z 10005472 f i ILuaModuleManager.obj
 0001:00004482       ??$construct@U?$pair@QAUlua_State@@PAVILuaInterface@@@std@@ABUpiecewise_construct_t@2@V?$tuple@ABQAUlua_State@@@2@V?$tuple@$$V@2@@?$allocator@U?$_Tree_node@U?$pair@QAUlua_State@@PAVILuaInterface@@@std@@PAX@std@@@std@@QAEXPAU?$pair@QAUlua_State@@PAVILuaInterface@@@1@ABUpiecewise_construct_t@1@$$QAV?$tuple@ABQAUlua_State@@@1@$$QAV?$tuple@$$V@1@@Z 10005482 f i ILuaModuleManager.obj
 0001:00004528       ??0?$tuple@ABQAUlua_State@@@std@@QAE@$$QAV01@@Z 10005528 f i ILuaModuleManager.obj
 0001:0000454d       ??$?0ABQAUlua_State@@$$Z$$V@?$pair@QAUlua_State@@PAVILuaInterface@@@std@@QAE@Upiecewise_construct_t@1@V?$tuple@ABQAUlua_State@@@1@V?$tuple@$$V@1@@Z 1000554d f i ILuaModuleManager.obj
 0001:00004575       ??$?0V?$tuple@ABQAUlua_State@@@std@@V?$tuple@$$V@1@$0A@$$Z$S@?$pair@QAUlua_State@@PAVILuaInterface@@@std@@QAE@AAV?$tuple@ABQAUlua_State@@@1@AAV?$tuple@$$V@1@U?$integer_sequence@I$0A@@1@U?$integer_sequence@I$S@1@@Z 10005575 f i ILuaModuleManager.obj
 0001:000045a3       ??$get@$0A@ABQAUlua_State@@@std@@YAABQAUlua_State@@$$QAV?$tuple@ABQAUlua_State@@@0@@Z 100055a3 f i ILuaModuleManager.obj
 0001:000045b3       ??0error_code@system@boost@@QAE@HABVerror_category@12@@Z 100055b3 f   nav.obj
 0001:000045b3       ??0ILuaObject@@QAE@PAVILuaBase@Lua@GarrysMod@@H@Z 100055b3 f   ILuaObject.obj
 0001:000045d4       ?ValidateGrowSize@?$CUtlMemory@PAVNode@@H@@IAEXXZ 100055d4 f   main.obj
 0001:000045d4       ??1ILuaObject@@QAE@XZ      100055d4 f   ILuaObject.obj
 0001:000045d4       ?ValidateGrowSize@?$CUtlMemory@U?$UtlLinkedListElem_t@UGroundSeedSpot@@H@@H@@IAEXXZ 100055d4 f   nav.obj
 0001:000045d4       ?ValidateGrowSize@?$CUtlMemory@U?$UtlLinkedListElem_t@UAirSeedSpot@@H@@H@@IAEXXZ 100055d4 f   nav.obj
 0001:000045d4       ?ValidateGrowSize@?$CUtlMemory@PAUJobInfo_t@@H@@IAEXXZ 100055d4 f   main.obj
 0001:000045d4       ?_Orphan_all@_Container_base0@std@@QAEXXZ 100055d4 f   nav.obj
 0001:000045df       ?UnReference@ILuaObject@@QAEXXZ 100055df f   ILuaObject.obj
 0001:00004629       ??_GILuaObject@@QAEPAXI@Z  10005629 f i ILuaObject.obj
 0001:00004655       ?SetMember@ILuaObject@@QAEXPBDPAV1@@Z 10005655 f   ILuaObject.obj
 0001:000046a8       ?SetMember@ILuaObject@@QAEXPBDN@Z 100056a8 f   ILuaObject.obj
 0001:0000470e       ?SetMember@ILuaObject@@QAEXPBDP6AHPAUlua_State@@@Z@Z 1000570e f   ILuaObject.obj
 0001:0000476e       ?SetMember@ILuaObject@@QAEXNPAV1@@Z 1000576e f   ILuaObject.obj
 0001:000047c8       ?SetMember@ILuaObject@@QAEXMPAV1@@Z 100057c8 f   ILuaObject.obj
 0001:000047ec       ?GetMember@ILuaObject@@QAEPAV1@PBD@Z 100057ec f   ILuaObject.obj
 0001:0000489d       ?isType@ILuaObject@@QAE_NH@Z 1000589d f   ILuaObject.obj
 0001:000048e1       ?isTable@ILuaObject@@QAE_NXZ 100058e1 f   ILuaObject.obj
 0001:000048f6       ?Push@ILuaObject@@QAEXXZ   100058f6 f   ILuaObject.obj
 0001:00004919       _kd_create                 10005919 f   kdtree.obj
 0001:000049a7       _kd_clear                  100059a7 f   kdtree.obj
 0001:00004af7       _kd_insert                 10005af7 f   kdtree.obj
 0001:00004b57       _kd_insert3f               10005b57 f   kdtree.obj
 0001:00004f61       _kd_nearest                10005f61 f   kdtree.obj
 0001:000050f2       _kd_nearest3f              100060f2 f   kdtree.obj
 0001:00005150       _kd_nearest_range          10006150 f   kdtree.obj
 0001:00005200       _kd_res_free               10006200 f   kdtree.obj
 0001:00005223       _kd_res_rewind             10006223 f   kdtree.obj
 0001:00005237       _kd_res_end                10006237 f   kdtree.obj
 0001:00005258       _kd_res_next               10006258 f   kdtree.obj
 0001:00005288       _kd_res_item               10006288 f   kdtree.obj
 0001:000052cb       _kd_res_item_data          100062cb f   kdtree.obj
 0001:0000561b       ??0exception@std@@QAE@QBD@Z 1000661b f i main.obj
 0001:0000565f       ??0exception@std@@QAE@ABV01@@Z 1000665f f i main.obj
 0001:0000569a       ??1exception@std@@UAE@XZ   1000669a f i main.obj
 0001:000056bb       ?what@exception@std@@UBEPBDXZ 100066bb f i main.obj
 0001:000056e5       ??_Gexception@std@@UAEPAXI@Z 100066e5 f i main.obj
 0001:000056e5       ??_Eexception@std@@UAEPAXI@Z 100066e5 f i * CIL library *:* CIL module *
 0001:00005711       ??0Vector@@QAE@MMM@Z       10006711 f i main.obj
 0001:00005747       ??4Vector@@QAEAAV0@ABV0@@Z 10006747 f i main.obj
 0001:00005779       ??0Vector4D@@QAE@MMMM@Z    10006779 f i main.obj
 0001:000057f1       ?min@?$numeric_limits@I@std@@SAIXZ 100067f1 f i main.obj
 0001:000057f8       ?max@?$numeric_limits@I@std@@SAIXZ 100067f8 f i main.obj
 0001:000057f8       ?InvalidIndex@?$CUtlMemory@U?$UtlLinkedListElem_t@UAirSeedSpot@@H@@H@@SAHXZ 100067f8 f i nav.obj
 0001:000057f8       ?InvalidIndex@?$CUtlMemory@U?$UtlLinkedListElem_t@UGroundSeedSpot@@H@@H@@SAHXZ 100067f8 f i nav.obj
 0001:00005800       ?min@?$numeric_limits@_J@std@@SA_JXZ 10006800 f i main.obj
 0001:0000580c       ?max@?$numeric_limits@_J@std@@SA_JXZ 1000680c f i main.obj
 0001:00005819       ?length@?$char_traits@D@std@@SAIPBD@Z 10006819 f i main.obj
 0001:00005863       ?copy@?$char_traits@D@std@@SAPADPADPBDI@Z 10006863 f i main.obj
 0001:00005890       ?move@?$char_traits@D@std@@SAPADPADPBDI@Z 10006890 f i main.obj
 0001:000058bd       ?assign@?$char_traits@D@std@@SAXAADABD@Z 100068bd f i main.obj
 0001:000058cc       ??0logic_error@std@@QAE@PBD@Z 100068cc f i main.obj
 0001:000058f0       ??_Gbad_alloc@std@@UAEPAXI@Z 100068f0 f i nav.obj
 0001:000058f0       ??_Gruntime_error@std@@UAEPAXI@Z 100068f0 f i main.obj
 0001:000058f0       ??_Elogic_error@std@@UAEPAXI@Z 100068f0 f i * CIL library *:* CIL module *
 0001:000058f0       ??_Eruntime_error@std@@UAEPAXI@Z 100068f0 f i * CIL library *:* CIL module *
 0001:000058f0       ??_Ebad_alloc@std@@UAEPAXI@Z 100068f0 f i * CIL library *:* CIL module *
 0001:000058f0       ??_Glogic_error@std@@UAEPAXI@Z 100068f0 f i main.obj
 0001:0000591c       ??1runtime_error@std@@UAE@XZ 1000691c f i main.obj
 0001:0000591c       ??1logic_error@std@@UAE@XZ 1000691c f i main.obj
 0001:0000591c       ??1bad_alloc@std@@UAE@XZ   1000691c f i nav.obj
 0001:0000592f       ??0out_of_range@std@@QAE@ABV?$basic_string@DU?$char_traits@D@std@@V?$allocator@D@2@@1@@Z 1000692f f i main.obj
 0001:00005959       ??_Gout_of_range@std@@UAEPAXI@Z 10006959 f i main.obj
 0001:00005959       ??_Eout_of_range@std@@UAEPAXI@Z 10006959 f i * CIL library *:* CIL module *
 0001:00005985       ??1out_of_range@std@@UAE@XZ 10006985 f i main.obj
 0001:00005998       ??0runtime_error@std@@QAE@PBD@Z 10006998 f i main.obj
 0001:000059bc       ??0runtime_error@std@@QAE@ABV01@@Z 100069bc f i main.obj
 0001:000059e0       ??0exception@boost@@IAE@XZ 100069e0 f i main.obj
 0001:00005a17       ??1exception@boost@@MAE@XZ 10006a17 f i main.obj
 0001:00005a36       ??1clone_base@exception_detail@boost@@UAE@XZ 10006a36 f i main.obj
 0001:00005a4a       ??_Eclone_base@exception_detail@boost@@UAEPAXI@Z 10006a4a f i * CIL library *:* CIL module *
 0001:00005a4a       ??_Gclone_base@exception_detail@boost@@UAEPAXI@Z 10006a4a f i main.obj
 0001:00005a76       ?copy_boost_exception@exception_detail@boost@@YAXPAVexception@2@PBV32@@Z 10006a76 f i main.obj
 0001:00005b3c       ?gmtime@c_time@date_time@boost@@SAPAUtm@@PB_JPAU4@@Z 10006b3c f i main.obj
 0001:00005bb3       ?get_system_time_as_file_time@winapi@date_time@boost@@YAXAAUFILETIME@123@@Z 10006bb3 f i main.obj
 0001:00005bc1       ?as_number@time_resolution_traits_adapted64_impl@date_time@boost@@SA_JV?$int_adapter@_J@23@@Z 10006bc1 f i main.obj
 0001:00005bce       ?is_adapted@time_resolution_traits_adapted64_impl@date_time@boost@@SA_NXZ 10006bce f i main.obj
 0001:00005bd5       ??0bad_day_of_month@gregorian@boost@@QAE@XZ 10006bd5 f i main.obj
 0001:00005c56       ??0bad_day_of_month@gregorian@boost@@QAE@ABV?$basic_string@DU?$char_traits@D@std@@V?$allocator@D@2@@std@@@Z 10006c56 f i main.obj
 0001:00005c7a       ??_Ebad_year@gregorian@boost@@UAEPAXI@Z 10006c7a f i * CIL library *:* CIL module *
 0001:00005c7a       ??_Ebad_day_of_month@gregorian@boost@@UAEPAXI@Z 10006c7a f i * CIL library *:* CIL module *
 0001:00005c7a       ??_Gbad_month@gregorian@boost@@UAEPAXI@Z 10006c7a f i main.obj
 0001:00005c7a       ??_Gbad_day_of_month@gregorian@boost@@UAEPAXI@Z 10006c7a f i main.obj
 0001:00005c7a       ??_Gbad_year@gregorian@boost@@UAEPAXI@Z 10006c7a f i main.obj
 0001:00005c7a       ??_Ebad_month@gregorian@boost@@UAEPAXI@Z 10006c7a f i * CIL library *:* CIL module *
 0001:00005ca6       ??1bad_day_of_month@gregorian@boost@@UAE@XZ 10006ca6 f i main.obj
 0001:00005ca6       ??1bad_year@gregorian@boost@@UAE@XZ 10006ca6 f i main.obj
 0001:00005ca6       ??1bad_month@gregorian@boost@@UAE@XZ 10006ca6 f i main.obj
 0001:00005cb9       ??0greg_day@gregorian@boost@@QAE@G@Z 10006cb9 f i main.obj
 0001:00005cd4       ??Bgreg_month@gregorian@boost@@QBEGXZ 10006cd4 f i main.obj
 0001:00005cd4       ??Bgreg_day@gregorian@boost@@QBEGXZ 10006cd4 f i main.obj
 0001:00005cd4       ??Bgreg_year@gregorian@boost@@QBEGXZ 10006cd4 f i main.obj
 0001:00005ce5       ??0bad_year@gregorian@boost@@QAE@XZ 10006ce5 f i main.obj
 0001:00005d66       ??0greg_year@gregorian@boost@@QAE@G@Z 10006d66 f i main.obj
 0001:00005d81       ??0bad_month@gregorian@boost@@QAE@XZ 10006d81 f i main.obj
 0001:00005e02       ??0greg_month@gregorian@boost@@QAE@G@Z 10006e02 f i main.obj
 0001:00005e1d       ??0date@gregorian@boost@@QAE@Vgreg_year@12@Vgreg_month@12@Vgreg_day@12@@Z 10006e1d f i main.obj
 0001:00005eea       ??0date@gregorian@boost@@QAE@W4special_values@date_time@2@@Z 10006eea f i main.obj
 0001:00005f80       ??0time_duration@posix_time@boost@@QAE@HHH_J@Z 10006f80 f i main.obj
 0001:00005fa7       ??0time_duration@posix_time@boost@@QAE@W4special_values@date_time@2@@Z 10006fa7 f i main.obj
 0001:00005fc2       ??0?$counted_time_rep@Vmillisec_posix_time_system_config@posix_time@boost@@@date_time@boost@@QAE@_J@Z 10006fc2 f i main.obj
 0001:00005fc2       ??0time_duration@posix_time@boost@@IAE@V?$int_adapter@_J@date_time@2@@Z 10006fc2 f i main.obj
 0001:00005fe0       ??0ptime@posix_time@boost@@QAE@Vdate@gregorian@2@Vtime_duration@12@@Z 10006fe0 f i main.obj
 0001:00006002       ??0time_duration@posix_time@boost@@QAE@$$QAV012@@Z 10007002 f i main.obj
 0001:00006002       ??0ptime@posix_time@boost@@QAE@ABU?$counted_time_rep@Vmillisec_posix_time_system_config@posix_time@boost@@@date_time@2@@Z 10007002 f i main.obj
 0001:00006002       ??0time_duration@posix_time@boost@@QAE@ABV012@@Z 10007002 f i main.obj
 0001:0000601d       ??0ptime@posix_time@boost@@QAE@XZ 1000701d f i main.obj
 0001:0000604d       ?get_system_time@boost@@YA?AVptime@posix_time@1@XZ 1000704d f i main.obj
 0001:0000605e       ?GetTickCount64emulation@win32@detail@boost@@YG_KXZ 1000705e f i main.obj
 0001:000061a0       ?GetTickCount64_@win32@detail@boost@@YAP6G_KXZXZ 100071a0 f i main.obj
 0001:000061f1       ?free_raw_heap_memory@detail@boost@@YAXPAX@Z 100071f1 f i main.obj
 0001:00006208       ?intrusive_ptr_release@detail@boost@@YAXPAUthread_data_base@12@@Z 10007208 f i main.obj
 0001:00006226       ??0timeout@detail@boost@@QAE@_K@Z 10007226 f i main.obj
 0001:00006266       ?pin_to_zero@detail@boost@@YA_K_J@Z 10007266 f i main.obj
 0001:00006299       ?interruptible_wait@this_thread@boost@@YAX_K@Z 10007299 f i main.obj
 0001:000062b8       ??1thread@boost@@QAE@XZ    100072b8 f i main.obj
 0001:000062fd       _gmod13_open               100072fd f   main.obj
 0001:00006319       _gmod13_close              10007319 f   main.obj
 0001:0000633e       ?NewVectorObject@@YAPAVILuaObject@@PAUlua_State@@AAVVector@@@Z 1000733e f   main.obj
 0001:0000640e       ?LUA_PushVector@@YAXPAUlua_State@@AAVVector@@@Z 1000740e f   main.obj
 0001:00006446       ?LUA_GetVector@@YAAAVVector@@PAUlua_State@@H@Z 10007446 f   main.obj
 0001:00006463       ?nav_Create@@YAHPAUlua_State@@@Z 10007463 f   main.obj
 0001:0000650a       ?nav_Poll@@YAHPAUlua_State@@@Z 1000750a f   main.obj
 0001:000068b3       ??_GJobInfo_t@@QAEPAXI@Z   100078b3 f i main.obj
 0001:000068df       ??1JobInfo_t@@QAE@XZ       100078df f i main.obj
 0001:000068fd       ?Nav_GetNodeByID@@YAHPAUlua_State@@@Z 100078fd f   main.obj
 0001:00006981       ?Nav_GetNodeTotal@@YAHPAUlua_State@@@Z 10007981 f   main.obj
 0001:000069de       ?Nav_GetNodes@@YAHPAUlua_State@@@Z 100079de f   main.obj
 0001:00006af8       ?Nav_GetNearestNodes@@YAHPAUlua_State@@@Z 10007af8 f   main.obj
 0001:00006cdd       ?Nav_SetupMaxDistance@@YAHPAUlua_State@@@Z 10007cdd f   main.obj
 0001:00006d6f       ?Nav_AddGroundSeed@@YAHPAUlua_State@@@Z 10007d6f f   main.obj
 0001:00006df1       ?Nav_AddAirSeed@@YAHPAUlua_State@@@Z 10007df1 f   main.obj
 0001:00006e4d       ?Nav_ClearGroundSeeds@@YAHPAUlua_State@@@Z 10007e4d f   main.obj
 0001:00006e83       ?Nav_ClearAirSeeds@@YAHPAUlua_State@@@Z 10007e83 f   main.obj
 0001:00006eb9       ?Nav_Generate@@YAHPAUlua_State@@@Z 10007eb9 f   main.obj
 0001:0000702d       ??0JobInfo_t@@QAE@XZ       1000802d f i main.obj
 0001:0000709a       ?Nav_FullGeneration@@YAHPAUlua_State@@@Z 1000809a f   main.obj
 0001:00007135       ?Nav_IsGenerated@@YAHPAUlua_State@@@Z 10008135 f   main.obj
 0001:00007185       ?Nav_FindPath@@YAHPAUlua_State@@@Z 10008185 f   main.obj
 0001:000072a9       ?Nav_FindPathImmediate@@YAHPAUlua_State@@@Z 100082a9 f   main.obj
 0001:000074ab       ?Nav_FindPathHull@@YAHPAUlua_State@@@Z 100084ab f   main.obj
 0001:00007631       ?Nav_GetHeuristic@@YAHPAUlua_State@@@Z 10008631 f   main.obj
 0001:00007687       ?Nav_GetStart@@YAHPAUlua_State@@@Z 10008687 f   main.obj
 0001:000076c9       ?Nav_GetEnd@@YAHPAUlua_State@@@Z 100086c9 f   main.obj
 0001:0000770b       ?Nav_SetHeuristic@@YAHPAUlua_State@@@Z 1000870b f   main.obj
 0001:00007777       ?Nav_SetStart@@YAHPAUlua_State@@@Z 10008777 f   main.obj
 0001:000077d6       ?Nav_SetEnd@@YAHPAUlua_State@@@Z 100087d6 f   main.obj
 0001:00007835       ?Nav_GetNode@@YAHPAUlua_State@@@Z 10008835 f   main.obj
 0001:0000789d       ?Nav_GetClosestNode@@YAHPAUlua_State@@@Z 1000889d f   main.obj
 0001:00007905       ?Nav_Save@@YAHPAUlua_State@@@Z 10008905 f   main.obj
 0001:00007988       ?Nav_Load@@YAHPAUlua_State@@@Z 10008988 f   main.obj
 0001:00007a0b       ?Nav_GetDiagonal@@YAHPAUlua_State@@@Z 10008a0b f   main.obj
 0001:00007a5b       ?Nav_SetDiagonal@@YAHPAUlua_State@@@Z 10008a5b f   main.obj
 0001:00007aac       ?Nav_GetGridSize@@YAHPAUlua_State@@@Z 10008aac f   main.obj
 0001:00007b02       ?Nav_SetGridSize@@YAHPAUlua_State@@@Z 10008b02 f   main.obj
 0001:00007b69       ?Nav_GetMask@@YAHPAUlua_State@@@Z 10008b69 f   main.obj
 0001:00007bbf       ?Nav_SetMask@@YAHPAUlua_State@@@Z 10008bbf f   main.obj
 0001:00007c26       ?Nav_CreateNode@@YAHPAUlua_State@@@Z 10008c26 f   main.obj
 0001:00007cb8       ?Nav_RemoveNode@@YAHPAUlua_State@@@Z 10008cb8 f   main.obj
 0001:00007d17       ?Node__eq@@YAHPAUlua_State@@@Z 10008d17 f   main.obj
 0001:00007daa       ?Node_GetID@@YAHPAUlua_State@@@Z 10008daa f   main.obj
 0001:00007e08       ?Node_GetPosition@@YAHPAUlua_State@@@Z 10008e08 f   main.obj
 0001:00007e43       ?Node_GetNormal@@YAHPAUlua_State@@@Z 10008e43 f   main.obj
 0001:00007e81       ?Node_IsDisabled@@YAHPAUlua_State@@@Z 10008e81 f   main.obj
 0001:00007ed1       ?Node_SetDisabled@@YAHPAUlua_State@@@Z 10008ed1 f   main.obj
 0001:00007f3b       ?Node_GetConnections@@YAHPAUlua_State@@@Z 10008f3b f   main.obj
 0001:00008049       ?Node_GetConnectedNode@@YAHPAUlua_State@@@Z 10009049 f   main.obj
 0001:000080fd       ?Node_GetScoreG@@YAHPAUlua_State@@@Z 100090fd f   main.obj
 0001:0000814d       ?Node_GetScoreF@@YAHPAUlua_State@@@Z 1000914d f   main.obj
 0001:0000819d       ?Node_IsConnected@@YAHPAUlua_State@@@Z 1000919d f   main.obj
 0001:00008264       ?Node_SetNormal@@YAHPAUlua_State@@@Z 10009264 f   main.obj
 0001:000082c0       ?Node_SetPosition@@YAHPAUlua_State@@@Z 100092c0 f   main.obj
 0001:0000831c       ?Node_ConnectTo@@YAHPAUlua_State@@@Z 1000931c f   main.obj
 0001:000083fc       ?Node_RemoveConnection@@YAHPAUlua_State@@@Z 100093fc f   main.obj
 0001:0000849b       ?Init@@YAHPAUlua_State@@@Z 1000949b f   main.obj
 0001:00008cda       ?Shutdown@@YAHPAUlua_State@@@Z 10009cda f   main.obj
 0001:00008dbb       ??1?$intrusive_ptr@Uthread_data_base@detail@boost@@@boost@@QAE@XZ 10009dbb f i main.obj
 0001:00008e03       ?universal_time@?$microsec_clock@Vptime@posix_time@boost@@@date_time@boost@@SA?AVptime@posix_time@3@XZ 10009e03 f i main.obj
 0001:00008e1a       ??0?$subsecond_duration@Vtime_duration@posix_time@boost@@$0DOI@@date_time@boost@@QAE@_J@Z 10009e1a f i main.obj
 0001:00008e7e       ??H?$base_time@Vptime@posix_time@boost@@V?$counted_time_system@U?$counted_time_rep@Vmillisec_posix_time_system_config@posix_time@boost@@@date_time@boost@@@date_time@3@@date_time@boost@@QBE?AVptime@posix_time@2@ABVtime_duration@42@@Z 10009e7e f i main.obj
 0001:00008eb4       ??0?$base_time@Vptime@posix_time@boost@@V?$counted_time_system@U?$counted_time_rep@Vmillisec_posix_time_system_config@posix_time@boost@@@date_time@boost@@@date_time@3@@date_time@boost@@QAE@ABU?$counted_time_rep@Vmillisec_posix_time_system_config@posix_time@boost@@@12@@Z 10009eb4 f i main.obj
 0001:00008eb4       ??0?$time_duration@V0posix_time@boost@@V?$time_resolution_traits@Utime_resolution_traits_adapted64_impl@date_time@boost@@$04$0PECEA@$05H@date_time@2@@date_time@boost@@QAE@ABV012@@Z 10009eb4 f i main.obj
 0001:00008ed4       ??0?$base_time@Vptime@posix_time@boost@@V?$counted_time_system@U?$counted_time_rep@Vmillisec_posix_time_system_config@posix_time@boost@@@date_time@boost@@@date_time@3@@date_time@boost@@QAE@ABVdate@gregorian@2@ABVtime_duration@posix_time@2@W4dst_flags@12@@Z 10009ed4 f i main.obj
 0001:00008ef8       ??0?$time_duration@V0posix_time@boost@@V?$time_resolution_traits@Utime_resolution_traits_adapted64_impl@date_time@boost@@$04$0PECEA@$05H@date_time@2@@date_time@boost@@IAE@V?$int_adapter@_J@12@@Z 10009ef8 f i main.obj
 0001:00008ef8       ??0?$counted_time_rep@Vmillisec_posix_time_system_config@posix_time@boost@@@date_time@boost@@QAE@V?$int_adapter@_J@12@@Z 10009ef8 f i main.obj
 0001:00008ef8       ??0?$int_adapter@_J@date_time@boost@@QAE@_J@Z 10009ef8 f i main.obj
 0001:00008f16       ?total_milliseconds@?$time_duration@V0posix_time@boost@@V?$time_resolution_traits@Utime_resolution_traits_adapted64_impl@date_time@boost@@$04$0PECEA@$05H@date_time@2@@date_time@boost@@QBE_JXZ 10009f16 f i main.obj
 0001:00008f95       ?ticks_per_second@?$time_duration@V0posix_time@boost@@V?$time_resolution_traits@Utime_resolution_traits_adapted64_impl@date_time@boost@@$04$0PECEA@$05H@date_time@2@@date_time@boost@@SA_JXZ 10009f95 f i main.obj
 0001:00008f9f       ??0?$time_duration@V0posix_time@boost@@V?$time_resolution_traits@Utime_resolution_traits_adapted64_impl@date_time@boost@@$04$0PECEA@$05H@date_time@2@@date_time@boost@@QAE@W4special_values@12@@Z 10009f9f f i main.obj
 0001:00008fbc       ??0?$time_duration@V0posix_time@boost@@V?$time_resolution_traits@Utime_resolution_traits_adapted64_impl@date_time@boost@@$04$0PECEA@$05H@date_time@2@@date_time@boost@@QAE@HHH_J@Z 10009fbc f i main.obj
 0001:00008fed       ??0?$date@V0gregorian@boost@@Vgregorian_calendar@12@Vdate_duration@12@@date_time@boost@@IAE@V?$int_adapter@I@12@@Z 10009fed f i main.obj
 0001:0000900a       ??0?$date@V0gregorian@boost@@Vgregorian_calendar@12@Vdate_duration@12@@date_time@boost@@QAE@Vgreg_year@gregorian@2@Vgreg_month@42@Vgreg_day@42@@Z 1000a00a f i main.obj
 0001:00009039       ?from_special@?$int_adapter@I@date_time@boost@@SA?AV123@W4special_values@23@@Z 1000a039 f i main.obj
 0001:000090b9       ??0?$constrained_value@V?$simple_exception_policy@G$00$0M@Ubad_month@gregorian@boost@@@CV@boost@@@CV@boost@@QAE@G@Z 1000a0b9 f i main.obj
 0001:000090df       ??0?$constrained_value@V?$simple_exception_policy@G$0FHI@$0CHBA@Ubad_year@gregorian@boost@@@CV@boost@@@CV@boost@@QAE@G@Z 1000a0df f i main.obj
 0001:00009105       ??0?$constrained_value@V?$simple_exception_policy@G$00$0BP@Ubad_day_of_month@gregorian@boost@@@CV@boost@@@CV@boost@@QAE@G@Z 1000a105 f i main.obj
 0001:0000912b       ?as_number@?$int_adapter@_J@date_time@boost@@QBE_JXZ 1000a12b f i main.obj
 0001:0000913e       ??4?$refcount_ptr@Uerror_info_container@exception_detail@boost@@@exception_detail@boost@@QAEAAV012@ABV012@@Z 1000a13e f i main.obj
 0001:0000915b       ??1?$refcount_ptr@Uerror_info_container@exception_detail@boost@@@exception_detail@boost@@QAE@XZ 1000a15b f i main.obj
 0001:00009198       ?c_str@?$basic_string@DU?$char_traits@D@std@@V?$allocator@D@2@@std@@QBEPBDXZ 1000a198 f i main.obj
 0001:000091d5       ??1?$basic_string@DU?$char_traits@D@std@@V?$allocator@D@2@@std@@QAE@XZ 1000a1d5 f i main.obj
 0001:00009216       ??0?$basic_string@DU?$char_traits@D@std@@V?$allocator@D@2@@std@@QAE@PBD@Z 1000a216 f i main.obj
 0001:00009245       ?create_time@?$microsec_clock@Vptime@posix_time@boost@@@date_time@boost@@CA?AVptime@posix_time@3@P6APAUtm@@PB_JPAU6@@Z@Z 1000a245 f i main.obj
 0001:0000934b       ?add_time_duration@?$counted_time_system@U?$counted_time_rep@Vmillisec_posix_time_system_config@posix_time@boost@@@date_time@boost@@@date_time@boost@@SA?AU?$counted_time_rep@Vmillisec_posix_time_system_config@posix_time@boost@@@23@ABU423@Vtime_duration@posix_time@3@@Z 1000a34b f i main.obj
 0001:000093d4       ?get_time_rep@?$counted_time_system@U?$counted_time_rep@Vmillisec_posix_time_system_config@posix_time@boost@@@date_time@boost@@@date_time@boost@@SA?AU?$counted_time_rep@Vmillisec_posix_time_system_config@posix_time@boost@@@23@ABVdate@gregorian@3@ABVtime_duration@posix_time@3@W4dst_flags@23@@Z 1000a3d4 f i main.obj
 0001:000093f4       ?ticks@?$time_duration@V0posix_time@boost@@V?$time_resolution_traits@Utime_resolution_traits_adapted64_impl@date_time@boost@@$04$0PECEA@$05H@date_time@2@@date_time@boost@@QBE_JXZ 1000a3f4 f i main.obj
 0001:000093f4       ?time_count@?$counted_time_rep@Vmillisec_posix_time_system_config@posix_time@boost@@@date_time@boost@@QBE_JXZ 1000a3f4 f i main.obj
 0001:0000940e       ?is_infinity@?$date@V0gregorian@boost@@Vgregorian_calendar@12@Vdate_duration@12@@date_time@boost@@QBE_NXZ 1000a40e f i main.obj
 0001:00009424       ?is_not_a_date@?$date@V0gregorian@boost@@Vgregorian_calendar@12@Vdate_duration@12@@date_time@boost@@QBE_NXZ 1000a424 f i main.obj
 0001:0000943a       ?min@?$int_adapter@I@date_time@boost@@SA?AV123@XZ 1000a43a f i main.obj
 0001:00009451       ?max@?$int_adapter@I@date_time@boost@@SA?AV123@XZ 1000a451 f i main.obj
 0001:00009469       ?not_a_number@?$int_adapter@I@date_time@boost@@SA?BV123@XZ 1000a469 f i main.obj
 0001:00009480       ?neg_infinity@?$int_adapter@I@date_time@boost@@SA?BV123@XZ 1000a480 f i main.obj
 0001:00009496       ?pos_infinity@?$int_adapter@I@date_time@boost@@SA?BV123@XZ 1000a496 f i main.obj
 0001:000094ac       ??0handle_manager@win32@detail@boost@@QAE@PAX@Z 1000a4ac f i nav.obj
 0001:000094ac       ??0?$int_adapter@I@date_time@boost@@QAE@I@Z 1000a4ac f i main.obj
 0001:000094ac       ??0?$storage1@V?$value@PAVNav@@@_bi@boost@@@_bi@boost@@QAE@V?$value@PAVNav@@@12@@Z 1000a4ac f i nav.obj
 0001:000094ac       ??0Iterator_t@?$CUtlMemory@U?$UtlLinkedListElem_t@UAirSeedSpot@@H@@H@@QAE@H@Z 1000a4ac f i nav.obj
 0001:000094ac       ??0?$mf3@XVNav@@PAUJobInfo_t@@PAVNode@@PAV3@@_mfi@boost@@QAE@P8Nav@@AEXPAUJobInfo_t@@PAVNode@@1@Z@Z 1000a4ac f i nav.obj
 0001:000094ac       ??0Iterator_t@?$CUtlMemory@U?$UtlLinkedListElem_t@UGroundSeedSpot@@H@@H@@QAE@H@Z 1000a4ac f i nav.obj
 0001:000094ac       ??0?$mf1@XVNav@@PA_N@_mfi@boost@@QAE@P8Nav@@AEXPA_N@Z@Z 1000a4ac f i nav.obj
 0001:000094c4       ?assign@?$constrained_value@V?$simple_exception_policy@G$00$0M@Ubad_month@gregorian@boost@@@CV@boost@@@CV@boost@@AAEXG@Z 1000a4c4 f i main.obj
 0001:0000952b       ?min@?$constrained_value@V?$simple_exception_policy@G$00$0M@Ubad_month@gregorian@boost@@@CV@boost@@@CV@boost@@SAGXZ 1000a52b f i main.obj
 0001:0000952b       ?min@?$constrained_value@V?$simple_exception_policy@G$00$0BP@Ubad_day_of_month@gregorian@boost@@@CV@boost@@@CV@boost@@SAGXZ 1000a52b f i main.obj
 0001:00009535       ?assign@?$constrained_value@V?$simple_exception_policy@G$0FHI@$0CHBA@Ubad_year@gregorian@boost@@@CV@boost@@@CV@boost@@AAEXG@Z 1000a535 f i main.obj
 0001:0000959c       ?min@?$constrained_value@V?$simple_exception_policy@G$0FHI@$0CHBA@Ubad_year@gregorian@boost@@@CV@boost@@@CV@boost@@SAGXZ 1000a59c f i main.obj
 0001:000095a6       ?assign@?$constrained_value@V?$simple_exception_policy@G$00$0BP@Ubad_day_of_month@gregorian@boost@@@CV@boost@@@CV@boost@@AAEXG@Z 1000a5a6 f i main.obj
 0001:0000960d       ?to_tick_count@?$time_resolution_traits@Utime_resolution_traits_adapted64_impl@date_time@boost@@$04$0PECEA@$05H@date_time@boost@@SA_JHHH_J@Z 1000a60d f i main.obj
 0001:0000970c       ?res_adjust@?$time_resolution_traits@Utime_resolution_traits_adapted64_impl@date_time@boost@@$04$0PECEA@$05H@date_time@boost@@SA_JXZ 1000a70c f i main.obj
 0001:00009718       ?from_special@?$int_adapter@_J@date_time@boost@@SA?AV123@W4special_values@23@@Z 1000a718 f i main.obj
 0001:00009798       ?release@?$refcount_ptr@Uerror_info_container@exception_detail@boost@@@exception_detail@boost@@AAEXXZ 1000a798 f i main.obj
 0001:000097c7       ?adopt@?$refcount_ptr@Uerror_info_container@exception_detail@boost@@@exception_detail@boost@@QAEXPAUerror_info_container@23@@Z 1000a7c7 f i main.obj
 0001:000097ec       ?_Mysize@?$_String_alloc@U?$_String_base_types@DV?$allocator@D@std@@@std@@@std@@QBEABIXZ 1000a7ec f i main.obj
 0001:000097ec       ?_Mysize@?$_String_alloc@U?$_String_base_types@DV?$allocator@D@std@@@std@@@std@@QAEAAIXZ 1000a7ec f i main.obj
 0001:00009802       ??0?$_String_alloc@U?$_String_base_types@DV?$allocator@D@std@@@std@@@std@@QAE@XZ 1000a802 f i main.obj
 0001:0000981c       ?_Myptr@?$_String_alloc@U?$_String_base_types@DV?$allocator@D@std@@@std@@@std@@QAEPADXZ 1000a81c f i main.obj
 0001:0000981c       ?_Myptr@?$_String_alloc@U?$_String_base_types@DV?$allocator@D@std@@@std@@@std@@QBEPBDXZ 1000a81c f i main.obj
 0001:00009836       ?_Tidy@?$basic_string@DU?$char_traits@D@std@@V?$allocator@D@2@@std@@QAEX_NI@Z 1000a836 f i main.obj
 0001:000098db       ?assign@?$basic_string@DU?$char_traits@D@std@@V?$allocator@D@2@@std@@QAEAAV12@PBD@Z 1000a8db f i main.obj
 0001:000098fd       ?assign@?$basic_string@DU?$char_traits@D@std@@V?$allocator@D@2@@std@@QAEAAV12@PBDI@Z 1000a8fd f i main.obj
 0001:00009973       ?assign@?$basic_string@DU?$char_traits@D@std@@V?$allocator@D@2@@std@@QAEAAV12@ABV12@II@Z 1000a973 f i main.obj
 0001:00009a04       ?get_rep@?$time_duration@V0posix_time@boost@@V?$time_resolution_traits@Utime_resolution_traits_adapted64_impl@date_time@boost@@$04$0PECEA@$05H@date_time@2@@date_time@boost@@QBE?AV?$int_adapter@_J@23@XZ 1000aa04 f i main.obj
 0001:00009a04       ?get_rep@?$counted_time_rep@Vmillisec_posix_time_system_config@posix_time@boost@@@date_time@boost@@QBE?AV?$int_adapter@_J@23@XZ 1000aa04 f i main.obj
 0001:00009a24       ?is_special@?$counted_time_rep@Vmillisec_posix_time_system_config@posix_time@boost@@@date_time@boost@@QBE_NXZ 1000aa24 f i main.obj
 0001:00009a37       ?frac_sec_per_day@?$counted_time_rep@Vmillisec_posix_time_system_config@posix_time@boost@@@date_time@boost@@SA_JXZ 1000aa37 f i main.obj
 0001:00009a68       ??0?$counted_time_rep@Vmillisec_posix_time_system_config@posix_time@boost@@@date_time@boost@@QAE@ABVdate@gregorian@2@ABVtime_duration@posix_time@2@@Z 1000aa68 f i main.obj
 0001:00009b2c       ?is_special@?$time_duration@V0posix_time@boost@@V?$time_resolution_traits@Utime_resolution_traits_adapted64_impl@date_time@boost@@$04$0PECEA@$05H@date_time@2@@date_time@boost@@QBE_NXZ 1000ab2c f i main.obj
 0001:00009b51       ?is_not_a_number@?$int_adapter@I@date_time@boost@@SA_NI@Z 1000ab51 f i main.obj
 0001:00009b80       ?is_pos_inf@?$int_adapter@I@date_time@boost@@SA_NI@Z 1000ab80 f i main.obj
 0001:00009baf       ?is_neg_inf@?$int_adapter@I@date_time@boost@@SA_NI@Z 1000abaf f i main.obj
 0001:00009bde       ?is_inf@?$int_adapter@I@date_time@boost@@SA_NI@Z 1000abde f i main.obj
 0001:00009c24       ?max@?$constrained_value@V?$simple_exception_policy@G$00$0M@Ubad_month@gregorian@boost@@@CV@boost@@@CV@boost@@SAGXZ 1000ac24 f i main.obj
 0001:00009c2e       ?on_error@?$simple_exception_policy@G$00$0M@Ubad_month@gregorian@boost@@@CV@boost@@SAXGGW4violation_enum@23@@Z 1000ac2e f i main.obj
 0001:00009c8b       ?min@?$simple_exception_policy@G$00$0M@Ubad_month@gregorian@boost@@@CV@boost@@SAGXZ 1000ac8b f i main.obj
 0001:00009c8b       ?min@?$simple_exception_policy@G$00$0BP@Ubad_day_of_month@gregorian@boost@@@CV@boost@@SAGXZ 1000ac8b f i main.obj
 0001:00009c93       ?max@?$constrained_value@V?$simple_exception_policy@G$0FHI@$0CHBA@Ubad_year@gregorian@boost@@@CV@boost@@@CV@boost@@SAGXZ 1000ac93 f i main.obj
 0001:00009c9d       ?on_error@?$simple_exception_policy@G$0FHI@$0CHBA@Ubad_year@gregorian@boost@@@CV@boost@@SAXGGW4violation_enum@23@@Z 1000ac9d f i main.obj
 0001:00009cfa       ?min@?$simple_exception_policy@G$0FHI@$0CHBA@Ubad_year@gregorian@boost@@@CV@boost@@SAGXZ 1000acfa f i main.obj
 0001:00009d04       ?max@?$constrained_value@V?$simple_exception_policy@G$00$0BP@Ubad_day_of_month@gregorian@boost@@@CV@boost@@@CV@boost@@SAGXZ 1000ad04 f i main.obj
 0001:00009d0e       ?on_error@?$simple_exception_policy@G$00$0BP@Ubad_day_of_month@gregorian@boost@@@CV@boost@@SAXGGW4violation_enum@23@@Z 1000ad0e f i main.obj
 0001:00009d6b       ?as_number@?$time_resolution_traits@Utime_resolution_traits_adapted64_impl@date_time@boost@@$04$0PECEA@$05H@date_time@boost@@SA_JV?$int_adapter@_J@23@@Z 1000ad6b f i main.obj
 0001:00009d7d       ?is_pos_inf@?$int_adapter@_J@date_time@boost@@SA_N_J@Z 1000ad7d f i main.obj
 0001:00009dbe       ?min@?$int_adapter@_J@date_time@boost@@SA?AV123@XZ 1000adbe f i main.obj
 0001:00009ddb       ?max@?$int_adapter@_J@date_time@boost@@SA?AV123@XZ 1000addb f i main.obj
 0001:00009df8       ?not_a_number@?$int_adapter@_J@date_time@boost@@SA?BV123@XZ 1000adf8 f i main.obj
 0001:00009e15       ?neg_infinity@?$int_adapter@_J@date_time@boost@@SA?BV123@XZ 1000ae15 f i main.obj
 0001:00009e2c       ?pos_infinity@?$int_adapter@_J@date_time@boost@@SA?BV123@XZ 1000ae2c f i main.obj
 0001:00009e43       ?add_ref@?$refcount_ptr@Uerror_info_container@exception_detail@boost@@@exception_detail@boost@@AAEXXZ 1000ae43 f i main.obj
 0001:00009e65       ?_Myptr@?$_String_val@U?$_Simple_types@D@std@@@std@@QBEPBDXZ 1000ae65 f i main.obj
 0001:00009e65       ?_Myptr@?$_String_val@U?$_Simple_types@D@std@@@std@@QAEPADXZ 1000ae65 f i main.obj
 0001:00009e93       ?deallocate@?$_Wrap_alloc@V?$allocator@D@std@@@std@@QAEXPADI@Z 1000ae93 f i main.obj
 0001:00009eae       ?_Myres@?$_String_alloc@U?$_String_base_types@DV?$allocator@D@std@@@std@@@std@@QAEAAIXZ 1000aeae f i main.obj
 0001:00009ec4       ?_Myfirst@?$_Vector_alloc@U?$_Vec_base_types@V?$shared_ptr@Ushared_state_base@detail@boost@@@boost@@V?$allocator@V?$shared_ptr@Ushared_state_base@detail@boost@@@boost@@@std@@@std@@@std@@QAEAAPAV?$shared_ptr@Ushared_state_base@detail@boost@@@boost@@XZ 1000aec4 f i nav.obj
 0001:00009ec4       ?_Myfirst@?$_Vector_alloc@U?$_Vec_base_types@U?$pair@PAVcondition_variable@boost@@PAVmutex@2@@std@@V?$allocator@U?$pair@PAVcondition_variable@boost@@PAVmutex@2@@std@@@2@@std@@@std@@QBEABQAU?$pair@PAVcondition_variable@boost@@PAVmutex@2@@2@XZ 1000aec4 f i nav.obj
 0001:00009ec4       ?_Myfirst@?$_Vector_alloc@U?$_Vec_base_types@U?$pair@PAVcondition_variable@boost@@PAVmutex@2@@std@@V?$allocator@U?$pair@PAVcondition_variable@boost@@PAVmutex@2@@std@@@2@@std@@@std@@QAEAAPAU?$pair@PAVcondition_variable@boost@@PAVmutex@2@@2@XZ 1000aec4 f i nav.obj
 0001:00009ec4       ?_Bx@?$_String_alloc@U?$_String_base_types@DV?$allocator@D@std@@@std@@@std@@QAEAAT_Bxty@?$_String_val@U?$_Simple_types@D@std@@@2@XZ 1000aec4 f i main.obj
 0001:00009ed7       ?_Check_offset@?$basic_string@DU?$char_traits@D@std@@V?$allocator@D@2@@std@@QBEXI@Z 1000aed7 f i main.obj
 0001:00009efb       ?_Xlen@?$basic_string@DU?$char_traits@D@std@@V?$allocator@D@2@@std@@QBEXXZ 1000aefb f i main.obj
 0001:00009f10       ?_Inside@?$basic_string@DU?$char_traits@D@std@@V?$allocator@D@2@@std@@QAE_NPBD@Z 1000af10 f i main.obj
 0001:00009f53       ?_Grow@?$basic_string@DU?$char_traits@D@std@@V?$allocator@D@2@@std@@QAE_NI_N@Z 1000af53 f i main.obj
 0001:0000a004       ?_Eos@?$basic_string@DU?$char_traits@D@std@@V?$allocator@D@2@@std@@QAEXI@Z 1000b004 f i main.obj
 0001:0000a03a       ?_Clamp_suffix_size@?$basic_string@DU?$char_traits@D@std@@V?$allocator@D@2@@std@@QBEIII@Z 1000b03a f i main.obj
 0001:0000a06a       ?erase@?$basic_string@DU?$char_traits@D@std@@V?$allocator@D@2@@std@@QAEAAV12@II@Z 1000b06a f i main.obj
 0001:0000a0ee       ?erase@?$basic_string@DU?$char_traits@D@std@@V?$allocator@D@2@@std@@QAEAAV12@I@Z 1000b0ee f i main.obj
 0001:0000a114       ?day_count@?$date@V0gregorian@boost@@Vgregorian_calendar@12@Vdate_duration@12@@date_time@boost@@QBE?AV?$int_adapter@I@23@XZ 1000b114 f i main.obj
 0001:0000a131       ?is_special@?$int_adapter@I@date_time@boost@@QBE_NXZ 1000b131 f i main.obj
 0001:0000a16b       ?is_nan@?$int_adapter@I@date_time@boost@@QBE_NXZ 1000b16b f i main.obj
 0001:0000a1a0       ?is_infinity@?$int_adapter@I@date_time@boost@@QBE_NXZ 1000b1a0 f i main.obj
 0001:0000a1ed       ?max@?$simple_exception_policy@G$00$0M@Ubad_month@gregorian@boost@@@CV@boost@@SAGXZ 1000b1ed f i main.obj
 0001:0000a1f5       ?max@?$simple_exception_policy@G$0FHI@$0CHBA@Ubad_year@gregorian@boost@@@CV@boost@@SAGXZ 1000b1f5 f i main.obj
 0001:0000a1ff       ?max@?$simple_exception_policy@G$00$0BP@Ubad_day_of_month@gregorian@boost@@@CV@boost@@SAGXZ 1000b1ff f i main.obj
 0001:0000a207       ?is_adapted@?$time_resolution_traits@Utime_resolution_traits_adapted64_impl@date_time@boost@@$04$0PECEA@$05H@date_time@boost@@SA_NXZ 1000b207 f i main.obj
 0001:0000a211       ?is_special@?$int_adapter@_J@date_time@boost@@QBE_NXZ 1000b211 f i main.obj
 0001:0000a24b       ?is_neg_inf@?$int_adapter@_J@date_time@boost@@SA_N_J@Z 1000b24b f i main.obj
 0001:0000a28c       ?_Xran@?$basic_string@DU?$char_traits@D@std@@V?$allocator@D@2@@std@@QBEXXZ 1000b28c f i main.obj
 0001:0000a2a1       ?_Copy@?$basic_string@DU?$char_traits@D@std@@V?$allocator@D@2@@std@@QAEXII@Z 1000b2a1 f i main.obj
 0001:0000a451       ?max_size@?$basic_string@DU?$char_traits@D@std@@V?$allocator@D@2@@std@@QBEIXZ 1000b451 f i main.obj
 0001:0000a48c       ?deallocate@?$allocator@D@std@@QAEXPADI@Z 1000b48c f i main.obj
 0001:0000a4a9       ?is_nan@?$int_adapter@_J@date_time@boost@@QBE_NXZ 1000b4a9 f i main.obj
 0001:0000a4f8       ?is_infinity@?$int_adapter@_J@date_time@boost@@QBE_NXZ 1000b4f8 f i main.obj
 0001:0000a579       ?max_size@?$_Wrap_alloc@V?$allocator@D@std@@@std@@QBEIU_Nil@2@@Z 1000b579 f i main.obj
 0001:0000a58f       ?allocate@?$_Wrap_alloc@V?$allocator@D@std@@@std@@QAEPADI@Z 1000b58f f i main.obj
 0001:0000a5a7       ?max_size@?$allocator_traits@V?$allocator@D@std@@@std@@SAIABV?$allocator@D@2@@Z 1000b5a7 f i main.obj
 0001:0000a5b4       ?allocate@?$allocator@D@std@@QAEPADI@Z 1000b5b4 f i main.obj
 0001:0000a5d0       ?max_size@?$allocator@D@std@@QBEIXZ 1000b5d0 f i main.obj
 0001:0000a5de       ??$throw_exception@Vruntime_error@std@@@boost@@YAXABVruntime_error@std@@@Z 1000b5de f i main.obj
 0001:0000a65e       ??0?$year_month_day_base@Vgreg_year@gregorian@boost@@Vgreg_month@23@Vgreg_day@23@@date_time@boost@@QAE@Vgreg_year@gregorian@2@Vgreg_month@42@Vgreg_day@42@@Z 1000b65e f i main.obj
 0001:0000a68e       ?day_number@?$gregorian_calendar_base@U?$year_month_day_base@Vgreg_year@gregorian@boost@@Vgreg_month@23@Vgreg_day@23@@date_time@boost@@I@date_time@boost@@SAIABU?$year_month_day_base@Vgreg_year@gregorian@boost@@Vgreg_month@23@Vgreg_day@23@@23@@Z 1000b68e f i main.obj
 0001:0000a750       ?end_of_month_day@?$gregorian_calendar_base@U?$year_month_day_base@Vgreg_year@gregorian@boost@@Vgreg_month@23@Vgreg_day@23@@date_time@boost@@I@date_time@boost@@SAGVgreg_year@gregorian@3@Vgreg_month@53@@Z 1000b750 f i main.obj
 0001:0000a7aa       ??$throw_exception@Ubad_day_of_month@gregorian@boost@@@boost@@YAXABUbad_day_of_month@gregorian@0@@Z 1000b7aa f i main.obj
 0001:0000a82a       ??$heap_delete@Uthread_data_base@detail@boost@@@detail@boost@@YAXPAUthread_data_base@01@@Z 1000b82a f i main.obj
 0001:0000a844       ??$absolute_value@H@date_time@boost@@YAHH@Z 1000b844 f i main.obj
 0001:0000a865       ??0?$CUtlVector@PAVNode@@V?$CUtlMemory@PAVNode@@H@@@@QAE@HH@Z 1000b865 f i main.obj
 0001:0000a865       ??0?$CUtlVector@PAUJobInfo_t@@V?$CUtlMemory@PAUJobInfo_t@@H@@@@QAE@HH@Z 1000b865 f i main.obj
 0001:0000a8c4       ??1?$CUtlVector@PAVNode@@V?$CUtlMemory@PAVNode@@H@@@@QAE@XZ 1000b8c4 f i main.obj
 0001:0000a8c4       ??1?$CUtlVector@PAUJobInfo_t@@V?$CUtlMemory@PAUJobInfo_t@@H@@@@QAE@XZ 1000b8c4 f i main.obj
 0001:0000a909       ?Element@?$CUtlVector@PAUJobInfo_t@@V?$CUtlMemory@PAUJobInfo_t@@H@@@@QAEAAPAUJobInfo_t@@H@Z 1000b909 f i main.obj
 0001:0000a909       ??A?$CUtlVector@PAVNode@@V?$CUtlMemory@PAVNode@@H@@@@QAEAAPAVNode@@H@Z 1000b909 f i main.obj
 0001:0000a909       ??A?$CUtlVector@PAUJobInfo_t@@V?$CUtlMemory@PAUJobInfo_t@@H@@@@QAEAAPAUJobInfo_t@@H@Z 1000b909 f i main.obj
 0001:0000a909       ?Element@?$CUtlVector@PAVNode@@V?$CUtlMemory@PAVNode@@H@@@@QBEABQAVNode@@H@Z 1000b909 f i nav.obj
 0001:0000a909       ?Element@?$CUtlVector@PAVNode@@V?$CUtlMemory@PAVNode@@H@@@@QAEAAPAVNode@@H@Z 1000b909 f i main.obj
 0001:0000a921       ?Head@?$CUtlLinkedList@UGroundSeedSpot@@H$0A@HV?$CUtlMemory@U?$UtlLinkedListElem_t@UGroundSeedSpot@@H@@H@@@@QBEHXZ 1000b921 f i nav.obj
 0001:0000a921       ?Size@?$CUtlVector@PAVNode@@V?$CUtlMemory@PAVNode@@H@@@@QBEHXZ 1000b921 f i main.obj
 0001:0000a921       ?Size@?$CUtlVector@PAUJobInfo_t@@V?$CUtlMemory@PAUJobInfo_t@@H@@@@QBEHXZ 1000b921 f i main.obj
 0001:0000a921       ?Count@?$CUtlVector@PAVNode@@V?$CUtlMemory@PAVNode@@H@@@@QBEHXZ 1000b921 f i main.obj
 0001:0000a921       ?Head@?$CUtlLinkedList@UAirSeedSpot@@H$0A@HV?$CUtlMemory@U?$UtlLinkedListElem_t@UAirSeedSpot@@H@@H@@@@QBEHXZ 1000b921 f i nav.obj
 0001:0000a932       ?AddToTail@?$CUtlVector@PAVNode@@V?$CUtlMemory@PAVNode@@H@@@@QAEHABQAVNode@@@Z 1000b932 f i nav.obj
 0001:0000a932       ?AddToTail@?$CUtlVector@PAUJobInfo_t@@V?$CUtlMemory@PAUJobInfo_t@@H@@@@QAEHABQAUJobInfo_t@@@Z 1000b932 f i main.obj
 0001:0000a950       ?Remove@?$CUtlVector@PAVNode@@V?$CUtlMemory@PAVNode@@H@@@@QAEXH@Z 1000b950 f i nav.obj
 0001:0000a950       ?Remove@?$CUtlVector@PAUJobInfo_t@@V?$CUtlMemory@PAUJobInfo_t@@H@@@@QAEXH@Z 1000b950 f i main.obj
 0001:0000a989       ??$timed_join@Vtime_duration@posix_time@boost@@@thread@boost@@QAE_NABVtime_duration@posix_time@1@@Z 1000b989 f i main.obj
 0001:0000a9b9       ??$sleep@Vtime_duration@posix_time@boost@@@this_thread@boost@@YAXABVtime_duration@posix_time@1@@Z 1000b9b9 f i main.obj
 0001:0000a9d8       ??$file_time_to_microseconds@UFILETIME@winapi@date_time@boost@@@winapi@date_time@boost@@YA_KABUFILETIME@012@@Z 1000b9d8 f i main.obj
 0001:0000aa24       ??$?H_J@?$int_adapter@_J@date_time@boost@@QBE?AV012@ABV012@@Z 1000ba24 f i main.obj
 0001:0000ab7c       ??$absolute_value@_J@date_time@boost@@YA_J_J@Z 1000bb7c f i main.obj
 0001:0000abba       ??$?0$$V@?$_Compressed_pair@U?$_Wrap_alloc@V?$allocator@D@std@@@std@@V?$_String_val@U?$_Simple_types@D@std@@@2@$00@std@@QAE@U_Zero_then_variadic_args_t@1@@Z 1000bbba f i main.obj
 0001:0000abda       ??$?HI@?$int_adapter@_J@date_time@boost@@QBE?AV012@ABV?$int_adapter@I@12@@Z 1000bbda f i main.obj
 0001:0000ad2c       ??$throw_exception@Ubad_month@gregorian@boost@@@boost@@YAXABUbad_month@gregorian@0@@Z 1000bd2c f i main.obj
 0001:0000adac       ??$throw_exception@Ubad_year@gregorian@boost@@@boost@@YAXABUbad_year@gregorian@0@@Z 1000bdac f i main.obj
 0001:0000ae2c       ??_D?$clone_impl@U?$error_info_injector@Vruntime_error@std@@@exception_detail@boost@@@exception_detail@boost@@QAEXXZ 1000be2c f i main.obj
 0001:0000ae4a       ??0?$clone_impl@U?$error_info_injector@Vruntime_error@std@@@exception_detail@boost@@@exception_detail@boost@@QAE@ABV012@@Z 1000be4a f i main.obj
 0001:0000af1b       ??0?$error_info_injector@Vruntime_error@std@@@exception_detail@boost@@QAE@ABU012@@Z 1000bf1b f i main.obj
 0001:0000af9f       ??0exception@boost@@QAE@ABV01@@Z 1000bf9f f i main.obj
 0001:0000afee       ??0clone_base@exception_detail@boost@@QAE@ABV012@@Z 1000bfee f i main.obj
 0001:0000b007       ??_D?$clone_impl@U?$error_info_injector@Ubad_day_of_month@gregorian@boost@@@exception_detail@boost@@@exception_detail@boost@@QAEXXZ 1000c007 f i main.obj
 0001:0000b025       ??0?$clone_impl@U?$error_info_injector@Ubad_day_of_month@gregorian@boost@@@exception_detail@boost@@@exception_detail@boost@@QAE@ABV012@@Z 1000c025 f i main.obj
 0001:0000b0f6       ??0?$error_info_injector@Ubad_day_of_month@gregorian@boost@@@exception_detail@boost@@QAE@ABU012@@Z 1000c0f6 f i main.obj
 0001:0000b17a       ??0bad_day_of_month@gregorian@boost@@QAE@ABU012@@Z 1000c17a f i main.obj
 0001:0000b19e       ??0out_of_range@std@@QAE@ABV01@@Z 1000c19e f i main.obj
 0001:0000b1c2       ??0logic_error@std@@QAE@ABV01@@Z 1000c1c2 f i main.obj
 0001:0000b1e6       ??_D?$clone_impl@U?$error_info_injector@Ubad_month@gregorian@boost@@@exception_detail@boost@@@exception_detail@boost@@QAEXXZ 1000c1e6 f i main.obj
 0001:0000b204       ??0?$clone_impl@U?$error_info_injector@Ubad_month@gregorian@boost@@@exception_detail@boost@@@exception_detail@boost@@QAE@ABV012@@Z 1000c204 f i main.obj
 0001:0000b2d5       ??0?$error_info_injector@Ubad_month@gregorian@boost@@@exception_detail@boost@@QAE@ABU012@@Z 1000c2d5 f i main.obj
 0001:0000b359       ??0bad_month@gregorian@boost@@QAE@ABU012@@Z 1000c359 f i main.obj
 0001:0000b37d       ??_D?$clone_impl@U?$error_info_injector@Ubad_year@gregorian@boost@@@exception_detail@boost@@@exception_detail@boost@@QAEXXZ 1000c37d f i main.obj
 0001:0000b39b       ??0?$clone_impl@U?$error_info_injector@Ubad_year@gregorian@boost@@@exception_detail@boost@@@exception_detail@boost@@QAE@ABV012@@Z 1000c39b f i main.obj
 0001:0000b46c       ??0?$error_info_injector@Ubad_year@gregorian@boost@@@exception_detail@boost@@QAE@ABU012@@Z 1000c46c f i main.obj
 0001:0000b4f0       ??0bad_year@gregorian@boost@@QAE@ABU012@@Z 1000c4f0 f i main.obj
 0001:0000b514       ??_E?$clone_impl@U?$error_info_injector@Vruntime_error@std@@@exception_detail@boost@@@exception_detail@boost@@UAEPAXI@Z 1000c514 f i * CIL library *:* CIL module *
 0001:0000b514       ??_G?$clone_impl@U?$error_info_injector@Vruntime_error@std@@@exception_detail@boost@@@exception_detail@boost@@UAEPAXI@Z 1000c514 f i main.obj
 0001:0000b540       ??_E?$error_info_injector@Vruntime_error@std@@@exception_detail@boost@@UAEPAXI@Z 1000c540 f i * CIL library *:* CIL module *
 0001:0000b540       ??_G?$error_info_injector@Vruntime_error@std@@@exception_detail@boost@@UAEPAXI@Z 1000c540 f i main.obj
 0001:0000b56c       ??_E?$clone_impl@U?$error_info_injector@Ubad_day_of_month@gregorian@boost@@@exception_detail@boost@@@exception_detail@boost@@UAEPAXI@Z 1000c56c f i * CIL library *:* CIL module *
 0001:0000b56c       ??_G?$clone_impl@U?$error_info_injector@Ubad_day_of_month@gregorian@boost@@@exception_detail@boost@@@exception_detail@boost@@UAEPAXI@Z 1000c56c f i main.obj
 0001:0000b598       ??_E?$error_info_injector@Ubad_day_of_month@gregorian@boost@@@exception_detail@boost@@UAEPAXI@Z 1000c598 f i * CIL library *:* CIL module *
 0001:0000b598       ??_G?$error_info_injector@Ubad_day_of_month@gregorian@boost@@@exception_detail@boost@@UAEPAXI@Z 1000c598 f i main.obj
 0001:0000b5c4       ??_G?$clone_impl@U?$error_info_injector@Ubad_month@gregorian@boost@@@exception_detail@boost@@@exception_detail@boost@@UAEPAXI@Z 1000c5c4 f i main.obj
 0001:0000b5c4       ??_E?$clone_impl@U?$error_info_injector@Ubad_month@gregorian@boost@@@exception_detail@boost@@@exception_detail@boost@@UAEPAXI@Z 1000c5c4 f i * CIL library *:* CIL module *
 0001:0000b5f0       ??_E?$error_info_injector@Ubad_month@gregorian@boost@@@exception_detail@boost@@UAEPAXI@Z 1000c5f0 f i * CIL library *:* CIL module *
 0001:0000b5f0       ??_G?$error_info_injector@Ubad_month@gregorian@boost@@@exception_detail@boost@@UAEPAXI@Z 1000c5f0 f i main.obj
 0001:0000b61c       ??_G?$clone_impl@U?$error_info_injector@Ubad_year@gregorian@boost@@@exception_detail@boost@@@exception_detail@boost@@UAEPAXI@Z 1000c61c f i main.obj
 0001:0000b61c       ??_E?$clone_impl@U?$error_info_injector@Ubad_year@gregorian@boost@@@exception_detail@boost@@@exception_detail@boost@@UAEPAXI@Z 1000c61c f i * CIL library *:* CIL module *
 0001:0000b648       ??_G?$error_info_injector@Ubad_year@gregorian@boost@@@exception_detail@boost@@UAEPAXI@Z 1000c648 f i main.obj
 0001:0000b648       ??_E?$error_info_injector@Ubad_year@gregorian@boost@@@exception_detail@boost@@UAEPAXI@Z 1000c648 f i * CIL library *:* CIL module *
 0001:0000b674       ?rethrow@?$clone_impl@U?$error_info_injector@Ubad_year@gregorian@boost@@@exception_detail@boost@@@exception_detail@boost@@EBEXXZ 1000c674 f i main.obj
 0001:0000b6a0       ?clone@?$clone_impl@U?$error_info_injector@Ubad_year@gregorian@boost@@@exception_detail@boost@@@exception_detail@boost@@EBEPBVclone_base@23@XZ 1000c6a0 f i main.obj
 0001:0000b735       ??1?$clone_impl@U?$error_info_injector@Ubad_year@gregorian@boost@@@exception_detail@boost@@@exception_detail@boost@@UAE@XZ 1000c735 f i main.obj
 0001:0000b78b       ??1?$error_info_injector@Ubad_year@gregorian@boost@@@exception_detail@boost@@UAE@XZ 1000c78b f i main.obj
 0001:0000b7bc       ?rethrow@?$clone_impl@U?$error_info_injector@Ubad_month@gregorian@boost@@@exception_detail@boost@@@exception_detail@boost@@EBEXXZ 1000c7bc f i main.obj
 0001:0000b7e8       ?clone@?$clone_impl@U?$error_info_injector@Ubad_month@gregorian@boost@@@exception_detail@boost@@@exception_detail@boost@@EBEPBVclone_base@23@XZ 1000c7e8 f i main.obj
 0001:0000b87d       ??1?$clone_impl@U?$error_info_injector@Ubad_month@gregorian@boost@@@exception_detail@boost@@@exception_detail@boost@@UAE@XZ 1000c87d f i main.obj
 0001:0000b8d3       ??1?$error_info_injector@Ubad_month@gregorian@boost@@@exception_detail@boost@@UAE@XZ 1000c8d3 f i main.obj
 0001:0000b904       ?rethrow@?$clone_impl@U?$error_info_injector@Ubad_day_of_month@gregorian@boost@@@exception_detail@boost@@@exception_detail@boost@@EBEXXZ 1000c904 f i main.obj
 0001:0000b930       ?clone@?$clone_impl@U?$error_info_injector@Ubad_day_of_month@gregorian@boost@@@exception_detail@boost@@@exception_detail@boost@@EBEPBVclone_base@23@XZ 1000c930 f i main.obj
 0001:0000b9c5       ??1?$clone_impl@U?$error_info_injector@Ubad_day_of_month@gregorian@boost@@@exception_detail@boost@@@exception_detail@boost@@UAE@XZ 1000c9c5 f i main.obj
 0001:0000ba1b       ??1?$error_info_injector@Ubad_day_of_month@gregorian@boost@@@exception_detail@boost@@UAE@XZ 1000ca1b f i main.obj
 0001:0000ba4c       ?rethrow@?$clone_impl@U?$error_info_injector@Vruntime_error@std@@@exception_detail@boost@@@exception_detail@boost@@EBEXXZ 1000ca4c f i main.obj
 0001:0000ba78       ?clone@?$clone_impl@U?$error_info_injector@Vruntime_error@std@@@exception_detail@boost@@@exception_detail@boost@@EBEPBVclone_base@23@XZ 1000ca78 f i main.obj
 0001:0000bb0d       ??1?$clone_impl@U?$error_info_injector@Vruntime_error@std@@@exception_detail@boost@@@exception_detail@boost@@UAE@XZ 1000cb0d f i main.obj
 0001:0000bb63       ??1?$error_info_injector@Vruntime_error@std@@@exception_detail@boost@@UAE@XZ 1000cb63 f i main.obj
 0001:0000bb94       ?ResetDbgInfo@?$CUtlVector@PAUJobInfo_t@@V?$CUtlMemory@PAUJobInfo_t@@H@@@@IAEXXZ 1000cb94 f i main.obj
 0001:0000bb94       ?ResetDbgInfo@?$CUtlVector@PAVNode@@V?$CUtlMemory@PAVNode@@H@@@@IAEXXZ 1000cb94 f i main.obj
 0001:0000bbad       ??0?$refcount_ptr@Uerror_info_container@exception_detail@boost@@@exception_detail@boost@@QAE@ABV012@@Z 1000cbad f i main.obj
 0001:0000bbcf       ??0?$_String_val@U?$_Simple_types@D@std@@@std@@QAE@XZ 1000cbcf f i main.obj
 0001:0000bbeb       ??0?$clone_impl@U?$error_info_injector@Ubad_year@gregorian@boost@@@exception_detail@boost@@@exception_detail@boost@@AAE@ABV012@Uclone_tag@012@@Z 1000cbeb f i main.obj
 0001:0000bce3       ??0?$clone_impl@U?$error_info_injector@Ubad_month@gregorian@boost@@@exception_detail@boost@@@exception_detail@boost@@AAE@ABV012@Uclone_tag@012@@Z 1000cce3 f i main.obj
 0001:0000bddb       ??0?$clone_impl@U?$error_info_injector@Ubad_day_of_month@gregorian@boost@@@exception_detail@boost@@@exception_detail@boost@@AAE@ABV012@Uclone_tag@012@@Z 1000cddb f i main.obj
 0001:0000bed3       ??0?$clone_impl@U?$error_info_injector@Vruntime_error@std@@@exception_detail@boost@@@exception_detail@boost@@AAE@ABV012@Uclone_tag@012@@Z 1000ced3 f i main.obj
 0001:0000bfcb       ?Base@?$CUtlVector@PAUJobInfo_t@@V?$CUtlMemory@PAUJobInfo_t@@H@@@@QAEPAPAUJobInfo_t@@XZ 1000cfcb f i main.obj
 0001:0000bfcb       ?Base@?$CUtlVector@PAVNode@@V?$CUtlMemory@PAVNode@@H@@@@QAEPAPAVNode@@XZ 1000cfcb f i main.obj
 0001:0000bfde       ??0clone_base@exception_detail@boost@@QAE@XZ 1000cfde f i main.obj
 0001:0000bff5       ?is_leap_year@?$gregorian_calendar_base@U?$year_month_day_base@Vgreg_year@gregorian@boost@@Vgreg_month@23@Vgreg_day@23@@date_time@boost@@I@date_time@boost@@SA_NVgreg_year@gregorian@3@@Z 1000cff5 f i main.obj
 0001:0000c054       ??0?$CUtlMemory@PAVNode@@H@@QAE@HH@Z 1000d054 f i main.obj
 0001:0000c054       ??0?$CUtlMemory@PAUJobInfo_t@@H@@QAE@HH@Z 1000d054 f i main.obj
 0001:0000c0b0       ??1?$CUtlMemory@PAVNode@@H@@QAE@XZ 1000d0b0 f i main.obj
 0001:0000c0b0       ??1?$CUtlMemory@U?$UtlLinkedListElem_t@UGroundSeedSpot@@H@@H@@QAE@XZ 1000d0b0 f i nav.obj
 0001:0000c0b0       ??1?$CUtlMemory@PAUJobInfo_t@@H@@QAE@XZ 1000d0b0 f i main.obj
 0001:0000c0b0       ??1?$CUtlMemory@U?$UtlLinkedListElem_t@UAirSeedSpot@@H@@H@@QAE@XZ 1000d0b0 f i nav.obj
 0001:0000c0ed       ??A?$CUtlMemory@PAVNode@@H@@QAEAAPAVNode@@H@Z 1000d0ed f i main.obj
 0001:0000c0ed       ??A?$CUtlMemory@PAVNode@@H@@QBEABQAVNode@@H@Z 1000d0ed f i nav.obj
 0001:0000c0ed       ??A?$CUtlMemory@PAUJobInfo_t@@H@@QAEAAPAUJobInfo_t@@H@Z 1000d0ed f i main.obj
 0001:0000c105       ?Purge@?$CUtlVector@PAUJobInfo_t@@V?$CUtlMemory@PAUJobInfo_t@@H@@@@QAEXXZ 1000d105 f i main.obj
 0001:0000c105       ?Purge@?$CUtlVector@PAVNode@@V?$CUtlMemory@PAVNode@@H@@@@QAEXXZ 1000d105 f i main.obj
 0001:0000c128       ?InsertBefore@?$CUtlVector@PAUJobInfo_t@@V?$CUtlMemory@PAUJobInfo_t@@H@@@@QAEHHABQAUJobInfo_t@@@Z 1000d128 f i main.obj
 0001:0000c128       ?InsertBefore@?$CUtlVector@PAVNode@@V?$CUtlMemory@PAVNode@@H@@@@QAEHHABQAVNode@@@Z 1000d128 f i nav.obj
 0001:0000c165       ?ShiftElementsLeft@?$CUtlVector@PAUJobInfo_t@@V?$CUtlMemory@PAUJobInfo_t@@H@@@@IAEXHH@Z 1000d165 f i main.obj
 0001:0000c165       ?ShiftElementsLeft@?$CUtlVector@PAVNode@@V?$CUtlMemory@PAVNode@@H@@@@IAEXHH@Z 1000d165 f i nav.obj
 0001:0000c1b9       ??$enable_error_info@Vruntime_error@std@@@boost@@YA?AU?$error_info_injector@Vruntime_error@std@@@exception_detail@0@ABVruntime_error@std@@@Z 1000d1b9 f i main.obj
 0001:0000c1dc       ??$enable_current_exception@U?$error_info_injector@Vruntime_error@std@@@exception_detail@boost@@@boost@@YA?AV?$clone_impl@U?$error_info_injector@Vruntime_error@std@@@exception_detail@boost@@@exception_detail@0@ABU?$error_info_injector@Vruntime_error@std@@@20@@Z 1000d1dc f i main.obj
 0001:0000c201       ??$enable_error_info@Ubad_day_of_month@gregorian@boost@@@boost@@YA?AU?$error_info_injector@Ubad_day_of_month@gregorian@boost@@@exception_detail@0@ABUbad_day_of_month@gregorian@0@@Z 1000d201 f i main.obj
 0001:0000c224       ??$enable_current_exception@U?$error_info_injector@Ubad_day_of_month@gregorian@boost@@@exception_detail@boost@@@boost@@YA?AV?$clone_impl@U?$error_info_injector@Ubad_day_of_month@gregorian@boost@@@exception_detail@boost@@@exception_detail@0@ABU?$error_info_injector@Ubad_day_of_month@gregorian@boost@@@20@@Z 1000d224 f i main.obj
 0001:0000c249       ??$enable_error_info@Ubad_month@gregorian@boost@@@boost@@YA?AU?$error_info_injector@Ubad_month@gregorian@boost@@@exception_detail@0@ABUbad_month@gregorian@0@@Z 1000d249 f i main.obj
 0001:0000c26c       ??$enable_current_exception@U?$error_info_injector@Ubad_month@gregorian@boost@@@exception_detail@boost@@@boost@@YA?AV?$clone_impl@U?$error_info_injector@Ubad_month@gregorian@boost@@@exception_detail@boost@@@exception_detail@0@ABU?$error_info_injector@Ubad_month@gregorian@boost@@@20@@Z 1000d26c f i main.obj
 0001:0000c291       ??$enable_error_info@Ubad_year@gregorian@boost@@@boost@@YA?AU?$error_info_injector@Ubad_year@gregorian@boost@@@exception_detail@0@ABUbad_year@gregorian@0@@Z 1000d291 f i main.obj
 0001:0000c2b4       ??$enable_current_exception@U?$error_info_injector@Ubad_year@gregorian@boost@@@exception_detail@boost@@@boost@@YA?AV?$clone_impl@U?$error_info_injector@Ubad_year@gregorian@boost@@@exception_detail@boost@@@exception_detail@0@ABU?$error_info_injector@Ubad_year@gregorian@boost@@@20@@Z 1000d2b4 f i main.obj
 0001:0000c2d9       ??0?$clone_impl@U?$error_info_injector@Ubad_year@gregorian@boost@@@exception_detail@boost@@@exception_detail@boost@@QAE@ABU?$error_info_injector@Ubad_year@gregorian@boost@@@12@@Z 1000d2d9 f i main.obj
 0001:0000c3d1       ??0?$error_info_injector@Ubad_year@gregorian@boost@@@exception_detail@boost@@QAE@ABUbad_year@gregorian@2@@Z 1000d3d1 f i main.obj
 0001:0000c43c       ??0?$clone_impl@U?$error_info_injector@Ubad_month@gregorian@boost@@@exception_detail@boost@@@exception_detail@boost@@QAE@ABU?$error_info_injector@Ubad_month@gregorian@boost@@@12@@Z 1000d43c f i main.obj
 0001:0000c534       ??0?$error_info_injector@Ubad_month@gregorian@boost@@@exception_detail@boost@@QAE@ABUbad_month@gregorian@2@@Z 1000d534 f i main.obj
 0001:0000c59f       ??0?$clone_impl@U?$error_info_injector@Ubad_day_of_month@gregorian@boost@@@exception_detail@boost@@@exception_detail@boost@@QAE@ABU?$error_info_injector@Ubad_day_of_month@gregorian@boost@@@12@@Z 1000d59f f i main.obj
 0001:0000c697       ??0?$error_info_injector@Ubad_day_of_month@gregorian@boost@@@exception_detail@boost@@QAE@ABUbad_day_of_month@gregorian@2@@Z 1000d697 f i main.obj
 0001:0000c702       ??0?$clone_impl@U?$error_info_injector@Vruntime_error@std@@@exception_detail@boost@@@exception_detail@boost@@QAE@ABU?$error_info_injector@Vruntime_error@std@@@12@@Z 1000d702 f i main.obj
 0001:0000c7fa       ??0?$error_info_injector@Vruntime_error@std@@@exception_detail@boost@@QAE@ABVruntime_error@std@@@Z 1000d7fa f i main.obj
 0001:0000c865       ?Purge@?$CUtlMemory@U?$UtlLinkedListElem_t@UGroundSeedSpot@@H@@H@@QAEXXZ 1000d865 f i nav.obj
 0001:0000c865       ?Purge@?$CUtlMemory@U?$UtlLinkedListElem_t@UAirSeedSpot@@H@@H@@QAEXXZ 1000d865 f i nav.obj
 0001:0000c865       ?Purge@?$CUtlMemory@PAVNode@@H@@QAEXXZ 1000d865 f i main.obj
 0001:0000c865       ?Purge@?$CUtlMemory@PAUJobInfo_t@@H@@QAEXXZ 1000d865 f i main.obj
 0001:0000c8ad       ?RemoveAll@?$CUtlVector@PAUJobInfo_t@@V?$CUtlMemory@PAUJobInfo_t@@H@@@@QAEXXZ 1000d8ad f i main.obj
 0001:0000c8ad       ?RemoveAll@?$CUtlVector@PAVNode@@V?$CUtlMemory@PAVNode@@H@@@@QAEXXZ 1000d8ad f i main.obj
 0001:0000c8e6       ?GrowVector@?$CUtlVector@PAVNode@@V?$CUtlMemory@PAVNode@@H@@@@IAEXH@Z 1000d8e6 f i nav.obj
 0001:0000c8e6       ?GrowVector@?$CUtlVector@PAUJobInfo_t@@V?$CUtlMemory@PAUJobInfo_t@@H@@@@IAEXH@Z 1000d8e6 f i main.obj
 0001:0000c93d       ?ShiftElementsRight@?$CUtlVector@PAVNode@@V?$CUtlMemory@PAVNode@@H@@@@IAEXHH@Z 1000d93d f i nav.obj
 0001:0000c93d       ?ShiftElementsRight@?$CUtlVector@PAUJobInfo_t@@V?$CUtlMemory@PAUJobInfo_t@@H@@@@IAEXHH@Z 1000d93d f i main.obj
 0001:0000c991       ??$CopyConstruct@PAUJobInfo_t@@@@YAPAPAUJobInfo_t@@PAPAU0@ABQAU0@@Z 1000d991 f i main.obj
 0001:0000c991       ??$CopyConstruct@PAVNode@@@@YAPAPAVNode@@PAPAV0@ABQAV0@@Z 1000d991 f i nav.obj
 0001:0000c9c8       ?IsExternallyAllocated@?$CUtlMemory@PAUJobInfo_t@@H@@QBE_NXZ 1000d9c8 f i main.obj
 0001:0000c9c8       ?IsExternallyAllocated@?$CUtlMemory@PAVNode@@H@@QBE_NXZ 1000d9c8 f i main.obj
 0001:0000c9c8       ?IsExternallyAllocated@?$CUtlMemory@U?$UtlLinkedListElem_t@UGroundSeedSpot@@H@@H@@QBE_NXZ 1000d9c8 f i nav.obj
 0001:0000c9c8       ?IsExternallyAllocated@?$CUtlMemory@U?$UtlLinkedListElem_t@UAirSeedSpot@@H@@H@@QBE_NXZ 1000d9c8 f i nav.obj
 0001:0000c9ed       ?NumAllocated@?$CUtlMemory@PAUJobInfo_t@@H@@QBEHXZ 1000d9ed f i main.obj
 0001:0000c9ed       ?NumAllocated@?$CUtlMemory@PAVNode@@H@@QBEHXZ 1000d9ed f i nav.obj
 0001:0000c9fe       ?Grow@?$CUtlMemory@PAUJobInfo_t@@H@@QAEXH@Z 1000d9fe f i main.obj
 0001:0000c9fe       ?Grow@?$CUtlMemory@PAVNode@@H@@QAEXH@Z 1000d9fe f i nav.obj
 0001:0000cae9       ??_E?$clone_impl@U?$error_info_injector@Ubad_year@gregorian@boost@@@exception_detail@boost@@@exception_detail@boost@@WM@AEPAXI@Z 1000dae9 f i main.obj
 0001:0000caf1       ?clone@?$clone_impl@U?$error_info_injector@Ubad_month@gregorian@boost@@@exception_detail@boost@@@exception_detail@boost@@$0PPPPPPPM@A@BEPBVclone_base@23@XZ 1000daf1 f i main.obj
 0001:0000caf9       ?rethrow@?$clone_impl@U?$error_info_injector@Ubad_year@gregorian@boost@@@exception_detail@boost@@@exception_detail@boost@@$0PPPPPPPM@A@BEXXZ 1000daf9 f i main.obj
 0001:0000cb01       ?rethrow@?$clone_impl@U?$error_info_injector@Vruntime_error@std@@@exception_detail@boost@@@exception_detail@boost@@$0PPPPPPPM@A@BEXXZ 1000db01 f i main.obj
 0001:0000cb09       ??_E?$error_info_injector@Ubad_year@gregorian@boost@@@exception_detail@boost@@WM@AEPAXI@Z 1000db09 f i main.obj
 0001:0000cb11       ??_E?$error_info_injector@Vruntime_error@std@@@exception_detail@boost@@WM@AEPAXI@Z 1000db11 f i main.obj
 0001:0000cb19       ?clone@?$clone_impl@U?$error_info_injector@Vruntime_error@std@@@exception_detail@boost@@@exception_detail@boost@@$0PPPPPPPM@A@BEPBVclone_base@23@XZ 1000db19 f i main.obj
 0001:0000cb21       ??_E?$clone_impl@U?$error_info_injector@Vruntime_error@std@@@exception_detail@boost@@@exception_detail@boost@@$4PPPPPPPM@CI@AEPAXI@Z 1000db21 f i main.obj
 0001:0000cb2c       ??_E?$clone_impl@U?$error_info_injector@Vruntime_error@std@@@exception_detail@boost@@@exception_detail@boost@@WM@AEPAXI@Z 1000db2c f i main.obj
 0001:0000cb34       ?clone@?$clone_impl@U?$error_info_injector@Ubad_year@gregorian@boost@@@exception_detail@boost@@@exception_detail@boost@@$0PPPPPPPM@A@BEPBVclone_base@23@XZ 1000db34 f i main.obj
 0001:0000cb3c       ?rethrow@?$clone_impl@U?$error_info_injector@Ubad_month@gregorian@boost@@@exception_detail@boost@@@exception_detail@boost@@$0PPPPPPPM@A@BEXXZ 1000db3c f i main.obj
 0001:0000cb44       ??_E?$clone_impl@U?$error_info_injector@Ubad_day_of_month@gregorian@boost@@@exception_detail@boost@@@exception_detail@boost@@$4PPPPPPPM@CI@AEPAXI@Z 1000db44 f i main.obj
 0001:0000cb4f       ??_E?$clone_impl@U?$error_info_injector@Ubad_day_of_month@gregorian@boost@@@exception_detail@boost@@@exception_detail@boost@@WM@AEPAXI@Z 1000db4f f i main.obj
 0001:0000cb57       ??_E?$error_info_injector@Ubad_month@gregorian@boost@@@exception_detail@boost@@WM@AEPAXI@Z 1000db57 f i main.obj
 0001:0000cb5f       ?clone@?$clone_impl@U?$error_info_injector@Ubad_day_of_month@gregorian@boost@@@exception_detail@boost@@@exception_detail@boost@@$0PPPPPPPM@A@BEPBVclone_base@23@XZ 1000db5f f i main.obj
 0001:0000cb67       ?rethrow@?$clone_impl@U?$error_info_injector@Ubad_day_of_month@gregorian@boost@@@exception_detail@boost@@@exception_detail@boost@@$0PPPPPPPM@A@BEXXZ 1000db67 f i main.obj
 0001:0000cb6f       ??_E?$error_info_injector@Ubad_day_of_month@gregorian@boost@@@exception_detail@boost@@WM@AEPAXI@Z 1000db6f f i main.obj
 0001:0000cb77       ??_E?$clone_impl@U?$error_info_injector@Ubad_month@gregorian@boost@@@exception_detail@boost@@@exception_detail@boost@@$4PPPPPPPM@CI@AEPAXI@Z 1000db77 f i main.obj
 0001:0000cb82       ??_E?$clone_impl@U?$error_info_injector@Ubad_year@gregorian@boost@@@exception_detail@boost@@@exception_detail@boost@@$4PPPPPPPM@CI@AEPAXI@Z 1000db82 f i main.obj
 0001:0000cb8d       ??_E?$clone_impl@U?$error_info_injector@Ubad_month@gregorian@boost@@@exception_detail@boost@@@exception_detail@boost@@WM@AEPAXI@Z 1000db8d f i main.obj
 0001:0000cb95       ??0exception@std@@QAE@QBDH@Z 1000db95 f i nav.obj
 0001:0000cbc4       ??0bad_alloc@std@@QAE@XZ   1000dbc4 f i nav.obj
 0001:0000cbea       _powf                      1000dbea f i nav.obj
 0001:0000cc0d       _sqrtf                     1000dc0d f i nav.obj
 0001:0000cc2b       ___local_stdio_scanf_options 1000dc2b f i nav.obj
 0001:0000cc35       __vfprintf_l               1000dc35 f i nav.obj
 0001:0000cc58       _fprintf                   1000dc58 f i nav.obj
 0001:0000cc89       __vfscanf_l                1000dc89 f i nav.obj
 0001:0000ccac       _fscanf                    1000dcac f i nav.obj
 0001:0000ccdd       ?LengthSqr@Vector@@QBEMXZ  1000dcdd f i nav.obj
 0001:0000cd27       ?IsZero@Vector@@QBE_NM@Z   1000dd27 f i nav.obj
 0001:0000cdb8       ?VectorClear@@YAXAAVVector@@@Z 1000ddb8 f i nav.obj
 0001:0000cdec       ?VectorCopy@@YAXABVVector@@AAV1@@Z 1000ddec f i nav.obj
 0001:0000ce13       ??XVector@@QAEAAV0@M@Z     1000de13 f i nav.obj
 0001:0000ce60       ?VectorAdd@@YAXABVVector@@0AAV1@@Z 1000de60 f i nav.obj
 0001:0000ceaa       ?VectorSubtract@@YAXABVVector@@0AAV1@@Z 1000deaa f i nav.obj
 0001:0000cef4       ?VectorMultiply@@YAXABVVector@@MAAV1@@Z 1000def4 f i nav.obj
 0001:0000cf36       ?VectorLength@@YAMABVVector@@@Z 1000df36 f i nav.obj
 0001:0000cf7d       ?Length@Vector@@QBEMXZ     1000df7d f i nav.obj
 0001:0000cf91       ?DistTo@Vector@@QBEMABV1@@Z 1000df91 f i nav.obj
 0001:0000cfc2       ??HVector@@QBE?AV0@ABV0@@Z 1000dfc2 f i nav.obj
 0001:0000cffb       ??GVector@@QBE?AV0@ABV0@@Z 1000dffb f i nav.obj
 0001:0000d034       ??DVector@@QBE?AV0@M@Z     1000e034 f i nav.obj
 0001:0000d075       ??0CBaseTrace@@QAE@XZ      1000e075 f i nav.obj
 0001:0000d0a1       ?Init@Ray_t@@QAEXABVVector@@0@Z 1000e0a1 f i nav.obj
 0001:0000d129       ?Init@Ray_t@@QAEXABVVector@@000@Z 1000e129 f i nav.obj
 0001:0000d23d       ??0CGameTrace@@QAE@XZ      1000e23d f i nav.obj
 0001:0000d253       ?DidHit@CGameTrace@@QBE_NXZ 1000e253 f i nav.obj
 0001:0000d296       ?abs@@YAMM@Z               1000e296 f i nav.obj
 0001:0000d296       ?fabs@@YAMM@Z              1000e296 f i nav.obj
 0001:0000d2ac       ?pow@@YAMMH@Z              1000e2ac f i nav.obj
 0001:0000d2eb       ?sqrt@@YAMM@Z              1000e2eb f i nav.obj
 0001:0000d301       ?release@sp_counted_base@detail@boost@@QAEXXZ 1000e301 f i nav.obj
 0001:0000d32f       ?weak_release@sp_counted_base@detail@boost@@QAEXXZ 1000e32f f i nav.obj
 0001:0000d355       ??1shared_count@detail@boost@@QAE@XZ 1000e355 f i nav.obj
 0001:0000d39c       ?message@error_code@system@boost@@QBE?AV?$basic_string@DU?$char_traits@D@std@@V?$allocator@D@2@@std@@XZ 1000e39c f i nav.obj
 0001:0000d3d7       ??0system_error@system@boost@@QAE@Verror_code@12@PBD@Z 1000e3d7 f i nav.obj
 0001:0000d415       ??1system_error@system@boost@@UAE@XZ 1000e415 f i nav.obj
 0001:0000d43c       ??_Esystem_error@system@boost@@UAEPAXI@Z 1000e43c f i * CIL library *:* CIL module *
 0001:0000d43c       ??_Gsystem_error@system@boost@@UAEPAXI@Z 1000e43c f i nav.obj
 0001:0000d468       ?what@system_error@system@boost@@UBEPBDXZ 1000e468 f i nav.obj
 0001:0000d574       ??0thread_exception@boost@@QAE@HPBD@Z 1000e574 f i nav.obj
 0001:0000d5b0       ??1thread_exception@boost@@UAE@XZ 1000e5b0 f i nav.obj
 0001:0000d5cc       ??_Ethread_exception@boost@@UAEPAXI@Z 1000e5cc f i * CIL library *:* CIL module *
 0001:0000d5cc       ??_Gthread_exception@boost@@UAEPAXI@Z 1000e5cc f i nav.obj
 0001:0000d5f8       ??0thread_resource_error@boost@@QAE@XZ 1000e5f8 f i nav.obj
 0001:0000d61e       ??1thread_resource_error@boost@@UAE@XZ 1000e61e f i nav.obj
 0001:0000d63a       ??_Ethread_resource_error@boost@@UAEPAXI@Z 1000e63a f i * CIL library *:* CIL module *
 0001:0000d63a       ??_Gthread_resource_error@boost@@UAEPAXI@Z 1000e63a f i nav.obj
 0001:0000d666       ?create_event@win32@detail@boost@@YAPAXPBDW4event_type@123@W4initial_event_state@123@@Z 1000e666 f i nav.obj
 0001:0000d685       ?create_anonymous_event@win32@detail@boost@@YAPAXW4event_type@123@W4initial_event_state@123@@Z 1000e685 f i nav.obj
 0001:0000d70b       ?cleanup@handle_manager@win32@detail@boost@@AAEXXZ 1000e70b f i nav.obj
 0001:0000d731       ??1handle_manager@win32@detail@boost@@QAE@XZ 1000e731 f i nav.obj
 0001:0000d76e       ?allocate_raw_heap_memory@detail@boost@@YAPAXI@Z 1000e76e f i nav.obj
 0001:0000d7e9       ??1?$shared_ptr@Utss_cleanup_function@detail@boost@@@boost@@QAE@XZ 1000e7e9 f i nav.obj
 0001:0000d7e9       ??1?$shared_ptr@Ushared_state_base@detail@boost@@@boost@@QAE@XZ 1000e7e9 f i nav.obj
 0001:0000d7ff       ??0thread_data_base@detail@boost@@QAE@XZ 1000e7ff f i nav.obj
 0001:0000d8b3       ?intrusive_ptr_add_ref@detail@boost@@YAXPAUthread_data_base@12@@Z 1000e8b3 f i nav.obj
 0001:0000d8c1       ?notify_all_at_thread_exit@thread_data_base@detail@boost@@UAEXPAVcondition_variable@3@PAVmutex@3@@Z 1000e8c1 f i nav.obj
 0001:0000d8ec       ??_Gthread_data_base@detail@boost@@UAEPAXI@Z 1000e8ec f i nav.obj
 0001:0000d8ec       ??_Ethread_data_base@detail@boost@@UAEPAXI@Z 1000e8ec f i * CIL library *:* CIL module *
 0001:0000d918       ??1?$map@PBXUtss_data_node@detail@boost@@U?$less@PBX@std@@V?$allocator@U?$pair@QBXUtss_data_node@detail@boost@@@std@@@5@@std@@QAE@XZ 1000e918 f i nav.obj
 0001:0000d92b       ?start_thread@thread@boost@@AAEXXZ 1000e92b f i nav.obj
 0001:0000d9a7       ??4thread@boost@@QAEAAV01@$$QAV01@@Z 1000e9a7 f i nav.obj
 0001:0000d9fc       ?GetTraceType@CTraceFilter@@UBE?AW4TraceType_t@@XZ 1000e9fc f i nav.obj
 0001:0000da09       ?LUA_GetNav@@YAPAVNav@@PAUlua_State@@H@Z 1000ea09 f   nav.obj
 0001:0000da52       ?LUA_PushNav@@YAXPAUlua_State@@PAVNav@@@Z 1000ea52 f   nav.obj
 0001:0000daeb       ??0GMOD_TraceFilter@@QAE@XZ 1000eaeb f i nav.obj
 0001:0000db0a       ?ShouldHitEntity@GMOD_TraceFilter@@UAE_NPAVIHandleEntity@@H@Z 1000eb0a f i nav.obj
 0001:0000db49       ?CheckCollisionGroup@GMOD_TraceFilter@@QAE_NH@Z 1000eb49 f i nav.obj
 0001:0000db62       ??0CTraceFilter@@QAE@XZ    1000eb62 f i nav.obj
 0001:0000db81       ??0ITraceFilter@@QAE@XZ    1000eb81 f i nav.obj
 0001:0000db98       ?UTIL_TraceLine_GMOD@@YAXABVVector@@0IPAVCGameTrace@@@Z 1000eb98 f i nav.obj
 0001:0000dbfe       ??0Ray_t@@QAE@XZ           1000ebfe f i nav.obj
 0001:0000dc35       ?UTIL_TraceHull_GMOD@@YAXABVVector@@000IPAVCGameTrace@@@Z 1000ec35 f i nav.obj
 0001:0000dca1       ??0Nav@@QAE@H@Z            1000eca1 f   nav.obj
 0001:0000de07       ??_GNode@@QAEPAXI@Z        1000ee07 f i nav.obj
 0001:0000de33       ?OppositeDirection@Nav@@SA?AW4NavDirType@@W42@@Z 1000ee33 f   nav.obj
 0001:0000ded3       ?SetGridSize@Nav@@QAEXH@Z  1000eed3 f   nav.obj
 0001:0000df2d       ?GetNode@Nav@@QAEPAVNode@@ABVVector@@@Z 1000ef2d f   nav.obj
 0001:0000e00d       ?GetNodeByID@Nav@@QAEPAVNode@@H@Z 1000f00d f   nav.obj
 0001:0000e043       ?AddNode@Nav@@QAEPAVNode@@ABVVector@@0W4NavDirType@@PAV2@@Z 1000f043 f   nav.obj
 0001:0000e1a9       ?RemoveNode@Nav@@QAEXPAVNode@@@Z 1000f1a9 f   nav.obj
 0001:0000e2e1       ?GetGridSize@Nav@@QAEHXZ   1000f2e1 f   nav.obj
 0001:0000e2f2       ?IsGenerated@Nav@@QAE_NXZ  1000f2f2 f   nav.obj
 0001:0000e302       ?SnapToGrid@Nav@@QAE?AVVector@@ABV2@_N1@Z 1000f302 f   nav.obj
 0001:0000e38c       ?Round@Nav@@QAEMMM@Z       1000f38c f   nav.obj
 0001:0000e408       ?GetGroundHeight@Nav@@QAE_NABVVector@@PAMPAV2@@Z 1000f408 f   nav.obj
 0001:0000e729       ?GenerateQueue@Nav@@QAEXPAUJobInfo_t@@@Z 1000f729 f   nav.obj
 0001:0000e77a       ?FullGeneration@Nav@@QAEXPA_N@Z 1000f77a f   nav.obj
 0001:0000e7a8       ?ResetGeneration@Nav@@QAEXXZ 1000f7a8 f   nav.obj
 0001:0000e86a       ?SetupMaxDistance@Nav@@QAEXABVVector@@H@Z 1000f86a f   nav.obj
 0001:0000e88e       ?AddGroundSeed@Nav@@QAEXABVVector@@0@Z 1000f88e f   nav.obj
 0001:0000e8de       ??0GroundSeedSpot@@QAE@XZ  1000f8de f i nav.obj
 0001:0000e8de       ??0AirSeedSpot@@QAE@XZ     1000f8de f i nav.obj
 0001:0000e8ff       ?AddAirSeed@Nav@@QAEXABVVector@@@Z 1000f8ff f   nav.obj
 0001:0000e944       ?ClearGroundSeeds@Nav@@QAEXXZ 1000f944 f   nav.obj
 0001:0000e95d       ?ClearAirSeeds@Nav@@QAEXXZ 1000f95d f   nav.obj
 0001:0000e976       ?GetNextGroundSeedNode@Nav@@QAEPAVNode@@XZ 1000f976 f   nav.obj
 0001:0000ead4       ?GetNextAirSeedNode@Nav@@QAEPAVNode@@XZ 1000fad4 f   nav.obj
 0001:0000ec33       ?SampleStep@Nav@@QAE_NXZ   1000fc33 f   nav.obj
 0001:0000f4db       ?Save@Nav@@QAE_NPBD@Z      100104db f   nav.obj
 0001:0000f7b1       ?Load@Nav@@QAE_NPBD@Z      100107b1 f   nav.obj
 0001:0000fb9c       ?GetNodes@Nav@@QAEAAV?$CUtlVector@PAVNode@@V?$CUtlMemory@PAVNode@@H@@@@XZ 10010b9c f   nav.obj
 0001:0000fbad       ?GetClosestNode@Nav@@QBEPAVNode@@ABVVector@@@Z 10010bad f   nav.obj
 0001:0000fc2b       ?Reset@Nav@@QAEXXZ         10010c2b f   nav.obj
 0001:0000fc97       ?AddOpenedNode@Nav@@QAEXPAVNode@@@Z 10010c97 f   nav.obj
 0001:0000fcbd       ?AddClosedNode@Nav@@QAEXPAVNode@@@Z 10010cbd f   nav.obj
 0001:0000fcfb       ?HeuristicDistance@Nav@@QAEMPBVVector@@0@Z 10010cfb f   nav.obj
 0001:0000fd44       ?ManhattanDistance@Nav@@QAEMPBVVector@@0@Z 10010d44 f   nav.obj
 0001:0000fdd9       ?EuclideanDistance@Nav@@QAEMPBVVector@@0@Z 10010dd9 f   nav.obj
 0001:0000fe7b       ?FindLowestF@Nav@@QAEPAVNode@@XZ 10010e7b f   nav.obj
 0001:0000ff07       ?FindPathQueue@Nav@@QAEXPAUJobInfo_t@@@Z 10010f07 f   nav.obj
 0001:0000ff51       ?ExecuteFindPath@Nav@@QAEXPAUJobInfo_t@@PAVNode@@1@Z 10010f51 f   nav.obj
 0001:000101d9       ?GetMask@Nav@@QAEHXZ       100111d9 f   nav.obj
 0001:000101ea       ?SetMask@Nav@@QAEXH@Z      100111ea f   nav.obj
 0001:00010200       ?GetDiagonal@Nav@@QAE_NXZ  10011200 f   nav.obj
 0001:00010211       ?SetDiagonal@Nav@@QAEX_N@Z 10011211 f   nav.obj
 0001:00010248       ?GetHeuristic@Nav@@QAEHXZ  10011248 f   nav.obj
 0001:0001025c       ?GetStart@Nav@@QAEPAVNode@@XZ 1001125c f   nav.obj
 0001:00010270       ?GetEnd@Nav@@QAEPAVNode@@XZ 10011270 f   nav.obj
 0001:00010284       ?SetHeuristic@Nav@@QAEXH@Z 10011284 f   nav.obj
 0001:0001029d       ?SetStart@Nav@@QAEXPAVNode@@@Z 1001129d f   nav.obj
 0001:000102b6       ?SetEnd@Nav@@QAEXPAVNode@@@Z 100112b6 f   nav.obj
 0001:000102cf       ?GetNodeTree@Nav@@QAEPAUkdtree@@XZ 100112cf f   nav.obj
 0001:000102e0       ?swap@?$intrusive_ptr@Uthread_data_base@detail@boost@@@boost@@QAEXAAV12@@Z 100112e0 f i nav.obj
 0001:00010308       ?reset@?$intrusive_ptr@Uthread_data_base@detail@boost@@@boost@@QAEXXZ 10011308 f i nav.obj
 0001:0001032e       ??4?$intrusive_ptr@Uthread_data_base@detail@boost@@@boost@@QAEAAV01@ABV01@@Z 1001132e f i nav.obj
 0001:00010361       ??0?$intrusive_ptr@Uthread_data_base@detail@boost@@@boost@@QAE@PAUthread_data_base@detail@1@_N@Z 10011361 f i nav.obj
 0001:00010394       ??1?$vector@V?$shared_ptr@Ushared_state_base@detail@boost@@@boost@@V?$allocator@V?$shared_ptr@Ushared_state_base@detail@boost@@@boost@@@std@@@std@@QAE@XZ 10011394 f i nav.obj
 0001:000103d1       ??0?$vector@V?$shared_ptr@Ushared_state_base@detail@boost@@@boost@@V?$allocator@V?$shared_ptr@Ushared_state_base@detail@boost@@@boost@@@std@@@std@@QAE@XZ 100113d1 f i nav.obj
 0001:000103d1       ??0?$vector@U?$pair@PAVcondition_variable@boost@@PAVmutex@2@@std@@V?$allocator@U?$pair@PAVcondition_variable@boost@@PAVmutex@2@@std@@@2@@std@@QAE@XZ 100113d1 f i nav.obj
 0001:00010411       ??1?$vector@U?$pair@PAVcondition_variable@boost@@PAVmutex@2@@std@@V?$allocator@U?$pair@PAVcondition_variable@boost@@PAVmutex@2@@std@@@2@@std@@QAE@XZ 10011411 f i nav.obj
 0001:0001044e       ?push_back@?$vector@U?$pair@PAVcondition_variable@boost@@PAVmutex@2@@std@@V?$allocator@U?$pair@PAVcondition_variable@boost@@PAVmutex@2@@std@@@2@@std@@QAEX$$QAU?$pair@PAVcondition_variable@boost@@PAVmutex@2@@2@@Z 1001144e f i nav.obj
 0001:00010599       ??1?$_Tree@V?$_Tmap_traits@PBXUtss_data_node@detail@boost@@U?$less@PBX@std@@V?$allocator@U?$pair@QBXUtss_data_node@detail@boost@@@std@@@5@$0A@@std@@@std@@QAE@XZ 10011599 f i nav.obj
 0001:000105de       ??0?$map@PBXUtss_data_node@detail@boost@@U?$less@PBX@std@@V?$allocator@U?$pair@QBXUtss_data_node@detail@boost@@@std@@@5@@std@@QAE@XZ 100115de f i nav.obj
 0001:000105f9       ?empty@?$basic_string@DU?$char_traits@D@std@@V?$allocator@D@2@@std@@QBE_NXZ 100115f9 f i nav.obj
 0001:00010622       ?append@?$basic_string@DU?$char_traits@D@std@@V?$allocator@D@2@@std@@QAEAAV12@PBD@Z 10011622 f i nav.obj
 0001:00010644       ?append@?$basic_string@DU?$char_traits@D@std@@V?$allocator@D@2@@std@@QAEAAV12@ABV12@@Z 10011644 f i nav.obj
 0001:00010664       ??Y?$basic_string@DU?$char_traits@D@std@@V?$allocator@D@2@@std@@QAEAAV01@PBD@Z 10011664 f i nav.obj
 0001:0001067c       ??Y?$basic_string@DU?$char_traits@D@std@@V?$allocator@D@2@@std@@QAEAAV01@ABV01@@Z 1001167c f i nav.obj
 0001:00010694       ??4?$basic_string@DU?$char_traits@D@std@@V?$allocator@D@2@@std@@QAEAAV01@PBD@Z 10011694 f i nav.obj
 0001:000106ac       ??0?$basic_string@DU?$char_traits@D@std@@V?$allocator@D@2@@std@@QAE@XZ 100116ac f i nav.obj
 0001:000106f8       ??0?$basic_string@DU?$char_traits@D@std@@V?$allocator@D@2@@std@@QAE@ABV01@@Z 100116f8 f i nav.obj
 0001:00010748       ??0?$intrusive_ptr@Uthread_data_base@detail@boost@@@boost@@QAE@ABV01@@Z 10011748 f i nav.obj
 0001:00010775       ?_Myend@?$_Vector_alloc@U?$_Vec_base_types@V?$shared_ptr@Ushared_state_base@detail@boost@@@boost@@V?$allocator@V?$shared_ptr@Ushared_state_base@detail@boost@@@boost@@@std@@@std@@@std@@QAEAAPAV?$shared_ptr@Ushared_state_base@detail@boost@@@boost@@XZ 10011775 f i nav.obj
 0001:00010775       ?_Myend@?$_Vector_alloc@U?$_Vec_base_types@U?$pair@PAVcondition_variable@boost@@PAVmutex@2@@std@@V?$allocator@U?$pair@PAVcondition_variable@boost@@PAVmutex@2@@std@@@2@@std@@@std@@QAEAAPAU?$pair@PAVcondition_variable@boost@@PAVmutex@2@@2@XZ 10011775 f i nav.obj
 0001:00010775       ?_Myend@?$_Vector_alloc@U?$_Vec_base_types@U?$pair@PAVcondition_variable@boost@@PAVmutex@2@@std@@V?$allocator@U?$pair@PAVcondition_variable@boost@@PAVmutex@2@@std@@@2@@std@@@std@@QBEABQAU?$pair@PAVcondition_variable@boost@@PAVmutex@2@@2@XZ 10011775 f i nav.obj
 0001:0001078b       ?_Mylast@?$_Vector_alloc@U?$_Vec_base_types@U?$pair@PAVcondition_variable@boost@@PAVmutex@2@@std@@V?$allocator@U?$pair@PAVcondition_variable@boost@@PAVmutex@2@@std@@@2@@std@@@std@@QAEAAPAU?$pair@PAVcondition_variable@boost@@PAVmutex@2@@2@XZ 1001178b f i nav.obj
 0001:0001078b       ?_Mylast@?$_Vector_alloc@U?$_Vec_base_types@V?$shared_ptr@Ushared_state_base@detail@boost@@@boost@@V?$allocator@V?$shared_ptr@Ushared_state_base@detail@boost@@@boost@@@std@@@std@@@std@@QAEAAPAV?$shared_ptr@Ushared_state_base@detail@boost@@@boost@@XZ 1001178b f i nav.obj
 0001:0001078b       ?_Mylast@?$_Vector_alloc@U?$_Vec_base_types@U?$pair@PAVcondition_variable@boost@@PAVmutex@2@@std@@V?$allocator@U?$pair@PAVcondition_variable@boost@@PAVmutex@2@@std@@@2@@std@@@std@@QBEABQAU?$pair@PAVcondition_variable@boost@@PAVmutex@2@@2@XZ 1001178b f i nav.obj
 0001:000107a1       ??0?$_Vector_alloc@U?$_Vec_base_types@U?$pair@PAVcondition_variable@boost@@PAVmutex@2@@std@@V?$allocator@U?$pair@PAVcondition_variable@boost@@PAVmutex@2@@std@@@2@@std@@@std@@QAE@XZ 100117a1 f i nav.obj
 0001:000107a1       ??0?$_Vector_alloc@U?$_Vec_base_types@V?$shared_ptr@Ushared_state_base@detail@boost@@@boost@@V?$allocator@V?$shared_ptr@Ushared_state_base@detail@boost@@@boost@@@std@@@std@@@std@@QAE@XZ 100117a1 f i nav.obj
 0001:000107bb       ?_Tidy@?$vector@V?$shared_ptr@Ushared_state_base@detail@boost@@@boost@@V?$allocator@V?$shared_ptr@Ushared_state_base@detail@boost@@@boost@@@std@@@std@@IAEXXZ 100117bb f i nav.obj
 0001:0001084d       ?_Orphan_range@?$vector@U?$pair@PAVcondition_variable@boost@@PAVmutex@2@@std@@V?$allocator@U?$pair@PAVcondition_variable@boost@@PAVmutex@2@@std@@@2@@std@@IBEXPAU?$pair@PAVcondition_variable@boost@@PAVmutex@2@@2@0@Z 1001184d f i nav.obj
 0001:0001085a       ?_Tidy@?$vector@U?$pair@PAVcondition_variable@boost@@PAVmutex@2@@std@@V?$allocator@U?$pair@PAVcondition_variable@boost@@PAVmutex@2@@std@@@2@@std@@IAEXXZ 1001185a f i nav.obj
 0001:000108ec       ?_Reserve@?$vector@U?$pair@PAVcondition_variable@boost@@PAVmutex@2@@std@@V?$allocator@U?$pair@PAVcondition_variable@boost@@PAVmutex@2@@std@@@2@@std@@IAEXI@Z 100118ec f i nav.obj
 0001:00010946       ?_Inside@?$vector@U?$pair@PAVcondition_variable@boost@@PAVmutex@2@@std@@V?$allocator@U?$pair@PAVcondition_variable@boost@@PAVmutex@2@@std@@@2@@std@@IBE_NPBU?$pair@PAVcondition_variable@boost@@PAVmutex@2@@2@@Z 10011946 f i nav.obj
 0001:00010982       ??1?$_Tree_comp_alloc@V?$_Tmap_traits@PBXUtss_data_node@detail@boost@@U?$less@PBX@std@@V?$allocator@U?$pair@QBXUtss_data_node@detail@boost@@@std@@@5@$0A@@std@@@std@@QAE@XZ 10011982 f i nav.obj
 0001:000109c9       ?_Tidy@?$_Tree@V?$_Tmap_traits@PBXUtss_data_node@detail@boost@@U?$less@PBX@std@@V?$allocator@U?$pair@QBXUtss_data_node@detail@boost@@@std@@@5@$0A@@std@@@std@@IAEXXZ 100119c9 f i nav.obj
 0001:00010a0a       ??0?$_Tree@V?$_Tmap_traits@PBXUtss_data_node@detail@boost@@U?$less@PBX@std@@V?$allocator@U?$pair@QBXUtss_data_node@detail@boost@@@std@@@5@$0A@@std@@@std@@QAE@ABU?$less@PBX@1@@Z 10011a0a f i nav.obj
 0001:00010a25       ?select_on_container_copy_construction@?$_Wrap_alloc@V?$allocator@D@std@@@std@@QBE?AU12@U_Nil@2@@Z 10011a25 f i nav.obj
 0001:00010a4d       ?append@?$basic_string@DU?$char_traits@D@std@@V?$allocator@D@2@@std@@QAEAAV12@PBDI@Z 10011a4d f i nav.obj
 0001:00010b05       ?append@?$basic_string@DU?$char_traits@D@std@@V?$allocator@D@2@@std@@QAEAAV12@ABV12@II@Z 10011b05 f i nav.obj
 0001:00010bb2       ?deallocate@?$_Wrap_alloc@V?$allocator@V?$shared_ptr@Ushared_state_base@detail@boost@@@boost@@@std@@@std@@QAEXPAV?$shared_ptr@Ushared_state_base@detail@boost@@@boost@@I@Z 10011bb2 f i nav.obj
 0001:00010bb2       ?deallocate@?$_Wrap_alloc@V?$allocator@U?$pair@PAVcondition_variable@boost@@PAVmutex@2@@std@@@std@@@std@@QAEXPAU?$pair@PAVcondition_variable@boost@@PAVmutex@2@@2@I@Z 10011bb2 f i nav.obj
 0001:00010bcd       ?_Orphan_all@?$_Vector_alloc@U?$_Vec_base_types@V?$shared_ptr@Ushared_state_base@detail@boost@@@boost@@V?$allocator@V?$shared_ptr@Ushared_state_base@detail@boost@@@boost@@@std@@@std@@@std@@QAEXXZ 10011bcd f i nav.obj
 0001:00010bcd       ?_Orphan_all@?$_Vector_alloc@U?$_Vec_base_types@U?$pair@PAVcondition_variable@boost@@PAVmutex@2@@std@@V?$allocator@U?$pair@PAVcondition_variable@boost@@PAVmutex@2@@std@@@2@@std@@@std@@QAEXXZ 10011bcd f i nav.obj
 0001:00010be7       ?_Destroy@?$vector@V?$shared_ptr@Ushared_state_base@detail@boost@@@boost@@V?$allocator@V?$shared_ptr@Ushared_state_base@detail@boost@@@boost@@@std@@@std@@IAEXPAV?$shared_ptr@Ushared_state_base@detail@boost@@@boost@@0@Z 10011be7 f i nav.obj
 0001:00010c0b       ?_Xlen@?$vector@U?$pair@PAVcondition_variable@boost@@PAVmutex@2@@std@@V?$allocator@U?$pair@PAVcondition_variable@boost@@PAVmutex@2@@std@@@2@@std@@IBEXXZ 10011c0b f i nav.obj
 0001:00010c20       ?_Reallocate@?$vector@U?$pair@PAVcondition_variable@boost@@PAVmutex@2@@std@@V?$allocator@U?$pair@PAVcondition_variable@boost@@PAVmutex@2@@std@@@2@@std@@IAEXI@Z 10011c20 f i nav.obj
 0001:00010d6d       ?_Grow_to@?$vector@U?$pair@PAVcondition_variable@boost@@PAVmutex@2@@std@@V?$allocator@U?$pair@PAVcondition_variable@boost@@PAVmutex@2@@std@@@2@@std@@IBEII@Z 10011d6d f i nav.obj
 0001:00010dc3       ?_Destroy@?$vector@U?$pair@PAVcondition_variable@boost@@PAVmutex@2@@std@@V?$allocator@U?$pair@PAVcondition_variable@boost@@PAVmutex@2@@std@@@2@@std@@IAEXPAU?$pair@PAVcondition_variable@boost@@PAVmutex@2@@2@0@Z 10011dc3 f i nav.obj
 0001:00010de7       ?max_size@?$vector@U?$pair@PAVcondition_variable@boost@@PAVmutex@2@@std@@V?$allocator@U?$pair@PAVcondition_variable@boost@@PAVmutex@2@@std@@@2@@std@@QBEIXZ 10011de7 f i nav.obj
 0001:00010e05       ?size@?$vector@U?$pair@PAVcondition_variable@boost@@PAVmutex@2@@std@@V?$allocator@U?$pair@PAVcondition_variable@boost@@PAVmutex@2@@std@@@2@@std@@QBEIXZ 10011e05 f i nav.obj
 0001:00010e2d       ?_Unused_capacity@?$vector@U?$pair@PAVcondition_variable@boost@@PAVmutex@2@@std@@V?$allocator@U?$pair@PAVcondition_variable@boost@@PAVmutex@2@@std@@@2@@std@@QBEIXZ 10011e2d f i nav.obj
 0001:00010e55       ?_Freeheadnode@?$_Tree_comp_alloc@V?$_Tmap_traits@PBXUtss_data_node@detail@boost@@U?$less@PBX@std@@V?$allocator@U?$pair@QBXUtss_data_node@detail@boost@@@std@@@5@$0A@@std@@@std@@QAEXPAU?$_Tree_node@U?$pair@QBXUtss_data_node@detail@boost@@@std@@PAX@2@@Z 10011e55 f i nav.obj
 0001:00010ed6       ??0?$_Tree_comp_alloc@V?$_Tmap_traits@PBXUtss_data_node@detail@boost@@U?$less@PBX@std@@V?$allocator@U?$pair@QBXUtss_data_node@detail@boost@@@std@@@5@$0A@@std@@@std@@QAE@ABU?$less@PBX@1@@Z 10011ed6 f i nav.obj
 0001:00010f02       ?erase@?$_Tree@V?$_Tmap_traits@PBXUtss_data_node@detail@boost@@U?$less@PBX@std@@V?$allocator@U?$pair@QBXUtss_data_node@detail@boost@@@std@@@5@$0A@@std@@@std@@QAE?AV?$_Tree_iterator@V?$_Tree_val@U?$_Tree_simple_types@U?$pair@QBXUtss_data_node@detail@boost@@@std@@@std@@@std@@@2@V?$_Tree_const_iterator@V?$_Tree_val@U?$_Tree_simple_types@U?$pair@QBXUtss_data_node@detail@boost@@@std@@@std@@@std@@@2@0@Z 10011f02 f i nav.obj
 0001:00010fab       ?select_on_container_copy_construction@?$allocator_traits@V?$allocator@D@std@@@std@@SA?AV?$allocator@D@2@ABV32@@Z 10011fab f i nav.obj
 0001:00010fbe       ?deallocate@?$allocator@V?$shared_ptr@Ushared_state_base@detail@boost@@@boost@@@std@@QAEXPAV?$shared_ptr@Ushared_state_base@detail@boost@@@boost@@I@Z 10011fbe f i nav.obj
 0001:00010fbe       ?deallocate@?$allocator@U?$pair@PAVcondition_variable@boost@@PAVmutex@2@@std@@@std@@QAEXPAU?$pair@PAVcondition_variable@boost@@PAVmutex@2@@2@I@Z 10011fbe f i nav.obj
 0001:00010fdb       ?max_size@?$_Wrap_alloc@V?$allocator@U?$pair@PAVcondition_variable@boost@@PAVmutex@2@@std@@@std@@@std@@QBEIU_Nil@2@@Z 10011fdb f i nav.obj
 0001:00010ff1       ?allocate@?$_Wrap_alloc@V?$allocator@U?$pair@PAVcondition_variable@boost@@PAVmutex@2@@std@@@std@@@std@@QAEPAU?$pair@PAVcondition_variable@boost@@PAVmutex@2@@2@I@Z 10011ff1 f i nav.obj
 0001:00011009       ?capacity@?$vector@U?$pair@PAVcondition_variable@boost@@PAVmutex@2@@std@@V?$allocator@U?$pair@PAVcondition_variable@boost@@PAVmutex@2@@std@@@2@@std@@QBEIXZ 10012009 f i nav.obj
 0001:00011031       ?deallocate@?$_Wrap_alloc@V?$allocator@U?$_Tree_node@U?$pair@QBXUtss_data_node@detail@boost@@@std@@PAX@std@@@std@@@std@@QAEXPAU?$_Tree_node@U?$pair@QBXUtss_data_node@detail@boost@@@std@@PAX@2@I@Z 10012031 f i nav.obj
 0001:0001104c       ?_Construct@?$_Tree_comp_alloc@V?$_Tmap_traits@PBXUtss_data_node@detail@boost@@U?$less@PBX@std@@V?$allocator@U?$pair@QBXUtss_data_node@detail@boost@@@std@@@5@$0A@@std@@@std@@QAEXXZ 1001204c f i nav.obj
 0001:0001106d       ?clear@?$_Tree@V?$_Tmap_traits@PBXUtss_data_node@detail@boost@@U?$less@PBX@std@@V?$allocator@U?$pair@QBXUtss_data_node@detail@boost@@@std@@@5@$0A@@std@@@std@@QAEXXZ 1001206d f i nav.obj
 0001:00011103       ?erase@?$_Tree@V?$_Tmap_traits@PBXUtss_data_node@detail@boost@@U?$less@PBX@std@@V?$allocator@U?$pair@QBXUtss_data_node@detail@boost@@@std@@@5@$0A@@std@@@std@@QAE?AV?$_Tree_iterator@V?$_Tree_val@U?$_Tree_simple_types@U?$pair@QBXUtss_data_node@detail@boost@@@std@@@std@@@std@@@2@V?$_Tree_const_iterator@V?$_Tree_val@U?$_Tree_simple_types@U?$pair@QBXUtss_data_node@detail@boost@@@std@@@std@@@std@@@2@@Z 10012103 f i nav.obj
 0001:00011760       ?max_size@?$allocator_traits@V?$allocator@U?$pair@PAVcondition_variable@boost@@PAVmutex@2@@std@@@std@@@std@@SAIABV?$allocator@U?$pair@PAVcondition_variable@boost@@PAVmutex@2@@std@@@2@@Z 10012760 f i nav.obj
 0001:0001176d       ?allocate@?$allocator@U?$pair@PAVcondition_variable@boost@@PAVmutex@2@@std@@@std@@QAEPAU?$pair@PAVcondition_variable@boost@@PAVmutex@2@@2@I@Z 1001276d f i nav.obj
 0001:00011789       ?deallocate@?$allocator@U?$_Tree_node@U?$pair@QBXUtss_data_node@detail@boost@@@std@@PAX@std@@@std@@QAEXPAU?$_Tree_node@U?$pair@QBXUtss_data_node@detail@boost@@@std@@PAX@2@I@Z 10012789 f i nav.obj
 0001:000117a6       ?_Buyheadnode@?$_Tree_comp_alloc@V?$_Tmap_traits@PBXUtss_data_node@detail@boost@@U?$less@PBX@std@@V?$allocator@U?$pair@QBXUtss_data_node@detail@boost@@@std@@@5@$0A@@std@@@std@@QAEPAU?$_Tree_node@U?$pair@QBXUtss_data_node@detail@boost@@@std@@PAX@2@XZ 100127a6 f i nav.obj
 0001:000118c4       ?_Erase@?$_Tree@V?$_Tmap_traits@PBXUtss_data_node@detail@boost@@U?$less@PBX@std@@V?$allocator@U?$pair@QBXUtss_data_node@detail@boost@@@std@@@5@$0A@@std@@@std@@IAEXPAU?$_Tree_node@U?$pair@QBXUtss_data_node@detail@boost@@@std@@PAX@2@@Z 100128c4 f i nav.obj
 0001:00011947       ?max_size@?$allocator@U?$pair@PAVcondition_variable@boost@@PAVmutex@2@@std@@@std@@QBEIXZ 10012947 f i nav.obj
 0001:00011957       ?allocate@?$_Wrap_alloc@V?$allocator@U?$_Tree_node@U?$pair@QBXUtss_data_node@detail@boost@@@std@@PAX@std@@@std@@@std@@QAEPAU?$_Tree_node@U?$pair@QBXUtss_data_node@detail@boost@@@std@@PAX@2@I@Z 10012957 f i nav.obj
 0001:0001196f       ?allocate@?$allocator@U?$_Tree_node@U?$pair@QBXUtss_data_node@detail@boost@@@std@@PAX@std@@@std@@QAEPAU?$_Tree_node@U?$pair@QBXUtss_data_node@detail@boost@@@std@@PAX@2@I@Z 1001296f f i nav.obj
 0001:0001198b       ??$throw_exception@Vthread_resource_error@boost@@@boost@@YAXABVthread_resource_error@0@@Z 1001298b f i nav.obj
 0001:00011a14       ??$throw_exception@Vbad_alloc@std@@@boost@@YAXABVbad_alloc@std@@@Z 10012a14 f i nav.obj
 0001:00011a94       ??$?0AAPAVcondition_variable@boost@@AAPAVmutex@1@X$0A@@?$pair@PAVcondition_variable@boost@@PAVmutex@2@@std@@QAE@AAPAVcondition_variable@boost@@AAPAVmutex@3@@Z 10012a94 f i nav.obj
 0001:00011ac5       ?IsValidIndex@?$CUtlVector@PAVNode@@V?$CUtlMemory@PAVNode@@H@@@@QBE_NH@Z 10012ac5 f i nav.obj
 0001:00011af4       ?AddToHead@?$CUtlVector@PAVNode@@V?$CUtlMemory@PAVNode@@H@@@@QAEHABQAVNode@@@Z 10012af4 f i nav.obj
 0001:00011b0e       ?EnsureCapacity@?$CUtlVector@PAVNode@@V?$CUtlMemory@PAVNode@@H@@@@QAEXH@Z 10012b0e f i nav.obj
 0001:00011b2e       ?FindAndRemove@?$CUtlVector@PAVNode@@V?$CUtlMemory@PAVNode@@H@@@@QAE_NABQAVNode@@@Z 10012b2e f i nav.obj
 0001:00011b61       ??0?$CUtlLinkedList@UAirSeedSpot@@H$0A@HV?$CUtlMemory@U?$UtlLinkedListElem_t@UAirSeedSpot@@H@@H@@@@QAE@HH@Z 10012b61 f i nav.obj
 0001:00011b61       ??0?$CUtlLinkedList@UGroundSeedSpot@@H$0A@HV?$CUtlMemory@U?$UtlLinkedListElem_t@UGroundSeedSpot@@H@@H@@@@QAE@HH@Z 10012b61 f i nav.obj
 0001:00011bd0       ??1?$CUtlLinkedList@UGroundSeedSpot@@H$0A@HV?$CUtlMemory@U?$UtlLinkedListElem_t@UGroundSeedSpot@@H@@H@@@@QAE@XZ 10012bd0 f i nav.obj
 0001:00011bd0       ??1?$CUtlLinkedList@UAirSeedSpot@@H$0A@HV?$CUtlMemory@U?$UtlLinkedListElem_t@UAirSeedSpot@@H@@H@@@@QAE@XZ 10012bd0 f i nav.obj
 0001:00011c15       ?InternalElement@?$CUtlLinkedList@UAirSeedSpot@@H$0A@HV?$CUtlMemory@U?$UtlLinkedListElem_t@UAirSeedSpot@@H@@H@@@@IAEAAU?$UtlLinkedListElem_t@UAirSeedSpot@@H@@H@Z 10012c15 f i nav.obj
 0001:00011c15       ?Element@?$CUtlLinkedList@UGroundSeedSpot@@H$0A@HV?$CUtlMemory@U?$UtlLinkedListElem_t@UGroundSeedSpot@@H@@H@@@@QAEAAUGroundSeedSpot@@H@Z 10012c15 f i nav.obj
 0001:00011c15       ?InternalElement@?$CUtlLinkedList@UGroundSeedSpot@@H$0A@HV?$CUtlMemory@U?$UtlLinkedListElem_t@UGroundSeedSpot@@H@@H@@@@IBEABU?$UtlLinkedListElem_t@UGroundSeedSpot@@H@@H@Z 10012c15 f i nav.obj
 0001:00011c15       ?Element@?$CUtlLinkedList@UAirSeedSpot@@H$0A@HV?$CUtlMemory@U?$UtlLinkedListElem_t@UAirSeedSpot@@H@@H@@@@QAEAAUAirSeedSpot@@H@Z 10012c15 f i nav.obj
 0001:00011c15       ?InternalElement@?$CUtlLinkedList@UGroundSeedSpot@@H$0A@HV?$CUtlMemory@U?$UtlLinkedListElem_t@UGroundSeedSpot@@H@@H@@@@IAEAAU?$UtlLinkedListElem_t@UGroundSeedSpot@@H@@H@Z 10012c15 f i nav.obj
 0001:00011c15       ?InternalElement@?$CUtlLinkedList@UAirSeedSpot@@H$0A@HV?$CUtlMemory@U?$UtlLinkedListElem_t@UAirSeedSpot@@H@@H@@@@IBEABU?$UtlLinkedListElem_t@UAirSeedSpot@@H@@H@Z 10012c15 f i nav.obj
 0001:00011c2d       ?EnsureCapacity@?$CUtlLinkedList@UAirSeedSpot@@H$0A@HV?$CUtlMemory@U?$UtlLinkedListElem_t@UAirSeedSpot@@H@@H@@@@QAEXH@Z 10012c2d f i nav.obj
 0001:00011c2d       ?EnsureCapacity@?$CUtlLinkedList@UGroundSeedSpot@@H$0A@HV?$CUtlMemory@U?$UtlLinkedListElem_t@UGroundSeedSpot@@H@@H@@@@QAEXH@Z 10012c2d f i nav.obj
 0001:00011c4d       ?AddToTail@?$CUtlLinkedList@UGroundSeedSpot@@H$0A@HV?$CUtlMemory@U?$UtlLinkedListElem_t@UGroundSeedSpot@@H@@H@@@@QAEHABUGroundSeedSpot@@@Z 10012c4d f i nav.obj
 0001:00011c6b       ?RemoveAll@?$CUtlLinkedList@UAirSeedSpot@@H$0A@HV?$CUtlMemory@U?$UtlLinkedListElem_t@UAirSeedSpot@@H@@H@@@@QAEXXZ 10012c6b f i nav.obj
 0001:00011c6b       ?RemoveAll@?$CUtlLinkedList@UGroundSeedSpot@@H$0A@HV?$CUtlMemory@U?$UtlLinkedListElem_t@UGroundSeedSpot@@H@@H@@@@QAEXXZ 10012c6b f i nav.obj
 0001:00011e0b       ?Next@?$CUtlLinkedList@UGroundSeedSpot@@H$0A@HV?$CUtlMemory@U?$UtlLinkedListElem_t@UGroundSeedSpot@@H@@H@@@@QBEHH@Z 10012e0b f i nav.obj
 0001:00011e0b       ?Next@?$CUtlLinkedList@UAirSeedSpot@@H$0A@HV?$CUtlMemory@U?$UtlLinkedListElem_t@UAirSeedSpot@@H@@H@@@@QBEHH@Z 10012e0b f i nav.obj
 0001:00011e26       ?IsValidIndex@?$CUtlLinkedList@UGroundSeedSpot@@H$0A@HV?$CUtlMemory@U?$UtlLinkedListElem_t@UGroundSeedSpot@@H@@H@@@@QBE_NH@Z 10012e26 f i nav.obj
 0001:00011e26       ?IsValidIndex@?$CUtlLinkedList@UAirSeedSpot@@H$0A@HV?$CUtlMemory@U?$UtlLinkedListElem_t@UAirSeedSpot@@H@@H@@@@QBE_NH@Z 10012e26 f i nav.obj
 0001:00011e9d       ?AddToTail@?$CUtlLinkedList@UAirSeedSpot@@H$0A@HV?$CUtlMemory@U?$UtlLinkedListElem_t@UAirSeedSpot@@H@@H@@@@QAEHABUAirSeedSpot@@@Z 10012e9d f i nav.obj
 0001:00011ebb       ??$?0P8Nav@@AEXPA_N@ZPAV0@PA_N@thread@boost@@QAE@P8Nav@@AEXPA_N@ZPAV2@0@Z 10012ebb f i nav.obj
 0001:00011f2a       ??$?0P8Nav@@AEXPAUJobInfo_t@@PAVNode@@1@ZPAV0@PAU1@PAV2@PAV2@@thread@boost@@QAE@P8Nav@@AEXPAUJobInfo_t@@PAVNode@@1@ZPAV2@011@Z 10012f2a f i nav.obj
 0001:00011f9f       ??$construct@U?$pair@PAVcondition_variable@boost@@PAVmutex@2@@std@@U12@@?$_Wrap_alloc@V?$allocator@U?$pair@PAVcondition_variable@boost@@PAVmutex@2@@std@@@std@@@std@@QAEXPAU?$pair@PAVcondition_variable@boost@@PAVmutex@2@@1@$$QAU21@@Z 10012f9f f i nav.obj
 0001:00011fc4       ??$?0U?$_Wrap_alloc@V?$allocator@D@std@@@std@@X@?$_String_alloc@U?$_String_base_types@DV?$allocator@D@std@@@std@@@std@@QAE@$$QAU?$_Wrap_alloc@V?$allocator@D@std@@@1@@Z 10012fc4 f i nav.obj
 0001:00011fea       ??$?0$$V@?$_Compressed_pair@U?$_Wrap_alloc@V?$allocator@V?$shared_ptr@Ushared_state_base@detail@boost@@@boost@@@std@@@std@@V?$_Vector_val@U?$_Simple_types@V?$shared_ptr@Ushared_state_base@detail@boost@@@boost@@@std@@@2@$00@std@@QAE@U_Zero_then_variadic_args_t@1@@Z 10012fea f i nav.obj
 0001:00011fea       ??$?0$$V@?$_Compressed_pair@U?$_Wrap_alloc@V?$allocator@U?$pair@PAVcondition_variable@boost@@PAVmutex@2@@std@@@std@@@std@@V?$_Vector_val@U?$_Simple_types@U?$pair@PAVcondition_variable@boost@@PAVmutex@2@@std@@@std@@@2@$00@std@@QAE@U_Zero_then_variadic_args_t@1@@Z 10012fea f i nav.obj
 0001:0001200a       ??$?0V?$allocator@D@std@@@?$_Wrap_alloc@V?$allocator@D@std@@@std@@QAE@$$QAV?$allocator@D@1@@Z 1001300a f i nav.obj
 0001:0001200a       ??0?$_Wrap_alloc@V?$allocator@D@std@@@std@@QAE@$$QAU01@@Z 1001300a f i nav.obj
 0001:0001202c       ??$_Destroy_range@U?$_Wrap_alloc@V?$allocator@V?$shared_ptr@Ushared_state_base@detail@boost@@@boost@@@std@@@std@@@std@@YAXPAV?$shared_ptr@Ushared_state_base@detail@boost@@@boost@@0AAU?$_Wrap_alloc@V?$allocator@V?$shared_ptr@Ushared_state_base@detail@boost@@@boost@@@std@@@0@@Z 1001302c f i nav.obj
 0001:00012058       ??$_Umove@PAU?$pair@PAVcondition_variable@boost@@PAVmutex@2@@std@@@?$vector@U?$pair@PAVcondition_variable@boost@@PAVmutex@2@@std@@V?$allocator@U?$pair@PAVcondition_variable@boost@@PAVmutex@2@@std@@@2@@std@@IAEPAU?$pair@PAVcondition_variable@boost@@PAVmutex@2@@1@PAU21@00@Z 10013058 f i nav.obj
 0001:0001207f       ??$_Destroy_range@U?$_Wrap_alloc@V?$allocator@U?$pair@PAVcondition_variable@boost@@PAVmutex@2@@std@@@std@@@std@@@std@@YAXPAU?$pair@PAVcondition_variable@boost@@PAVmutex@2@@0@0AAU?$_Wrap_alloc@V?$allocator@U?$pair@PAVcondition_variable@boost@@PAVmutex@2@@std@@@std@@@0@@Z 1001307f f i nav.obj
 0001:000120ab       ??$destroy@U?$pair@QBXUtss_data_node@detail@boost@@@std@@@?$_Wrap_alloc@V?$allocator@U?$_Tree_node@U?$pair@QBXUtss_data_node@detail@boost@@@std@@PAX@std@@@std@@@std@@QAEXPAU?$pair@QBXUtss_data_node@detail@boost@@@1@@Z 100130ab f i nav.obj
 0001:000120c5       ??_D?$clone_impl@U?$error_info_injector@Vthread_resource_error@boost@@@exception_detail@boost@@@exception_detail@boost@@QAEXXZ 100130c5 f i nav.obj
 0001:000120e3       ??0?$clone_impl@U?$error_info_injector@Vthread_resource_error@boost@@@exception_detail@boost@@@exception_detail@boost@@QAE@ABV012@@Z 100130e3 f i nav.obj
 0001:000121b4       ??0?$error_info_injector@Vthread_resource_error@boost@@@exception_detail@boost@@QAE@ABU012@@Z 100131b4 f i nav.obj
 0001:00012238       ??0thread_resource_error@boost@@QAE@ABV01@@Z 10013238 f i nav.obj
 0001:0001225c       ??0thread_exception@boost@@QAE@ABV01@@Z 1001325c f i nav.obj
 0001:00012280       ??0system_error@system@boost@@QAE@ABV012@@Z 10013280 f i nav.obj
 0001:000122fa       ??_D?$clone_impl@U?$error_info_injector@Vbad_alloc@std@@@exception_detail@boost@@@exception_detail@boost@@QAEXXZ 100132fa f i nav.obj
 0001:00012318       ??0?$clone_impl@U?$error_info_injector@Vbad_alloc@std@@@exception_detail@boost@@@exception_detail@boost@@QAE@ABV012@@Z 10013318 f i nav.obj
 0001:000123e9       ??0?$error_info_injector@Vbad_alloc@std@@@exception_detail@boost@@QAE@ABU012@@Z 100133e9 f i nav.obj
 0001:0001246d       ??0bad_alloc@std@@QAE@ABV01@@Z 1001346d f i nav.obj
 0001:00012491       ??_G?$clone_impl@U?$error_info_injector@Vthread_resource_error@boost@@@exception_detail@boost@@@exception_detail@boost@@UAEPAXI@Z 10013491 f i nav.obj
 0001:00012491       ??_E?$clone_impl@U?$error_info_injector@Vthread_resource_error@boost@@@exception_detail@boost@@@exception_detail@boost@@UAEPAXI@Z 10013491 f i * CIL library *:* CIL module *
 0001:000124bd       ??_E?$error_info_injector@Vthread_resource_error@boost@@@exception_detail@boost@@UAEPAXI@Z 100134bd f i * CIL library *:* CIL module *
 0001:000124bd       ??_G?$error_info_injector@Vthread_resource_error@boost@@@exception_detail@boost@@UAEPAXI@Z 100134bd f i nav.obj
 0001:000124e9       ??_E?$clone_impl@U?$error_info_injector@Vbad_alloc@std@@@exception_detail@boost@@@exception_detail@boost@@UAEPAXI@Z 100134e9 f i * CIL library *:* CIL module *
 0001:000124e9       ??_G?$clone_impl@U?$error_info_injector@Vbad_alloc@std@@@exception_detail@boost@@@exception_detail@boost@@UAEPAXI@Z 100134e9 f i nav.obj
 0001:00012515       ??_G?$error_info_injector@Vbad_alloc@std@@@exception_detail@boost@@UAEPAXI@Z 10013515 f i nav.obj
 0001:00012515       ??_E?$error_info_injector@Vbad_alloc@std@@@exception_detail@boost@@UAEPAXI@Z 10013515 f i * CIL library *:* CIL module *
 0001:00012541       ?rethrow@?$clone_impl@U?$error_info_injector@Vbad_alloc@std@@@exception_detail@boost@@@exception_detail@boost@@EBEXXZ 10013541 f i nav.obj
 0001:0001256d       ?clone@?$clone_impl@U?$error_info_injector@Vbad_alloc@std@@@exception_detail@boost@@@exception_detail@boost@@EBEPBVclone_base@23@XZ 1001356d f i nav.obj
 0001:00012602       ??1?$clone_impl@U?$error_info_injector@Vbad_alloc@std@@@exception_detail@boost@@@exception_detail@boost@@UAE@XZ 10013602 f i nav.obj
 0001:00012658       ??1?$error_info_injector@Vbad_alloc@std@@@exception_detail@boost@@UAE@XZ 10013658 f i nav.obj
 0001:00012689       ?rethrow@?$clone_impl@U?$error_info_injector@Vthread_resource_error@boost@@@exception_detail@boost@@@exception_detail@boost@@EBEXXZ 10013689 f i nav.obj
 0001:000126c9       ?clone@?$clone_impl@U?$error_info_injector@Vthread_resource_error@boost@@@exception_detail@boost@@@exception_detail@boost@@EBEPBVclone_base@23@XZ 100136c9 f i nav.obj
 0001:0001275e       ??1?$clone_impl@U?$error_info_injector@Vthread_resource_error@boost@@@exception_detail@boost@@@exception_detail@boost@@UAE@XZ 1001375e f i nav.obj
 0001:000127b4       ??1?$error_info_injector@Vthread_resource_error@boost@@@exception_detail@boost@@UAE@XZ 100137b4 f i nav.obj
 0001:000127e5       ??9Iterator_t@?$CUtlMemory@U?$UtlLinkedListElem_t@UGroundSeedSpot@@H@@H@@QBE_NV01@@Z 100137e5 f i nav.obj
 0001:000127e5       ??9Iterator_t@?$CUtlMemory@U?$UtlLinkedListElem_t@UAirSeedSpot@@H@@H@@QBE_NV01@@Z 100137e5 f i nav.obj
 0001:0001280d       ??8Iterator_t@?$CUtlMemory@U?$UtlLinkedListElem_t@UGroundSeedSpot@@H@@H@@QBE_NV01@@Z 1001380d f i nav.obj
 0001:0001280d       ??8Iterator_t@?$CUtlMemory@U?$UtlLinkedListElem_t@UAirSeedSpot@@H@@H@@QBE_NV01@@Z 1001380d f i nav.obj
 0001:00012835       ?ResetDbgInfo@?$CUtlLinkedList@UAirSeedSpot@@H$0A@HV?$CUtlMemory@U?$UtlLinkedListElem_t@UAirSeedSpot@@H@@H@@@@IAEXXZ 10013835 f i nav.obj
 0001:00012835       ?ResetDbgInfo@?$CUtlLinkedList@UGroundSeedSpot@@H$0A@HV?$CUtlMemory@U?$UtlLinkedListElem_t@UGroundSeedSpot@@H@@H@@@@IAEXXZ 10013835 f i nav.obj
 0001:0001284e       ?InvalidIndex@?$CUtlLinkedList@UGroundSeedSpot@@H$0A@HV?$CUtlMemory@U?$UtlLinkedListElem_t@UGroundSeedSpot@@H@@H@@@@SAHXZ 1001384e f i nav.obj
 0001:0001284e       ?InvalidIndex@?$CUtlLinkedList@UAirSeedSpot@@H$0A@HV?$CUtlMemory@U?$UtlLinkedListElem_t@UAirSeedSpot@@H@@H@@@@SAHXZ 1001384e f i nav.obj
 0001:00012858       ?InvalidIterator@?$CUtlMemory@U?$UtlLinkedListElem_t@UGroundSeedSpot@@H@@H@@QBE?AVIterator_t@1@XZ 10013858 f i nav.obj
 0001:00012858       ?InvalidIterator@?$CUtlMemory@U?$UtlLinkedListElem_t@UAirSeedSpot@@H@@H@@QBE?AVIterator_t@1@XZ 10013858 f i nav.obj
 0001:00012876       ?IsIdxAfter@?$CUtlMemory@U?$UtlLinkedListElem_t@UAirSeedSpot@@H@@H@@QBE_NHABVIterator_t@1@@Z 10013876 f i nav.obj
 0001:00012876       ?IsIdxAfter@?$CUtlMemory@U?$UtlLinkedListElem_t@UGroundSeedSpot@@H@@H@@QBE_NHABVIterator_t@1@@Z 10013876 f i nav.obj
 0001:0001289e       ?GetIndex@?$CUtlMemory@U?$UtlLinkedListElem_t@UGroundSeedSpot@@H@@H@@QBEHABVIterator_t@1@@Z 1001389e f i nav.obj
 0001:0001289e       ?GetIndex@?$CUtlMemory@U?$UtlLinkedListElem_t@UAirSeedSpot@@H@@H@@QBEHABVIterator_t@1@@Z 1001389e f i nav.obj
 0001:000128b0       ?Next@?$CUtlMemory@U?$UtlLinkedListElem_t@UAirSeedSpot@@H@@H@@QBE?AVIterator_t@1@ABV21@@Z 100138b0 f i nav.obj
 0001:000128b0       ?Next@?$CUtlMemory@U?$UtlLinkedListElem_t@UGroundSeedSpot@@H@@H@@QBE?AVIterator_t@1@ABV21@@Z 100138b0 f i nav.obj
 0001:000128f5       ?First@?$CUtlMemory@U?$UtlLinkedListElem_t@UAirSeedSpot@@H@@H@@QBE?AVIterator_t@1@XZ 100138f5 f i nav.obj
 0001:000128f5       ?First@?$CUtlMemory@U?$UtlLinkedListElem_t@UGroundSeedSpot@@H@@H@@QBE?AVIterator_t@1@XZ 100138f5 f i nav.obj
 0001:00012930       ??0?$_Vector_val@U?$_Simple_types@U?$pair@PAVcondition_variable@boost@@PAVmutex@2@@std@@@std@@@std@@QAE@XZ 10013930 f i nav.obj
 0001:00012930       ??0?$_Vector_val@U?$_Simple_types@V?$shared_ptr@Ushared_state_base@detail@boost@@@boost@@@std@@@std@@QAE@XZ 10013930 f i nav.obj
 0001:00012952       ??0?$clone_impl@U?$error_info_injector@Vbad_alloc@std@@@exception_detail@boost@@@exception_detail@boost@@AAE@ABV012@Uclone_tag@012@@Z 10013952 f i nav.obj
 0001:00012a4a       ??0?$clone_impl@U?$error_info_injector@Vthread_resource_error@boost@@@exception_detail@boost@@@exception_detail@boost@@AAE@ABV012@Uclone_tag@012@@Z 10013a4a f i nav.obj
 0001:00012b42       ?EnsureCapacity@?$CUtlMemory@PAVNode@@H@@QAEXH@Z 10013b42 f i nav.obj
 0001:00012bcb       ?Find@?$CUtlVector@PAVNode@@V?$CUtlMemory@PAVNode@@H@@@@QBEHABQAVNode@@@Z 10013bcb f i nav.obj
 0001:00012c11       ??0?$CUtlMemory@U?$UtlLinkedListElem_t@UGroundSeedSpot@@H@@H@@QAE@HH@Z 10013c11 f i nav.obj
 0001:00012c11       ??0?$CUtlMemory@U?$UtlLinkedListElem_t@UAirSeedSpot@@H@@H@@QAE@HH@Z 10013c11 f i nav.obj
 0001:00012c6d       ??A?$CUtlMemory@U?$UtlLinkedListElem_t@UGroundSeedSpot@@H@@H@@QBEABU?$UtlLinkedListElem_t@UGroundSeedSpot@@H@@H@Z 10013c6d f i nav.obj
 0001:00012c6d       ??A?$CUtlMemory@U?$UtlLinkedListElem_t@UAirSeedSpot@@H@@H@@QBEABU?$UtlLinkedListElem_t@UAirSeedSpot@@H@@H@Z 10013c6d f i nav.obj
 0001:00012c6d       ??A?$CUtlMemory@U?$UtlLinkedListElem_t@UGroundSeedSpot@@H@@H@@QAEAAU?$UtlLinkedListElem_t@UGroundSeedSpot@@H@@H@Z 10013c6d f i nav.obj
 0001:00012c6d       ??A?$CUtlMemory@U?$UtlLinkedListElem_t@UAirSeedSpot@@H@@H@@QAEAAU?$UtlLinkedListElem_t@UAirSeedSpot@@H@@H@Z 10013c6d f i nav.obj
 0001:00012c85       ?IsIdxValid@?$CUtlMemory@U?$UtlLinkedListElem_t@UGroundSeedSpot@@H@@H@@QBE_NH@Z 10013c85 f i nav.obj
 0001:00012c85       ?IsIdxValid@?$CUtlMemory@U?$UtlLinkedListElem_t@UAirSeedSpot@@H@@H@@QBE_NH@Z 10013c85 f i nav.obj
 0001:00012cae       ?EnsureCapacity@?$CUtlMemory@U?$UtlLinkedListElem_t@UGroundSeedSpot@@H@@H@@QAEXH@Z 10013cae f i nav.obj
 0001:00012cae       ?EnsureCapacity@?$CUtlMemory@U?$UtlLinkedListElem_t@UAirSeedSpot@@H@@H@@QAEXH@Z 10013cae f i nav.obj
 0001:00012d37       ?InsertBefore@?$CUtlLinkedList@UGroundSeedSpot@@H$0A@HV?$CUtlMemory@U?$UtlLinkedListElem_t@UGroundSeedSpot@@H@@H@@@@QAEHHABUGroundSeedSpot@@@Z 10013d37 f i nav.obj
 0001:00012d88       ?ConstructList@?$CUtlLinkedList@UGroundSeedSpot@@H$0A@HV?$CUtlMemory@U?$UtlLinkedListElem_t@UGroundSeedSpot@@H@@H@@@@IAEXXZ 10013d88 f i nav.obj
 0001:00012d88       ?ConstructList@?$CUtlLinkedList@UAirSeedSpot@@H$0A@HV?$CUtlMemory@U?$UtlLinkedListElem_t@UAirSeedSpot@@H@@H@@@@IAEXXZ 10013d88 f i nav.obj
 0001:00012dc2       ?InsertBefore@?$CUtlLinkedList@UAirSeedSpot@@H$0A@HV?$CUtlMemory@U?$UtlLinkedListElem_t@UAirSeedSpot@@H@@H@@@@QAEHHABUAirSeedSpot@@@Z 10013dc2 f i nav.obj
 0001:00012e13       ??$enable_error_info@Vthread_resource_error@boost@@@boost@@YA?AU?$error_info_injector@Vthread_resource_error@boost@@@exception_detail@0@ABVthread_resource_error@0@@Z 10013e13 f i nav.obj
 0001:00012e36       ??$enable_current_exception@U?$error_info_injector@Vthread_resource_error@boost@@@exception_detail@boost@@@boost@@YA?AV?$clone_impl@U?$error_info_injector@Vthread_resource_error@boost@@@exception_detail@boost@@@exception_detail@0@ABU?$error_info_injector@Vthread_resource_error@boost@@@20@@Z 10013e36 f i nav.obj
 0001:00012e5b       ??$enable_error_info@Vbad_alloc@std@@@boost@@YA?AU?$error_info_injector@Vbad_alloc@std@@@exception_detail@0@ABVbad_alloc@std@@@Z 10013e5b f i nav.obj
 0001:00012e7e       ??$enable_current_exception@U?$error_info_injector@Vbad_alloc@std@@@exception_detail@boost@@@boost@@YA?AV?$clone_impl@U?$error_info_injector@Vbad_alloc@std@@@exception_detail@boost@@@exception_detail@0@ABU?$error_info_injector@Vbad_alloc@std@@@20@@Z 10013e7e f i nav.obj
 0001:00012ea3       ??$bind@XXVNav@@PA_NPAV1@PA_N@boost@@YA?AV?$bind_t@XV?$mf1@XVNav@@PA_N@_mfi@boost@@V?$list2@V?$value@PAVNav@@@_bi@boost@@V?$value@PA_N@23@@_bi@3@@_bi@0@U?$type@X@0@P8Nav@@AEXPA_N@ZPAV4@1@Z 10013ea3 f i nav.obj
 0001:00012ee6       ??$make_thread_info@V?$bind_t@XV?$mf1@XVNav@@PA_N@_mfi@boost@@V?$list2@V?$value@PAVNav@@@_bi@boost@@V?$value@PA_N@23@@_bi@3@@_bi@boost@@@thread@boost@@CA?AV?$intrusive_ptr@Uthread_data_base@detail@boost@@@1@$$QAV?$bind_t@XV?$mf1@XVNav@@PA_N@_mfi@boost@@V?$list2@V?$value@PAVNav@@@_bi@boost@@V?$value@PA_N@23@@_bi@3@@_bi@1@@Z 10013ee6 f i nav.obj
 0001:00012f19       ??$bind@XXVNav@@PAUJobInfo_t@@PAVNode@@PAV3@PAV1@PAU2@PAV3@PAV3@@boost@@YA?AV?$bind_t@XV?$mf3@XVNav@@PAUJobInfo_t@@PAVNode@@PAV3@@_mfi@boost@@V?$list4@V?$value@PAVNav@@@_bi@boost@@V?$value@PAUJobInfo_t@@@23@V?$value@PAVNode@@@23@V523@@_bi@3@@_bi@0@U?$type@X@0@P8Nav@@AEXPAUJobInfo_t@@PAVNode@@2@ZPAV4@122@Z 10013f19 f i nav.obj
 0001:00012f74       ??$make_thread_info@V?$bind_t@XV?$mf3@XVNav@@PAUJobInfo_t@@PAVNode@@PAV3@@_mfi@boost@@V?$list4@V?$value@PAVNav@@@_bi@boost@@V?$value@PAUJobInfo_t@@@23@V?$value@PAVNode@@@23@V523@@_bi@3@@_bi@boost@@@thread@boost@@CA?AV?$intrusive_ptr@Uthread_data_base@detail@boost@@@1@$$QAV?$bind_t@XV?$mf3@XVNav@@PAUJobInfo_t@@PAVNode@@PAV3@@_mfi@boost@@V?$list4@V?$value@PAVNav@@@_bi@boost@@V?$value@PAUJobInfo_t@@@23@V?$value@PAVNode@@@23@V523@@_bi@3@@_bi@1@@Z 10013f74 f i nav.obj
 0001:00012fa7       ??$construct@U?$pair@PAVcondition_variable@boost@@PAVmutex@2@@std@@U12@@?$allocator_traits@V?$allocator@U?$pair@PAVcondition_variable@boost@@PAVmutex@2@@std@@@std@@@std@@SAXAAV?$allocator@U?$pair@PAVcondition_variable@boost@@PAVmutex@2@@std@@@1@PAU?$pair@PAVcondition_variable@boost@@PAVmutex@2@@1@$$QAU31@@Z 10013fa7 f i nav.obj
 0001:00012fc1       ??$?0U?$_Wrap_alloc@V?$allocator@D@std@@@std@@$$V@?$_Compressed_pair@U?$_Wrap_alloc@V?$allocator@D@std@@@std@@V?$_String_val@U?$_Simple_types@D@std@@@2@$00@std@@QAE@U_One_then_variadic_args_t@1@$$QAU?$_Wrap_alloc@V?$allocator@D@std@@@1@@Z 10013fc1 f i nav.obj
 0001:00012feb       ??$destroy@V?$shared_ptr@Ushared_state_base@detail@boost@@@boost@@@?$_Wrap_alloc@V?$allocator@V?$shared_ptr@Ushared_state_base@detail@boost@@@boost@@@std@@@std@@QAEXPAV?$shared_ptr@Ushared_state_base@detail@boost@@@boost@@@Z 10013feb f i nav.obj
 0001:00013005       ??$_Uninitialized_move@PAU?$pair@PAVcondition_variable@boost@@PAVmutex@2@@std@@PAU12@U?$_Wrap_alloc@V?$allocator@U?$pair@PAVcondition_variable@boost@@PAVmutex@2@@std@@@std@@@2@@std@@YAPAU?$pair@PAVcondition_variable@boost@@PAVmutex@2@@0@PAU10@00AAU?$_Wrap_alloc@V?$allocator@U?$pair@PAVcondition_variable@boost@@PAVmutex@2@@std@@@std@@@0@@Z 10014005 f i nav.obj
 0001:00013041       ??$destroy@U?$pair@QBXUtss_data_node@detail@boost@@@std@@@?$allocator_traits@V?$allocator@U?$_Tree_node@U?$pair@QBXUtss_data_node@detail@boost@@@std@@PAX@std@@@std@@@std@@SAXAAV?$allocator@U?$_Tree_node@U?$pair@QBXUtss_data_node@detail@boost@@@std@@PAX@std@@@1@PAU?$pair@QBXUtss_data_node@detail@boost@@@1@@Z 10014041 f i nav.obj
 0001:00013051       ?run@?$thread_data@V?$bind_t@XV?$mf3@XVNav@@PAUJobInfo_t@@PAVNode@@PAV3@@_mfi@boost@@V?$list4@V?$value@PAVNav@@@_bi@boost@@V?$value@PAUJobInfo_t@@@23@V?$value@PAVNode@@@23@V523@@_bi@3@@_bi@boost@@@detail@boost@@UAEXXZ 10014051 f i nav.obj
 0001:00013067       ?run@?$thread_data@V?$bind_t@XV?$mf1@XVNav@@PA_N@_mfi@boost@@V?$list2@V?$value@PAVNav@@@_bi@boost@@V?$value@PA_N@23@@_bi@3@@_bi@boost@@@detail@boost@@UAEXXZ 10014067 f i nav.obj
 0001:0001307d       ??0?$bind_t@XV?$mf3@XVNav@@PAUJobInfo_t@@PAVNode@@PAV3@@_mfi@boost@@V?$list4@V?$value@PAVNav@@@_bi@boost@@V?$value@PAUJobInfo_t@@@23@V?$value@PAVNode@@@23@V523@@_bi@3@@_bi@boost@@QAE@V?$mf3@XVNav@@PAUJobInfo_t@@PAVNode@@PAV3@@_mfi@2@ABV?$list4@V?$value@PAVNav@@@_bi@boost@@V?$value@PAUJobInfo_t@@@23@V?$value@PAVNode@@@23@V523@@12@@Z 1001407d f i nav.obj
 0001:000130a6       ??0?$list4@V?$value@PAVNav@@@_bi@boost@@V?$value@PAUJobInfo_t@@@23@V?$value@PAVNode@@@23@V523@@_bi@boost@@QAE@V?$value@PAVNav@@@12@V?$value@PAUJobInfo_t@@@12@V?$value@PAVNode@@@12@2@Z 100140a6 f i nav.obj
 0001:000130ca       ??0?$value@PAVNode@@@_bi@boost@@QAE@ABQAVNode@@@Z 100140ca f i nav.obj
 0001:000130ca       ??0?$value@PA_N@_bi@boost@@QAE@ABQA_N@Z 100140ca f i nav.obj
 0001:000130ca       ??0?$value@PAVNav@@@_bi@boost@@QAE@ABQAVNav@@@Z 100140ca f i nav.obj
 0001:000130ca       ??0?$value@PAUJobInfo_t@@@_bi@boost@@QAE@ABQAUJobInfo_t@@@Z 100140ca f i nav.obj
 0001:000130e4       ??0?$bind_t@XV?$mf1@XVNav@@PA_N@_mfi@boost@@V?$list2@V?$value@PAVNav@@@_bi@boost@@V?$value@PA_N@23@@_bi@3@@_bi@boost@@QAE@V?$mf1@XVNav@@PA_N@_mfi@2@ABV?$list2@V?$value@PAVNav@@@_bi@boost@@V?$value@PA_N@23@@12@@Z 100140e4 f i nav.obj
 0001:0001310d       ??0?$list2@V?$value@PAVNav@@@_bi@boost@@V?$value@PA_N@23@@_bi@boost@@QAE@V?$value@PAVNav@@@12@V?$value@PA_N@12@@Z 1001410d f i nav.obj
 0001:0001312b       ??0?$clone_impl@U?$error_info_injector@Vbad_alloc@std@@@exception_detail@boost@@@exception_detail@boost@@QAE@ABU?$error_info_injector@Vbad_alloc@std@@@12@@Z 1001412b f i nav.obj
 0001:00013223       ??0?$error_info_injector@Vbad_alloc@std@@@exception_detail@boost@@QAE@ABVbad_alloc@std@@@Z 10014223 f i nav.obj
 0001:0001328e       ??0?$clone_impl@U?$error_info_injector@Vthread_resource_error@boost@@@exception_detail@boost@@@exception_detail@boost@@QAE@ABU?$error_info_injector@Vthread_resource_error@boost@@@12@@Z 1001428e f i nav.obj
 0001:00013386       ??0?$error_info_injector@Vthread_resource_error@boost@@@exception_detail@boost@@QAE@ABVthread_resource_error@2@@Z 10014386 f i nav.obj
 0001:000133f1       ??0?$storage4@V?$value@PAVNav@@@_bi@boost@@V?$value@PAUJobInfo_t@@@23@V?$value@PAVNode@@@23@V523@@_bi@boost@@QAE@V?$value@PAVNav@@@12@V?$value@PAUJobInfo_t@@@12@V?$value@PAVNode@@@12@2@Z 100143f1 f i nav.obj
 0001:0001341b       ??R?$bind_t@XV?$mf3@XVNav@@PAUJobInfo_t@@PAVNode@@PAV3@@_mfi@boost@@V?$list4@V?$value@PAVNav@@@_bi@boost@@V?$value@PAUJobInfo_t@@@23@V?$value@PAVNode@@@23@V523@@_bi@3@@_bi@boost@@QAEXXZ 1001441b f i nav.obj
 0001:00013447       ??0?$storage2@V?$value@PAVNav@@@_bi@boost@@V?$value@PAUJobInfo_t@@@23@@_bi@boost@@QAE@V?$value@PAVNav@@@12@V?$value@PAUJobInfo_t@@@12@@Z 10014447 f i nav.obj
 0001:00013447       ??0?$storage2@V?$value@PAVNav@@@_bi@boost@@V?$value@PA_N@23@@_bi@boost@@QAE@V?$value@PAVNav@@@12@V?$value@PA_N@12@@Z 10014447 f i nav.obj
 0001:0001346b       ??R?$bind_t@XV?$mf1@XVNav@@PA_N@_mfi@boost@@V?$list2@V?$value@PAVNav@@@_bi@boost@@V?$value@PA_N@23@@_bi@3@@_bi@boost@@QAEXXZ 1001446b f i nav.obj
 0001:00013497       ??0?$storage3@V?$value@PAVNav@@@_bi@boost@@V?$value@PAUJobInfo_t@@@23@V?$value@PAVNode@@@23@@_bi@boost@@QAE@V?$value@PAVNav@@@12@V?$value@PAUJobInfo_t@@@12@V?$value@PAVNode@@@12@@Z 10014497 f i nav.obj
 0001:000134be       ?LinkBefore@?$CUtlLinkedList@UGroundSeedSpot@@H$0A@HV?$CUtlMemory@U?$UtlLinkedListElem_t@UGroundSeedSpot@@H@@H@@@@QAEXHH@Z 100144be f i nav.obj
 0001:000134be       ?LinkBefore@?$CUtlLinkedList@UAirSeedSpot@@H$0A@HV?$CUtlMemory@U?$UtlLinkedListElem_t@UAirSeedSpot@@H@@H@@@@QAEXHH@Z 100144be f i nav.obj
 0001:00013575       ?AllocInternal@?$CUtlLinkedList@UGroundSeedSpot@@H$0A@HV?$CUtlMemory@U?$UtlLinkedListElem_t@UGroundSeedSpot@@H@@H@@@@IAEH_N@Z 10014575 f i nav.obj
 0001:00013750       ?AllocInternal@?$CUtlLinkedList@UAirSeedSpot@@H$0A@HV?$CUtlMemory@U?$UtlLinkedListElem_t@UAirSeedSpot@@H@@H@@@@IAEH_N@Z 10014750 f i nav.obj
 0001:0001392b       ??$CopyConstruct@UAirSeedSpot@@@@YAPAUAirSeedSpot@@PAU0@ABU0@@Z 1001492b f i nav.obj
 0001:0001392b       ??$CopyConstruct@UGroundSeedSpot@@@@YAPAUGroundSeedSpot@@PAU0@ABU0@@Z 1001492b f i nav.obj
 0001:00013967       ??$heap_new@V?$thread_data@V?$bind_t@XV?$mf1@XVNav@@PA_N@_mfi@boost@@V?$list2@V?$value@PAVNav@@@_bi@boost@@V?$value@PA_N@23@@_bi@3@@_bi@boost@@@detail@boost@@V?$bind_t@XV?$mf1@XVNav@@PA_N@_mfi@boost@@V?$list2@V?$value@PAVNav@@@_bi@boost@@V?$value@PA_N@23@@_bi@3@@_bi@3@@detail@boost@@YAPAV?$thread_data@V?$bind_t@XV?$mf1@XVNav@@PA_N@_mfi@boost@@V?$list2@V?$value@PAVNav@@@_bi@boost@@V?$value@PA_N@23@@_bi@3@@_bi@boost@@@01@$$QAV?$bind_t@XV?$mf1@XVNav@@PA_N@_mfi@boost@@V?$list2@V?$value@PAVNav@@@_bi@boost@@V?$value@PA_N@23@@_bi@3@@_bi@1@@Z 10014967 f i nav.obj
 0001:00013a1e       ??$heap_new@V?$thread_data@V?$bind_t@XV?$mf3@XVNav@@PAUJobInfo_t@@PAVNode@@PAV3@@_mfi@boost@@V?$list4@V?$value@PAVNav@@@_bi@boost@@V?$value@PAUJobInfo_t@@@23@V?$value@PAVNode@@@23@V523@@_bi@3@@_bi@boost@@@detail@boost@@V?$bind_t@XV?$mf3@XVNav@@PAUJobInfo_t@@PAVNode@@PAV3@@_mfi@boost@@V?$list4@V?$value@PAVNav@@@_bi@boost@@V?$value@PAUJobInfo_t@@@23@V?$value@PAVNode@@@23@V523@@_bi@3@@_bi@3@@detail@boost@@YAPAV?$thread_data@V?$bind_t@XV?$mf3@XVNav@@PAUJobInfo_t@@PAVNode@@PAV3@@_mfi@boost@@V?$list4@V?$value@PAVNav@@@_bi@boost@@V?$value@PAUJobInfo_t@@@23@V?$value@PAVNode@@@23@V523@@_bi@3@@_bi@boost@@@01@$$QAV?$bind_t@XV?$mf3@XVNav@@PAUJobInfo_t@@PAVNode@@PAV3@@_mfi@boost@@V?$list4@V?$value@PAVNav@@@_bi@boost@@V?$value@PAUJobInfo_t@@@23@V?$value@PAVNode@@@23@V523@@_bi@3@@_bi@1@@Z 10014a1e f i nav.obj
 0001:00013ad5       ??$construct@U?$pair@PAVcondition_variable@boost@@PAVmutex@2@@std@@U12@@?$allocator@U?$pair@PAVcondition_variable@boost@@PAVmutex@2@@std@@@std@@QAEXPAU?$pair@PAVcondition_variable@boost@@PAVmutex@2@@1@$$QAU21@@Z 10014ad5 f i nav.obj
 0001:00013b1b       ??$destroy@V?$shared_ptr@Ushared_state_base@detail@boost@@@boost@@@?$allocator_traits@V?$allocator@V?$shared_ptr@Ushared_state_base@detail@boost@@@boost@@@std@@@std@@SAXAAV?$allocator@V?$shared_ptr@Ushared_state_base@detail@boost@@@boost@@@1@PAV?$shared_ptr@Ushared_state_base@detail@boost@@@boost@@@Z 10014b1b f i nav.obj
 0001:00013b2b       ??$_Uninitialized_move_al_unchecked@PAU?$pair@PAVcondition_variable@boost@@PAVmutex@2@@std@@PAU12@U?$_Wrap_alloc@V?$allocator@U?$pair@PAVcondition_variable@boost@@PAVmutex@2@@std@@@std@@@2@@std@@YAPAU?$pair@PAVcondition_variable@boost@@PAVmutex@2@@0@PAU10@00AAU?$_Wrap_alloc@V?$allocator@U?$pair@PAVcondition_variable@boost@@PAVmutex@2@@std@@@std@@@0@@Z 10014b2b f i nav.obj
 0001:00013b5c       ??$_Rechecked@PAU?$pair@PAVcondition_variable@boost@@PAVmutex@2@@std@@PAU12@@std@@YAAAPAU?$pair@PAVcondition_variable@boost@@PAVmutex@2@@0@AAPAU10@PAU10@@Z 10014b5c f i nav.obj
 0001:00013b6c       ??$destroy@U?$pair@QBXUtss_data_node@detail@boost@@@std@@@?$allocator@U?$_Tree_node@U?$pair@QBXUtss_data_node@detail@boost@@@std@@PAX@std@@@std@@QAEXPAU?$pair@QBXUtss_data_node@detail@boost@@@1@@Z 10014b6c f i nav.obj
 0001:00013b83       ??$?RV?$mf3@XVNav@@PAUJobInfo_t@@PAVNode@@PAV3@@_mfi@boost@@Vlist0@_bi@2@@?$list4@V?$value@PAVNav@@@_bi@boost@@V?$value@PAUJobInfo_t@@@23@V?$value@PAVNode@@@23@V523@@_bi@boost@@QAEXV?$type@X@12@AAV?$mf3@XVNav@@PAUJobInfo_t@@PAVNode@@PAV3@@_mfi@2@AAVlist0@12@H@Z 10014b83 f i nav.obj
 0001:00013be3       ??$?RV?$mf1@XVNav@@PA_N@_mfi@boost@@Vlist0@_bi@2@@?$list2@V?$value@PAVNav@@@_bi@boost@@V?$value@PA_N@23@@_bi@boost@@QAEXV?$type@X@12@AAV?$mf1@XVNav@@PA_N@_mfi@2@AAVlist0@12@H@Z 10014be3 f i nav.obj
 0001:00013c21       ??_G?$pair@QBXUtss_data_node@detail@boost@@@std@@QAEPAXI@Z 10014c21 f i nav.obj
 0001:00013c4d       ??1?$pair@QBXUtss_data_node@detail@boost@@@std@@QAE@XZ 10014c4d f i nav.obj
 0001:00013c63       ??1tss_data_node@detail@boost@@QAE@XZ 10014c63 f i nav.obj
 0001:00013c76       ??0?$thread_data@V?$bind_t@XV?$mf3@XVNav@@PAUJobInfo_t@@PAVNode@@PAV3@@_mfi@boost@@V?$list4@V?$value@PAVNav@@@_bi@boost@@V?$value@PAUJobInfo_t@@@23@V?$value@PAVNode@@@23@V523@@_bi@3@@_bi@boost@@@detail@boost@@QAE@$$QAV?$bind_t@XV?$mf3@XVNav@@PAUJobInfo_t@@PAVNode@@PAV3@@_mfi@boost@@V?$list4@V?$value@PAVNav@@@_bi@boost@@V?$value@PAUJobInfo_t@@@23@V?$value@PAVNode@@@23@V523@@_bi@3@@_bi@2@@Z 10014c76 f i nav.obj
 0001:00013cb1       ??0?$thread_data@V?$bind_t@XV?$mf1@XVNav@@PA_N@_mfi@boost@@V?$list2@V?$value@PAVNav@@@_bi@boost@@V?$value@PA_N@23@@_bi@3@@_bi@boost@@@detail@boost@@QAE@$$QAV?$bind_t@XV?$mf1@XVNav@@PA_N@_mfi@boost@@V?$list2@V?$value@PAVNav@@@_bi@boost@@V?$value@PA_N@23@@_bi@3@@_bi@2@@Z 10014cb1 f i nav.obj
 0001:00013cea       ??R?$mf3@XVNav@@PAUJobInfo_t@@PAVNode@@PAV3@@_mfi@boost@@QBEXPAVNav@@PAUJobInfo_t@@PAVNode@@2@Z 10014cea f i nav.obj
 0001:00013d08       ??R?$mf1@XVNav@@PA_N@_mfi@boost@@QBEXPAVNav@@PA_N@Z 10014d08 f i nav.obj
 0001:00013d20       ?IsValidIterator@?$CUtlMemory@U?$UtlLinkedListElem_t@UAirSeedSpot@@H@@H@@QBE_NABVIterator_t@1@@Z 10014d20 f i nav.obj
 0001:00013d20       ?IsValidIterator@?$CUtlMemory@U?$UtlLinkedListElem_t@UGroundSeedSpot@@H@@H@@QBE_NABVIterator_t@1@@Z 10014d20 f i nav.obj
 0001:00013d3a       ??_G?$thread_data@V?$bind_t@XV?$mf3@XVNav@@PAUJobInfo_t@@PAVNode@@PAV3@@_mfi@boost@@V?$list4@V?$value@PAVNav@@@_bi@boost@@V?$value@PAUJobInfo_t@@@23@V?$value@PAVNode@@@23@V523@@_bi@3@@_bi@boost@@@detail@boost@@UAEPAXI@Z 10014d3a f i nav.obj
 0001:00013d3a       ??_E?$thread_data@V?$bind_t@XV?$mf3@XVNav@@PAUJobInfo_t@@PAVNode@@PAV3@@_mfi@boost@@V?$list4@V?$value@PAVNav@@@_bi@boost@@V?$value@PAUJobInfo_t@@@23@V?$value@PAVNode@@@23@V523@@_bi@3@@_bi@boost@@@detail@boost@@UAEPAXI@Z 10014d3a f i * CIL library *:* CIL module *
 0001:00013d66       ??1?$thread_data@V?$bind_t@XV?$mf1@XVNav@@PA_N@_mfi@boost@@V?$list2@V?$value@PAVNav@@@_bi@boost@@V?$value@PA_N@23@@_bi@3@@_bi@boost@@@detail@boost@@UAE@XZ 10014d66 f i nav.obj
 0001:00013d66       ??1?$thread_data@V?$bind_t@XV?$mf3@XVNav@@PAUJobInfo_t@@PAVNode@@PAV3@@_mfi@boost@@V?$list4@V?$value@PAVNav@@@_bi@boost@@V?$value@PAUJobInfo_t@@@23@V?$value@PAVNode@@@23@V523@@_bi@3@@_bi@boost@@@detail@boost@@UAE@XZ 10014d66 f i nav.obj
 0001:00013d79       ??_E?$thread_data@V?$bind_t@XV?$mf1@XVNav@@PA_N@_mfi@boost@@V?$list2@V?$value@PAVNav@@@_bi@boost@@V?$value@PA_N@23@@_bi@3@@_bi@boost@@@detail@boost@@UAEPAXI@Z 10014d79 f i * CIL library *:* CIL module *
 0001:00013d79       ??_G?$thread_data@V?$bind_t@XV?$mf1@XVNav@@PA_N@_mfi@boost@@V?$list2@V?$value@PAVNav@@@_bi@boost@@V?$value@PA_N@23@@_bi@3@@_bi@boost@@@detail@boost@@UAEPAXI@Z 10014d79 f i nav.obj
 0001:00013da5       ?Grow@?$CUtlMemory@U?$UtlLinkedListElem_t@UGroundSeedSpot@@H@@H@@QAEXH@Z 10014da5 f i nav.obj
 0001:00013da5       ?Grow@?$CUtlMemory@U?$UtlLinkedListElem_t@UAirSeedSpot@@H@@H@@QAEXH@Z 10014da5 f i nav.obj
 0001:00013e90       ?Unlink@?$CUtlLinkedList@UAirSeedSpot@@H$0A@HV?$CUtlMemory@U?$UtlLinkedListElem_t@UAirSeedSpot@@H@@H@@@@QAEXH@Z 10014e90 f i nav.obj
 0001:00013e90       ?Unlink@?$CUtlLinkedList@UGroundSeedSpot@@H$0A@HV?$CUtlMemory@U?$UtlLinkedListElem_t@UGroundSeedSpot@@H@@H@@@@QAEXH@Z 10014e90 f i nav.obj
 0001:00013f45       ?IndexInRange@?$CUtlLinkedList@UAirSeedSpot@@H$0A@HV?$CUtlMemory@U?$UtlLinkedListElem_t@UAirSeedSpot@@H@@H@@@@SA_NH@Z 10014f45 f i nav.obj
 0001:00013f45       ?IndexInRange@?$CUtlLinkedList@UGroundSeedSpot@@H$0A@HV?$CUtlMemory@U?$UtlLinkedListElem_t@UGroundSeedSpot@@H@@H@@@@SA_NH@Z 10014f45 f i nav.obj
 0001:00013f6f       ??$destroy@V?$shared_ptr@Ushared_state_base@detail@boost@@@boost@@@?$allocator@V?$shared_ptr@Ushared_state_base@detail@boost@@@boost@@@std@@QAEXPAV?$shared_ptr@Ushared_state_base@detail@boost@@@boost@@@Z 10014f6f f i nav.obj
 0001:00013f86       ??$_Ptr_move_cat@U?$pair@PAVcondition_variable@boost@@PAVmutex@2@@std@@U12@@std@@YA?AU_General_ptr_iterator_tag@0@ABQAU?$pair@PAVcondition_variable@boost@@PAVmutex@2@@0@0@Z 10014f86 f i nav.obj
 0001:00013f96       ??$_Uninitialized_move_al_unchecked1@PAU?$pair@PAVcondition_variable@boost@@PAVmutex@2@@std@@PAU12@V?$allocator@U?$pair@PAVcondition_variable@boost@@PAVmutex@2@@std@@@2@@std@@YAPAU?$pair@PAVcondition_variable@boost@@PAVmutex@2@@0@PAU10@00AAU?$_Wrap_alloc@V?$allocator@U?$pair@PAVcondition_variable@boost@@PAVmutex@2@@std@@@std@@@0@U_General_ptr_iterator_tag@0@@Z 10014f96 f i nav.obj
 0001:0001404d       ??$?APAVNav@@@list0@_bi@boost@@QBEAAPAVNav@@AAV?$value@PAVNav@@@12@@Z 1001504d f i nav.obj
 0001:0001404d       ??$?APAUJobInfo_t@@@list0@_bi@boost@@QBEAAPAUJobInfo_t@@AAV?$value@PAUJobInfo_t@@@12@@Z 1001504d f i nav.obj
 0001:0001404d       ??$?APA_N@list0@_bi@boost@@QBEAAPA_NAAV?$value@PA_N@12@@Z 1001504d f i nav.obj
 0001:0001404d       ??$?APAVNode@@@list0@_bi@boost@@QBEAAPAVNode@@AAV?$value@PAVNode@@@12@@Z 1001504d f i nav.obj
 0001:00014062       ??_G?$shared_ptr@Ushared_state_base@detail@boost@@@boost@@QAEPAXI@Z 10015062 f i nav.obj
 0001:0001408e       ?IsInList@?$CUtlLinkedList@UAirSeedSpot@@H$0A@HV?$CUtlMemory@U?$UtlLinkedListElem_t@UAirSeedSpot@@H@@H@@@@QBE_NH@Z 1001508e f i nav.obj
 0001:0001408e       ?IsInList@?$CUtlLinkedList@UGroundSeedSpot@@H$0A@HV?$CUtlMemory@U?$UtlLinkedListElem_t@UGroundSeedSpot@@H@@H@@@@QBE_NH@Z 1001508e f i nav.obj
 0001:000140eb       ?Previous@?$CUtlLinkedList@UAirSeedSpot@@H$0A@HV?$CUtlMemory@U?$UtlLinkedListElem_t@UAirSeedSpot@@H@@H@@@@QBEHH@Z 100150eb f i nav.obj
 0001:000140eb       ?Previous@?$CUtlLinkedList@UGroundSeedSpot@@H$0A@HV?$CUtlMemory@U?$UtlLinkedListElem_t@UGroundSeedSpot@@H@@H@@@@QBEHH@Z 100150eb f i nav.obj
 0001:00014106       ??_E?$error_info_injector@Vthread_resource_error@boost@@@exception_detail@boost@@WCM@AEPAXI@Z 10015106 f i nav.obj
 0001:0001410e       ??_E?$clone_impl@U?$error_info_injector@Vbad_alloc@std@@@exception_detail@boost@@@exception_detail@boost@@$4PPPPPPPM@CI@AEPAXI@Z 1001510e f i nav.obj
 0001:00014119       ??_E?$clone_impl@U?$error_info_injector@Vthread_resource_error@boost@@@exception_detail@boost@@@exception_detail@boost@@$4PPPPPPPM@EI@AEPAXI@Z 10015119 f i nav.obj
 0001:00014124       ?rethrow@?$clone_impl@U?$error_info_injector@Vbad_alloc@std@@@exception_detail@boost@@@exception_detail@boost@@$0PPPPPPPM@A@BEXXZ 10015124 f i nav.obj
 0001:0001412c       ??_E?$clone_impl@U?$error_info_injector@Vbad_alloc@std@@@exception_detail@boost@@@exception_detail@boost@@WM@AEPAXI@Z 1001512c f i nav.obj
 0001:00014134       ??_E?$clone_impl@U?$error_info_injector@Vthread_resource_error@boost@@@exception_detail@boost@@@exception_detail@boost@@WCM@AEPAXI@Z 10015134 f i nav.obj
 0001:0001413c       ?rethrow@?$clone_impl@U?$error_info_injector@Vthread_resource_error@boost@@@exception_detail@boost@@@exception_detail@boost@@$0PPPPPPPM@A@BEXXZ 1001513c f i nav.obj
 0001:00014144       ??_E?$error_info_injector@Vbad_alloc@std@@@exception_detail@boost@@WM@AEPAXI@Z 10015144 f i nav.obj
 0001:0001414c       ?clone@?$clone_impl@U?$error_info_injector@Vthread_resource_error@boost@@@exception_detail@boost@@@exception_detail@boost@@$0PPPPPPPM@A@BEPBVclone_base@23@XZ 1001514c f i nav.obj
 0001:00014154       ?clone@?$clone_impl@U?$error_info_injector@Vbad_alloc@std@@@exception_detail@boost@@@exception_detail@boost@@$0PPPPPPPM@A@BEPBVclone_base@23@XZ 10015154 f i nav.obj
 0001:0001415c       ?LUA_GetNode@@YAPAVNode@@PAUlua_State@@H@Z 1001515c f   node.obj
 0001:000141cf       ?LUA_PushNode@@YAXPAUlua_State@@PAVNode@@@Z 100151cf f   node.obj
 0001:00014240       ??0Node@@QAE@ABVVector@@0PAV0@@Z 10015240 f   node.obj
 0001:000142f9       ??1Node@@QAE@XZ            100152f9 f   node.obj
 0001:0001432a       ?ConnectTo@Node@@QAEXPAV1@W4NavDirType@@@Z 1001532a f   node.obj
 0001:00014344       ?GetConnectedNode@Node@@QAEPAV1@W4NavDirType@@@Z 10015344 f   node.obj
 0001:0001435b       ?GetParent@Node@@QAEPAV1@XZ 1001535b f   node.obj
 0001:0001436c       ?MarkAsVisited@Node@@QAEXW4NavDirType@@@Z 1001536c f   node.obj
 0001:00014391       ?HasVisited@Node@@QAE_NW4NavDirType@@@Z 10015391 f   node.obj
 0001:000143b7       ?SetStatus@Node@@QAEXPAV1@MM@Z 100153b7 f   node.obj
 0001:000143e7       ?IsOpened@Node@@QAE_NXZ    100153e7 f   node.obj
 0001:000143f8       ?SetOpened@Node@@QAEX_N@Z  100153f8 f   node.obj
 0001:0001440e       ?IsDisabled@Node@@QAE_NXZ  1001540e f   node.obj
 0001:0001441f       ?SetDisabled@Node@@QAEX_N@Z 1001541f f   node.obj
 0001:00014435       ?IsClosed@Node@@QAE_NXZ    10015435 f   node.obj
 0001:00014446       ?SetClosed@Node@@QAEX_N@Z  10015446 f   node.obj
 0001:0001445c       ?GetAStarParent@Node@@QAEPAV1@XZ 1001545c f   node.obj
 0001:0001446d       ?GetScoreF@Node@@QAEMXZ    1001546d f   node.obj
 0001:0001447e       ?GetScoreG@Node@@QAEMXZ    1001547e f   node.obj
 0001:0001448f       ?GetID@Node@@QAEHXZ        1001548f f   node.obj
 0001:000144a0       ?SetID@Node@@QAEXH@Z       100154a0 f   node.obj
 0001:000144b6       ?SetNormal@Node@@QAEXABVVector@@@Z 100154b6 f   node.obj
 0001:000144d1       ?SetPosition@Node@@QAEXABVVector@@@Z 100154d1 f   node.obj
 0001:000144f0       ?CreateInterfaceInternal@@YAPAXPBDPAH@Z 100154f0 f   tier1:interface.obj
 0001:00014560       ?Sys_GetFactory@@YAP6APAXPBDPAH@Z0@Z 10015560 f   tier1:interface.obj
 0001:00014580       _CreateInterface           10015580 f   tier1:interface.obj
 0001:00014590       ?V_snprintf@@YAHPADHPBDZZ  10015590 f   tier1:strtools.obj
 0001:000145bf       __vsnprintf_l              100155bf f i legacy_stdio_definitions:legacy_stdio_definitions.obj
 0001:000145f0       __vsnprintf                100155f0 f i legacy_stdio_definitions:legacy_stdio_definitions.obj
 0001:0001460b       ??0length_error@std@@QAE@ABV01@@Z 1001560b f i libcpmt:xthrow.obj
 0001:00014626       ??0length_error@std@@QAE@PBD@Z 10015626 f i libcpmt:xthrow.obj
 0001:00014647       ??0out_of_range@std@@QAE@PBD@Z 10015647 f i libcpmt:xthrow.obj
 0001:00014668       ??1bad_array_new_length@std@@UAE@XZ 10015668 f i LIBCMT:throw_bad_alloc.obj
 0001:00014668       ??1length_error@std@@UAE@XZ 10015668 f i libcpmt:xthrow.obj
 0001:00014679       ?_Xlength_error@std@@YAXPBD@Z 10015679 f   libcpmt:xthrow.obj
 0001:00014699       ?_Xout_of_range@std@@YAXPBD@Z 10015699 f   libcpmt:xthrow.obj
 0001:000146b9       @__security_check_cookie@4 100156b9 f   LIBCMT:_secchk_.obj
 0001:000146ca       ??2@YAPAXI@Z               100156ca f   LIBCMT:new_scalar.obj
 0001:000146fd       ??3@YAXPAXI@Z              100156fd f   LIBCMT:delete_scalar_size.obj
 0001:0001470b       ??3@YAXPAX@Z               1001570b f   LIBCMT:delete_scalar.obj
 0001:00014710       ??$__crt_fast_encode_pointer@PAX@@YAPAXQAX@Z 10015710 f i libvcruntime:winapi_downlevel.obj
 0001:00014710       ??$__crt_fast_encode_pointer@P6GXPAU_RTL_CONDITION_VARIABLE@@@Z@@YAP6GXPAU_RTL_CONDITION_VARIABLE@@@ZQ6GX0@Z@Z 10015710 f i LIBCMT:thread_safe_statics.obj
 0001:00014710       ??$__crt_fast_encode_pointer@PAP6AXXZ@@YAPAP6AXXZQAP6AXXZ@Z 10015710 f i LIBCMT:utility.obj
 0001:00014710       ??$__crt_fast_encode_pointer@P6GHPAU_RTL_CONDITION_VARIABLE@@PAU_RTL_CRITICAL_SECTION@@K@Z@@YAP6GHPAU_RTL_CONDITION_VARIABLE@@PAU_RTL_CRITICAL_SECTION@@K@ZQ6GH01K@Z@Z 10015710 f i LIBCMT:thread_safe_statics.obj
 0001:00014771       ___scrt_acquire_startup_lock 10015771 f   LIBCMT:utility.obj
 0001:000147a6       ___scrt_dllmain_after_initialize_c 100157a6 f   LIBCMT:utility.obj
 0001:000147d1       ___scrt_dllmain_before_initialize_c 100157d1 f   LIBCMT:utility.obj
 0001:000147df       ___scrt_dllmain_crt_thread_attach 100157df f   LIBCMT:utility.obj
 0001:000147fe       ___scrt_dllmain_crt_thread_detach 100157fe f   LIBCMT:utility.obj
 0001:0001480b       ___scrt_dllmain_exception_filter 1001580b f   LIBCMT:utility.obj
 0001:0001483e       ___scrt_dllmain_uninitialize_c 1001583e f   LIBCMT:utility.obj
 0001:00014861       ___scrt_dllmain_uninitialize_critical 10015861 f   LIBCMT:utility.obj
 0001:0001486e       ___scrt_initialize_crt     1001586e f   LIBCMT:utility.obj
 0001:000148a7       ___scrt_initialize_onexit_tables 100158a7 f   LIBCMT:utility.obj
 0001:0001493e       ___scrt_is_nonwritable_in_current_image 1001593e f   LIBCMT:utility.obj
 0001:000149cb       ___scrt_release_startup_lock 100159cb f   LIBCMT:utility.obj
 0001:000149e8       ___scrt_uninitialize_crt   100159e8 f   LIBCMT:utility.obj
 0001:00014a10       __onexit                   10015a10 f   LIBCMT:utility.obj
 0001:00014a4b       _atexit                    10015a4b f   LIBCMT:utility.obj
 0001:00014a60       ??_Etype_info@@UAEPAXI@Z   10015a60 f i LIBCMT:std_type_info_static.obj
 0001:00014a60       ??_Gtype_info@@UAEPAXI@Z   10015a60 f i LIBCMT:std_type_info_static.obj
 0001:00014dab       __DllMainCRTStartup@12     10015dab f   LIBCMT:dll_dllmain.obj
 0001:00014dce       ___raise_securityfailure   10015dce f   LIBCMT:gs_report.obj
 0001:00014df6       ___report_gsfailure        10015df6 f   LIBCMT:gs_report.obj
 0001:00014f00       __allmul                   10015f00 f   LIBCMT:llmul.obj
 0001:00014f40       __alloca_probe_16          10015f40 f   LIBCMT:alloca16.obj
 0001:00014f56       __alloca_probe_8           10015f56     LIBCMT:alloca16.obj
 0001:00014f70       __aulldiv                  10015f70 f   LIBCMT:ulldiv.obj
 0001:00014fd8       ??0bad_array_new_length@std@@QAE@ABV01@@Z 10015fd8 f i LIBCMT:throw_bad_alloc.obj
 0001:00014ff3       ??0bad_array_new_length@std@@QAE@XZ 10015ff3 f i LIBCMT:throw_bad_alloc.obj
 0001:0001500b       ??_Gbad_array_new_length@std@@UAEPAXI@Z 1001600b f i LIBCMT:throw_bad_alloc.obj
 0001:0001500b       ??_Elength_error@std@@UAEPAXI@Z 1001600b f i libcpmt:xthrow.obj
 0001:0001500b       ??_Ebad_array_new_length@std@@UAEPAXI@Z 1001600b f i LIBCMT:throw_bad_alloc.obj
 0001:0001500b       ??_Glength_error@std@@UAEPAXI@Z 1001600b f i libcpmt:xthrow.obj
 0001:00015038       ?__scrt_throw_std_bad_alloc@@YAXXZ 10016038 f   LIBCMT:throw_bad_alloc.obj
 0001:00015038       ?_Xbad_alloc@std@@YAXXZ    10016038 f   libcpmt:xthrow.obj
 0001:00015055       ?__scrt_throw_std_bad_array_new_length@@YAXXZ 10016055 f   LIBCMT:throw_bad_alloc.obj
 0001:00015072       ___isa_available_init      10016072 f   LIBCMT:_cpu_disp_.obj
 0001:00015213       __get_startup_argv_mode    10016213 f   LIBCMT:argv_mode.obj
 0001:00015217       ___scrt_is_ucrt_dll_in_use 10016217 f   LIBCMT:ucrt_detection.obj
 0001:00015223       ___scrt_fastfail           10016223 f   LIBCMT:utility_desktop.obj
 0001:0001533e       __crt_debugger_hook        1001633e f   LIBCMT:utility_desktop.obj
 0001:00015346       @_guard_check_icall@4      10016346 f i LIBCMT:checkcfg.obj
 0001:00015350       __SEH_prolog4              10016350 f   LIBCMT:_sehprolg4_.obj
 0001:00015396       __SEH_epilog4              10016396 f   LIBCMT:_sehprolg4_.obj
 0001:000153ab       ___security_init_cookie    100163ab f   LIBCMT:gs_support.obj
 0001:00015447       _DllMain@12                10016447 f   LIBCMT:dll_dllmain_stub.obj
 0001:0001544d       ?__scrt_initialize_type_info@@YAXXZ 1001644d f   LIBCMT:tncleanup.obj
 0001:00015459       ?__scrt_uninitialize_type_info@@YAXXZ 10016459 f   LIBCMT:tncleanup.obj
 0001:00015465       ___scrt_initialize_default_local_stdio_options 10016465 f   LIBCMT:default_local_stdio_options.obj
 0001:00015482       ___scrt_get_dyn_tls_init_callback 10016482 f   LIBCMT:dyn_tls_init.obj
 0001:00015488       __RTC_Initialize           10016488 f   LIBCMT:_initsect_.obj
 0001:000154b3       __RTC_Terminate            100164b3 f   LIBCMT:_initsect_.obj
 0001:000154e0       __alloca_probe             100164e0 f   LIBCMT:chkstk.obj
 0001:000154e0       __chkstk                   100164e0 f   LIBCMT:chkstk.obj
 0001:00015510       ??$?0V?$clone_impl@Ubad_alloc_@exception_detail@boost@@@exception_detail@boost@@@?$shared_ptr@$$CBVclone_base@exception_detail@boost@@@boost@@QAE@PAV?$clone_impl@Ubad_alloc_@exception_detail@boost@@@exception_detail@1@@Z 10016510 f i libboost_thread-vc140-mt-s-1_60:thread.obj
 0001:000155d0       ??$?0V?$clone_impl@Ubad_alloc_@exception_detail@boost@@@exception_detail@boost@@@shared_count@detail@boost@@QAE@PAV?$clone_impl@Ubad_alloc_@exception_detail@boost@@@exception_detail@2@@Z 100165d0 f i libboost_thread-vc140-mt-s-1_60:thread.obj
 0001:00015670       ??$?0V?$clone_impl@Ubad_exception_@exception_detail@boost@@@exception_detail@boost@@@?$shared_ptr@$$CBVclone_base@exception_detail@boost@@@boost@@QAE@PAV?$clone_impl@Ubad_exception_@exception_detail@boost@@@exception_detail@1@@Z 10016670 f i libboost_thread-vc140-mt-s-1_60:thread.obj
 0001:00015730       ??$?0V?$clone_impl@Ubad_exception_@exception_detail@boost@@@exception_detail@boost@@@shared_count@detail@boost@@QAE@PAV?$clone_impl@Ubad_exception_@exception_detail@boost@@@exception_detail@2@@Z 10016730 f i libboost_thread-vc140-mt-s-1_60:thread.obj
 0001:000157d0       ??$?G_J@?$int_adapter@_J@date_time@boost@@QBE?AV012@ABV012@@Z 100167d0 f i libboost_thread-vc140-mt-s-1_60:thread.obj
 0001:00015920       ??$_Destroy_range@U?$_Wrap_alloc@V?$allocator@V?$intrusive_ptr@Vbasic_cv_list_entry@detail@boost@@@boost@@@std@@@std@@@std@@YAXPAV?$intrusive_ptr@Vbasic_cv_list_entry@detail@boost@@@boost@@0AAU?$_Wrap_alloc@V?$allocator@V?$intrusive_ptr@Vbasic_cv_list_entry@detail@boost@@@boost@@@std@@@0@@Z 10016920 f i libboost_thread-vc140-mt-s-1_60:thread.obj
 0001:000159d0       ??$enable_current_exception@U?$error_info_injector@Vlock_error@boost@@@exception_detail@boost@@@boost@@YA?AV?$clone_impl@U?$error_info_injector@Vlock_error@boost@@@exception_detail@boost@@@exception_detail@0@ABU?$error_info_injector@Vlock_error@boost@@@20@@Z 100169d0 f i libboost_thread-vc140-mt-s-1_60:thread.obj
 0001:00015a80       ??$enable_error_info@Vlock_error@boost@@@boost@@YA?AU?$error_info_injector@Vlock_error@boost@@@exception_detail@0@ABVlock_error@0@@Z 10016a80 f i libboost_thread-vc140-mt-s-1_60:thread.obj
 0001:00015ad0       ??$get_static_exception_object@Ubad_alloc_@exception_detail@boost@@@exception_detail@boost@@YA?AVexception_ptr@1@XZ 10016ad0 f i libboost_thread-vc140-mt-s-1_60:thread.obj
 0001:00015cf0       ??$get_static_exception_object@Ubad_exception_@exception_detail@boost@@@exception_detail@boost@@YA?AVexception_ptr@1@XZ 10016cf0 f i libboost_thread-vc140-mt-s-1_60:thread.obj
 0001:00015f10       ??$int_to_string@H@detail@boost@@YAXHPAD@Z 10016f10 f i libboost_thread-vc140-mt-s-1_60:thread.obj
 0001:00015f80       ??$int_to_string@K@detail@boost@@YAXKPAD@Z 10016f80 f i libboost_thread-vc140-mt-s-1_60:thread.obj
 0001:00015ff0       ??$throw_exception@Vlock_error@boost@@@boost@@YAXABVlock_error@0@@Z 10016ff0 f i libboost_thread-vc140-mt-s-1_60:thread.obj
 0001:00016050       ??0?$clone_impl@U?$error_info_injector@Vlock_error@boost@@@exception_detail@boost@@@exception_detail@boost@@AAE@ABV012@Uclone_tag@012@@Z 10017050 f i libboost_thread-vc140-mt-s-1_60:thread.obj
 0001:00016110       ??0?$clone_impl@U?$error_info_injector@Vlock_error@boost@@@exception_detail@boost@@@exception_detail@boost@@QAE@ABV012@@Z 10017110 f i libboost_thread-vc140-mt-s-1_60:thread.obj
 0001:000161b0       ??0?$clone_impl@Ubad_alloc_@exception_detail@boost@@@exception_detail@boost@@QAE@ABV012@@Z 100171b0 f i libboost_thread-vc140-mt-s-1_60:thread.obj
 0001:00016250       ??0?$clone_impl@Ubad_exception_@exception_detail@boost@@@exception_detail@boost@@QAE@ABV012@@Z 10017250 f i libboost_thread-vc140-mt-s-1_60:thread.obj
 0001:000162f0       ??0?$error_info_injector@Vlock_error@boost@@@exception_detail@boost@@QAE@ABU012@@Z 100172f0 f i libboost_thread-vc140-mt-s-1_60:thread.obj
 0001:00016390       ??0bad_alloc_@exception_detail@boost@@QAE@ABU012@@Z 10017390 f i libboost_thread-vc140-mt-s-1_60:thread.obj
 0001:00016400       ??0bad_exception@std@@QAE@ABV01@@Z 10017400 f i libboost_thread-vc140-mt-s-1_60:thread.obj
 0001:00016460       ??0bad_exception@std@@QAE@XZ 10017460 f i libboost_thread-vc140-mt-s-1_60:thread.obj
 0001:00016480       ??0bad_exception_@exception_detail@boost@@QAE@ABU012@@Z 10017480 f i libboost_thread-vc140-mt-s-1_60:thread.obj
 0001:000164f0       ??0lock_error@boost@@QAE@ABV01@@Z 100174f0 f i libboost_thread-vc140-mt-s-1_60:thread.obj
 0001:00016510       ??0lock_error@boost@@QAE@HPBD@Z 10017510 f i libboost_thread-vc140-mt-s-1_60:thread.obj
 0001:000165b0       ??0thread@boost@@QAE@XZ    100175b0 f   libboost_thread-vc140-mt-s-1_60:thread.obj
 0001:000165c0       ??1?$clone_impl@U?$error_info_injector@Vlock_error@boost@@@exception_detail@boost@@@exception_detail@boost@@UAE@XZ 100175c0 f i libboost_thread-vc140-mt-s-1_60:thread.obj
 0001:00016660       ??1?$clone_impl@Ubad_alloc_@exception_detail@boost@@@exception_detail@boost@@UAE@XZ 10017660 f i libboost_thread-vc140-mt-s-1_60:thread.obj
 0001:00016710       ??1?$clone_impl@Ubad_exception_@exception_detail@boost@@@exception_detail@boost@@UAE@XZ 10017710 f i libboost_thread-vc140-mt-s-1_60:thread.obj
 0001:000167c0       ??1?$error_info_injector@Vlock_error@boost@@@exception_detail@boost@@UAE@XZ 100177c0 f i libboost_thread-vc140-mt-s-1_60:thread.obj
 0001:00016840       ??1bad_alloc_@exception_detail@boost@@UAE@XZ 10017840 f i libboost_thread-vc140-mt-s-1_60:thread.obj
 0001:000168c0       ??1bad_exception@std@@UAE@XZ 100178c0 f i libboost_thread-vc140-mt-s-1_60:thread.obj
 0001:00016910       ??1bad_exception_@exception_detail@boost@@UAE@XZ 10017910 f i libboost_thread-vc140-mt-s-1_60:thread.obj
 0001:00016990       ??1lock_error@boost@@UAE@XZ 10017990 f i libboost_thread-vc140-mt-s-1_60:thread.obj
 0001:000169a0       ??1once_context@detail@boost@@QAE@XZ 100179a0 f i libboost_thread-vc140-mt-s-1_60:thread.obj
 0001:000169f0       ??1thread_data_base@detail@boost@@UAE@XZ 100179f0 f   libboost_thread-vc140-mt-s-1_60:thread.obj
 0001:00016bf0       ??_D?$clone_impl@U?$error_info_injector@Vlock_error@boost@@@exception_detail@boost@@@exception_detail@boost@@QAEXXZ 10017bf0 f i libboost_thread-vc140-mt-s-1_60:thread.obj
 0001:00016c10       ??_D?$clone_impl@Ubad_alloc_@exception_detail@boost@@@exception_detail@boost@@QAEXXZ 10017c10 f i libboost_thread-vc140-mt-s-1_60:thread.obj
 0001:00016c30       ??_D?$clone_impl@Ubad_exception_@exception_detail@boost@@@exception_detail@boost@@QAEXXZ 10017c30 f i libboost_thread-vc140-mt-s-1_60:thread.obj
 0001:00016c41       ??_E?$clone_impl@U?$error_info_injector@Vlock_error@boost@@@exception_detail@boost@@@exception_detail@boost@@$4PPPPPPPM@EI@AEPAXI@Z 10017c41 f i libboost_thread-vc140-mt-s-1_60:thread.obj
 0001:00016c4c       ??_E?$clone_impl@U?$error_info_injector@Vlock_error@boost@@@exception_detail@boost@@@exception_detail@boost@@WCM@AEPAXI@Z 10017c4c f i libboost_thread-vc140-mt-s-1_60:thread.obj
 0001:00016c54       ??_E?$clone_impl@Ubad_alloc_@exception_detail@boost@@@exception_detail@boost@@$4PPPPPPPM@CI@AEPAXI@Z 10017c54 f i libboost_thread-vc140-mt-s-1_60:thread.obj
 0001:00016c5f       ??_E?$clone_impl@Ubad_alloc_@exception_detail@boost@@@exception_detail@boost@@WBE@AEPAXI@Z 10017c5f f i libboost_thread-vc140-mt-s-1_60:thread.obj
 0001:00016c67       ??_E?$clone_impl@Ubad_exception_@exception_detail@boost@@@exception_detail@boost@@$4PPPPPPPM@CI@AEPAXI@Z 10017c67 f i libboost_thread-vc140-mt-s-1_60:thread.obj
 0001:00016c72       ??_E?$clone_impl@Ubad_exception_@exception_detail@boost@@@exception_detail@boost@@WBE@AEPAXI@Z 10017c72 f i libboost_thread-vc140-mt-s-1_60:thread.obj
 0001:00016c7a       ??_E?$error_info_injector@Vlock_error@boost@@@exception_detail@boost@@WCM@AEPAXI@Z 10017c7a f i libboost_thread-vc140-mt-s-1_60:thread.obj
 0001:00016c82       ??_Ebad_alloc_@exception_detail@boost@@WBE@AEPAXI@Z 10017c82 f i libboost_thread-vc140-mt-s-1_60:thread.obj
 0001:00016c8a       ??_Ebad_exception_@exception_detail@boost@@WBE@AEPAXI@Z 10017c8a f i libboost_thread-vc140-mt-s-1_60:thread.obj
 0001:00016ca0       ??_G?$clone_impl@U?$error_info_injector@Vlock_error@boost@@@exception_detail@boost@@@exception_detail@boost@@UAEPAXI@Z 10017ca0 f i libboost_thread-vc140-mt-s-1_60:thread.obj
 0001:00016ca0       ??_E?$clone_impl@U?$error_info_injector@Vlock_error@boost@@@exception_detail@boost@@@exception_detail@boost@@UAEPAXI@Z 10017ca0 f i libboost_thread-vc140-mt-s-1_60:thread.obj
 0001:00016cd0       ??_G?$clone_impl@Ubad_alloc_@exception_detail@boost@@@exception_detail@boost@@UAEPAXI@Z 10017cd0 f i libboost_thread-vc140-mt-s-1_60:thread.obj
 0001:00016cd0       ??_E?$clone_impl@Ubad_alloc_@exception_detail@boost@@@exception_detail@boost@@UAEPAXI@Z 10017cd0 f i libboost_thread-vc140-mt-s-1_60:thread.obj
 0001:00016d00       ??_G?$clone_impl@Ubad_exception_@exception_detail@boost@@@exception_detail@boost@@UAEPAXI@Z 10017d00 f i libboost_thread-vc140-mt-s-1_60:thread.obj
 0001:00016d00       ??_E?$clone_impl@Ubad_exception_@exception_detail@boost@@@exception_detail@boost@@UAEPAXI@Z 10017d00 f i libboost_thread-vc140-mt-s-1_60:thread.obj
 0001:00016d30       ??_G?$error_info_injector@Vlock_error@boost@@@exception_detail@boost@@UAEPAXI@Z 10017d30 f i libboost_thread-vc140-mt-s-1_60:thread.obj
 0001:00016d30       ??_E?$error_info_injector@Vlock_error@boost@@@exception_detail@boost@@UAEPAXI@Z 10017d30 f i libboost_thread-vc140-mt-s-1_60:thread.obj
 0001:00016dc0       ??_G?$sp_counted_impl_p@V?$clone_impl@Ubad_alloc_@exception_detail@boost@@@exception_detail@boost@@@detail@boost@@UAEPAXI@Z 10017dc0 f i libboost_thread-vc140-mt-s-1_60:thread.obj
 0001:00016dc0       ??_E?$sp_counted_impl_p@V?$clone_impl@Ubad_alloc_@exception_detail@boost@@@exception_detail@boost@@@detail@boost@@UAEPAXI@Z 10017dc0 f i libboost_thread-vc140-mt-s-1_60:thread.obj
 0001:00016dc0       ??_E?$sp_counted_impl_p@V?$clone_impl@Ubad_exception_@exception_detail@boost@@@exception_detail@boost@@@detail@boost@@UAEPAXI@Z 10017dc0 f i libboost_thread-vc140-mt-s-1_60:thread.obj
 0001:00016dc0       ??_G?$sp_counted_impl_p@V?$clone_impl@Ubad_exception_@exception_detail@boost@@@exception_detail@boost@@@detail@boost@@UAEPAXI@Z 10017dc0 f i libboost_thread-vc140-mt-s-1_60:thread.obj
 0001:00016df0       ??_Ebad_alloc_@exception_detail@boost@@UAEPAXI@Z 10017df0 f i libboost_thread-vc140-mt-s-1_60:thread.obj
 0001:00016df0       ??_Gbad_alloc_@exception_detail@boost@@UAEPAXI@Z 10017df0 f i libboost_thread-vc140-mt-s-1_60:thread.obj
 0001:00016e80       ??_Gbad_exception@std@@UAEPAXI@Z 10017e80 f i libboost_thread-vc140-mt-s-1_60:thread.obj
 0001:00016e80       ??_Ebad_exception@std@@UAEPAXI@Z 10017e80 f i libboost_thread-vc140-mt-s-1_60:thread.obj
 0001:00016ee0       ??_Gbad_exception_@exception_detail@boost@@UAEPAXI@Z 10017ee0 f i libboost_thread-vc140-mt-s-1_60:thread.obj
 0001:00016ee0       ??_Ebad_exception_@exception_detail@boost@@UAEPAXI@Z 10017ee0 f i libboost_thread-vc140-mt-s-1_60:thread.obj
 0001:00016f70       ??_Glock_error@boost@@UAEPAXI@Z 10017f70 f i libboost_thread-vc140-mt-s-1_60:thread.obj
 0001:00016f70       ??_Elock_error@boost@@UAEPAXI@Z 10017f70 f i libboost_thread-vc140-mt-s-1_60:thread.obj
 0001:00016fa0       ??_Gsp_counted_base@detail@boost@@UAEPAXI@Z 10017fa0 f i libboost_thread-vc140-mt-s-1_60:thread.obj
 0001:00016fa0       ??_Esp_counted_base@detail@boost@@UAEPAXI@Z 10017fa0 f i libboost_thread-vc140-mt-s-1_60:thread.obj
 0001:00016ff0       ?call_once@boost@@YAXAAUonce_flag@1@P6AXXZ@Z 10017ff0 f i libboost_thread-vc140-mt-s-1_60:thread.obj
 0001:00017244       ?clone@?$clone_impl@U?$error_info_injector@Vlock_error@boost@@@exception_detail@boost@@@exception_detail@boost@@$0PPPPPPPM@A@BEPBVclone_base@23@XZ 10018244 f i libboost_thread-vc140-mt-s-1_60:thread.obj
 0001:00017250       ?clone@?$clone_impl@U?$error_info_injector@Vlock_error@boost@@@exception_detail@boost@@@exception_detail@boost@@EBEPBVclone_base@23@XZ 10018250 f i libboost_thread-vc140-mt-s-1_60:thread.obj
 0001:000172cf       ?clone@?$clone_impl@Ubad_alloc_@exception_detail@boost@@@exception_detail@boost@@$0PPPPPPPM@A@BEPBVclone_base@23@XZ 100182cf f i libboost_thread-vc140-mt-s-1_60:thread.obj
 0001:000172e0       ?clone@?$clone_impl@Ubad_alloc_@exception_detail@boost@@@exception_detail@boost@@EBEPBVclone_base@23@XZ 100182e0 f i libboost_thread-vc140-mt-s-1_60:thread.obj
 0001:000173b6       ?clone@?$clone_impl@Ubad_exception_@exception_detail@boost@@@exception_detail@boost@@$0PPPPPPPM@A@BEPBVclone_base@23@XZ 100183b6 f i libboost_thread-vc140-mt-s-1_60:thread.obj
 0001:000173c0       ?clone@?$clone_impl@Ubad_exception_@exception_detail@boost@@@exception_detail@boost@@EBEPBVclone_base@23@XZ 100183c0 f i libboost_thread-vc140-mt-s-1_60:thread.obj
 0001:000174a0       ?commit_once_region@detail@boost@@YAXAAUonce_flag@2@AAUonce_context@12@@Z 100184a0 f i libboost_thread-vc140-mt-s-1_60:thread.obj
 0001:00017570       ?date@?$counted_time_rep@Vmillisec_posix_time_system_config@posix_time@boost@@@date_time@boost@@QBE?AV0gregorian@3@XZ 10018570 f i libboost_thread-vc140-mt-s-1_60:thread.obj
 0001:00017640       ?destroy@sp_counted_base@detail@boost@@UAEXXZ 10018640 f i libboost_thread-vc140-mt-s-1_60:thread.obj
 0001:00017650       ?detach@thread@boost@@QAEXXZ 10018650 f   libboost_thread-vc140-mt-s-1_60:thread.obj
 0001:000176c0       ?dispose@?$sp_counted_impl_p@V?$clone_impl@Ubad_exception_@exception_detail@boost@@@exception_detail@boost@@@detail@boost@@UAEXXZ 100186c0 f i libboost_thread-vc140-mt-s-1_60:thread.obj
 0001:000176c0       ?dispose@?$sp_counted_impl_p@V?$clone_impl@Ubad_alloc_@exception_detail@boost@@@exception_detail@boost@@@detail@boost@@UAEXXZ 100186c0 f i libboost_thread-vc140-mt-s-1_60:thread.obj
 0001:000176d0       ?do_try_join_until@thread@boost@@AAE_N_K@Z 100186d0 f i libboost_thread-vc140-mt-s-1_60:thread.obj
 0001:000177c0       ?do_try_join_until_noexcept@thread@boost@@AAE_N_KAA_N@Z 100187c0 f   libboost_thread-vc140-mt-s-1_60:thread.obj
 0001:000178e0       ?from_day_number@?$gregorian_calendar_base@U?$year_month_day_base@Vgreg_year@gregorian@boost@@Vgreg_month@23@Vgreg_day@23@@date_time@boost@@I@date_time@boost@@SA?AU?$year_month_day_base@Vgreg_year@gregorian@boost@@Vgreg_month@23@Vgreg_day@23@@23@I@Z 100188e0 f i libboost_thread-vc140-mt-s-1_60:thread.obj
 0001:00017a40       ?get_deleter@?$sp_counted_impl_p@V?$clone_impl@Ubad_alloc_@exception_detail@boost@@@exception_detail@boost@@@detail@boost@@UAEPAXABVtype_info@@@Z 10018a40 f i libboost_thread-vc140-mt-s-1_60:thread.obj
 0001:00017a40       ?get_deleter@?$sp_counted_impl_p@V?$clone_impl@Ubad_exception_@exception_detail@boost@@@exception_detail@boost@@@detail@boost@@UAEPAXABVtype_info@@@Z 10018a40 f i libboost_thread-vc140-mt-s-1_60:thread.obj
 0001:00017cb0       ?get_event@basic_timed_mutex@detail@boost@@AAEPAXXZ 10018cb0 f i libboost_thread-vc140-mt-s-1_60:thread.obj
 0001:00017d40       ?get_id@this_thread@boost@@YA?AVid@thread@2@XZ 10018d40 f   libboost_thread-vc140-mt-s-1_60:thread.obj
 0001:00017d80       ?get_id@thread@boost@@QBE?AVid@12@XZ 10018d80 f   libboost_thread-vc140-mt-s-1_60:thread.obj
 0001:00017e20       ?get_milliseconds_until@detail@boost@@YAKABVptime@posix_time@2@@Z 10018e20 f i libboost_thread-vc140-mt-s-1_60:thread.obj
 0001:00017ea0       ?get_thread_info@thread@boost@@ABE?AV?$intrusive_ptr@Uthread_data_base@detail@boost@@@2@XZ 10018ea0 f   libboost_thread-vc140-mt-s-1_60:thread.obj
 0001:00017ec0       ?get_time_of_day@?$counted_time_system@U?$counted_time_rep@Vmillisec_posix_time_system_config@posix_time@boost@@@date_time@boost@@@date_time@boost@@SA?AVtime_duration@posix_time@3@ABU?$counted_time_rep@Vmillisec_posix_time_system_config@posix_time@boost@@@23@@Z 10018ec0 f i libboost_thread-vc140-mt-s-1_60:thread.obj
 0001:00018000       ?get_untyped_deleter@?$sp_counted_impl_p@V?$clone_impl@Ubad_exception_@exception_detail@boost@@@exception_detail@boost@@@detail@boost@@UAEPAXXZ 10019000 f i libboost_thread-vc140-mt-s-1_60:thread.obj
 0001:00018000       ?get_untyped_deleter@?$sp_counted_impl_p@V?$clone_impl@Ubad_alloc_@exception_detail@boost@@@exception_detail@boost@@@detail@boost@@UAEPAXXZ 10019000 f i libboost_thread-vc140-mt-s-1_60:thread.obj
 0001:00018010       ?interruptible_wait@this_thread@boost@@YA_NPAXUtimeout@detail@2@@Z 10019010 f   libboost_thread-vc140-mt-s-1_60:thread.obj
 0001:00018290       ?lock@?$unique_lock@Vmutex@boost@@@boost@@QAEXXZ 10019290 f i libboost_thread-vc140-mt-s-1_60:thread.obj
 0001:00018370       ?lock@basic_timed_mutex@detail@boost@@QAEXXZ 10019370 f i libboost_thread-vc140-mt-s-1_60:thread.obj
 0001:00018400       ?make_ready@shared_state_base@detail@boost@@QAEXXZ 10019400 f i libboost_thread-vc140-mt-s-1_60:thread.obj
 0001:000184b0       ?mark_waiting_and_try_lock@basic_timed_mutex@detail@boost@@QAEXAAJ@Z 100194b0 f i libboost_thread-vc140-mt-s-1_60:thread.obj
 0001:00018500       ?name_once_mutex@detail@boost@@YAXPADPAX@Z 10019500 f i libboost_thread-vc140-mt-s-1_60:thread.obj
 0001:00018570       ?native_handle@thread@boost@@QAEPAXXZ 10019570 f   libboost_thread-vc140-mt-s-1_60:thread.obj
 0001:00018600       ?notify_all@basic_condition_variable@detail@boost@@QAEXXZ 10019600 f i libboost_thread-vc140-mt-s-1_60:thread.obj
 0001:00018710       ?on_process_exit@boost@@YAXXZ 10019710 f   libboost_thread-vc140-mt-s-1_60:thread.obj
 0001:00018730       ?on_thread_exit@boost@@YAXXZ 10019730 f   libboost_thread-vc140-mt-s-1_60:thread.obj
 0001:00018740       ?remaining_milliseconds@timeout@detail@boost@@QBE?AUremaining_time@123@XZ 10019740 f i libboost_thread-vc140-mt-s-1_60:thread.obj
 0001:00018875       ?rethrow@?$clone_impl@U?$error_info_injector@Vlock_error@boost@@@exception_detail@boost@@@exception_detail@boost@@$0PPPPPPPM@A@BEXXZ 10019875 f i libboost_thread-vc140-mt-s-1_60:thread.obj
 0001:00018880       ?rethrow@?$clone_impl@U?$error_info_injector@Vlock_error@boost@@@exception_detail@boost@@@exception_detail@boost@@EBEXXZ 10019880 f i libboost_thread-vc140-mt-s-1_60:thread.obj
 0001:00018917       ?rethrow@?$clone_impl@Ubad_alloc_@exception_detail@boost@@@exception_detail@boost@@$0PPPPPPPM@A@BEXXZ 10019917 f i libboost_thread-vc140-mt-s-1_60:thread.obj
 0001:00018920       ?rethrow@?$clone_impl@Ubad_alloc_@exception_detail@boost@@@exception_detail@boost@@EBEXXZ 10019920 f i libboost_thread-vc140-mt-s-1_60:thread.obj
 0001:000189b4       ?rethrow@?$clone_impl@Ubad_exception_@exception_detail@boost@@@exception_detail@boost@@$0PPPPPPPM@A@BEXXZ 100199b4 f i libboost_thread-vc140-mt-s-1_60:thread.obj
 0001:000189c0       ?rethrow@?$clone_impl@Ubad_exception_@exception_detail@boost@@@exception_detail@boost@@EBEXXZ 100199c0 f i libboost_thread-vc140-mt-s-1_60:thread.obj
 0001:00018a60       ?rollback_once_region@detail@boost@@YAXAAUonce_flag@2@AAUonce_context@12@@Z 10019a60 f i libboost_thread-vc140-mt-s-1_60:thread.obj
 0001:00018c40       ?tss_cleanup_implemented@boost@@YAXXZ 10019c40 f i libboost_thread-vc140-mt-s-1_60:tss_pe.obj
 0001:00018c40       ___except_validate_context_record 10019c40 f i libvcruntime:jbcxrval.obj
 0001:00018c40       @_guard_check_icall_nop@4  10019c40 f i LIBCMT:guard_support.obj
 0001:00018c40       ?on_process_enter@boost@@YAXXZ 10019c40 f i libboost_thread-vc140-mt-s-1_60:thread.obj
 0001:00018c40       ___except_validate_jump_buffer 10019c40 f i libvcruntime:jbcxrval.obj
 0001:00018c40       ?sp_enable_shared_from_this@detail@boost@@YAXZZ 10019c40 f i libboost_thread-vc140-mt-s-1_60:thread.obj
 0001:00018c50       ?start_thread_noexcept@thread@boost@@AAE_NXZ 10019c50 f   libboost_thread-vc140-mt-s-1_60:thread.obj
 0001:00018cb0       ?subtract_times@?$counted_time_system@U?$counted_time_rep@Vmillisec_posix_time_system_config@posix_time@boost@@@date_time@boost@@@date_time@boost@@SA?AVtime_duration@posix_time@3@ABU?$counted_time_rep@Vmillisec_posix_time_system_config@posix_time@boost@@@23@0@Z 10019cb0 f i libboost_thread-vc140-mt-s-1_60:thread.obj
 0001:00018ee0       ?timed_join@thread@boost@@QAE_NABVptime@posix_time@2@@Z 10019ee0 f   libboost_thread-vc140-mt-s-1_60:thread.obj
 0001:00018fc0       ??0error_code@system@boost@@QAE@XZ 10019fc0 f i libboost_system-vc140-mt-s-1_60:error_code.obj
 0001:00019060       ??1local_free_on_destruction@detail@system@boost@@QAE@XZ 1001a060 f i libboost_system-vc140-mt-s-1_60:error_code.obj
 0001:000190a0       ??_Ggeneric_error_category@?A0x5c0157ab@system@boost@@UAEPAXI@Z 1001a0a0 f i libboost_system-vc140-mt-s-1_60:error_code.obj
 0001:000190a0       ??_Egeneric_error_category@?A0x5c0157ab@system@boost@@UAEPAXI@Z 1001a0a0 f i libboost_system-vc140-mt-s-1_60:error_code.obj
 0001:000190a0       ??_Gsystem_error_category@?A0x5c0157ab@system@boost@@UAEPAXI@Z 1001a0a0 f i libboost_system-vc140-mt-s-1_60:error_code.obj
 0001:000190a0       ??_Esystem_error_category@?A0x5c0157ab@system@boost@@UAEPAXI@Z 1001a0a0 f i libboost_system-vc140-mt-s-1_60:error_code.obj
 0001:000190a0       ??_Eerror_category@system@boost@@UAEPAXI@Z 1001a0a0 f i libboost_system-vc140-mt-s-1_60:error_code.obj
 0001:000190a0       ??_Gerror_category@system@boost@@UAEPAXI@Z 1001a0a0 f i libboost_system-vc140-mt-s-1_60:error_code.obj
 0001:000190d0       ?_Assign_rv@?$basic_string@DU?$char_traits@D@std@@V?$allocator@D@2@@std@@QAEX$$QAV12@@Z 1001a0d0 f i libboost_system-vc140-mt-s-1_60:error_code.obj
 0001:00019140       ?default_error_condition@error_category@system@boost@@UBE?AVerror_condition@23@H@Z 1001a140 f i libboost_system-vc140-mt-s-1_60:error_code.obj
 0001:000197d0       ?equivalent@error_category@system@boost@@UBE_NABVerror_code@23@H@Z 1001a7d0 f i libboost_system-vc140-mt-s-1_60:error_code.obj
 0001:000197f0       ?equivalent@error_category@system@boost@@UBE_NHABVerror_condition@23@@Z 1001a7f0 f i libboost_system-vc140-mt-s-1_60:error_code.obj
 0001:00019830       ?generic_category@system@boost@@YAABVerror_category@12@XZ 1001a830 f   libboost_system-vc140-mt-s-1_60:error_code.obj
 0001:000198b0       ?make_error_condition@errc@system@boost@@YA?AVerror_condition@23@W4errc_t@123@@Z 1001a8b0 f i libboost_system-vc140-mt-s-1_60:error_code.obj
 0001:00019d30       ?system_category@system@boost@@YAABVerror_category@12@XZ 1001ad30 f   libboost_system-vc140-mt-s-1_60:error_code.obj
 0001:00019dd0       _memmove                   1001add0 f   libvcruntime:memmove.obj
 0001:0001a344       ___DestructExceptionObject 1001b344 f   libvcruntime:frame.obj
 0001:0001abea       ?_CallMemberFunction2@@YGXQAX00H@Z 1001bbea f i libvcruntime:frame.obj
 0001:0001abea       ?_CallMemberFunction0@@YGXQAX0@Z 1001bbea f i libvcruntime:frame.obj
 0001:0001abea       ?_CallMemberFunction1@@YGXQAX00@Z 1001bbea f i libvcruntime:frame.obj
 0001:0001abf1       ___AdjustPointer           1001bbf1 f   libvcruntime:frame.obj
 0001:0001ac16       ___BuildCatchObject        1001bc16 f   libvcruntime:frame.obj
 0001:0001aca8       ___BuildCatchObjectHelper  1001bca8 f   libvcruntime:frame.obj
 0001:0001adda       ___FrameUnwindFilter       1001bdda f   libvcruntime:frame.obj
 0001:0001ae1f       ___FrameUnwindToState      1001be1f f   libvcruntime:frame.obj
 0001:0001aee7       ___InternalCxxFrameHandler 1001bee7 f   libvcruntime:frame.obj
 0001:0001afe3       ___TypeMatch               1001bfe3 f   libvcruntime:frame.obj
 0001:0001b071       ___std_terminate           1001c071 f   libvcruntime:frame.obj
 0001:0001b076       ___std_exception_copy      1001c076 f   libvcruntime:std_exception.obj
 0001:0001b0d9       ___std_exception_destroy   1001c0d9 f   libvcruntime:std_exception.obj
 0001:0001b0f8       __get_purecall_handler     1001c0f8 f   libvcruntime:purevirt.obj
 0001:0001b117       __purecall                 1001c117 f   libvcruntime:purevirt.obj
 0001:0001b140       _strstr                    1001c140 f   libvcruntime:strstr.obj
 0001:0001b3b0       _strchr                    1001c3b0 f   libvcruntime:strchr.obj
 0001:0001b41e       ___from_strstr_to_strchr   1001c41e     libvcruntime:strchr.obj
 0001:0001b4e0       _memcpy                    1001c4e0 f   libvcruntime:memcpy.obj
 0001:0001ba60       _memset                    1001ca60 f   libvcruntime:memset.obj
 0001:0001bbba       __CxxThrowException@8      1001cbba f   libvcruntime:throw.obj
 0001:0001bc28       ___vcrt_initialize         1001cc28 f   libvcruntime:initialization.obj
 0001:0001bc56       ___vcrt_thread_attach      1001cc56 f   libvcruntime:initialization.obj
 0001:0001bc61       ___vcrt_thread_detach      1001cc61 f   libvcruntime:initialization.obj
 0001:0001bc6c       ___vcrt_uninitialize       1001cc6c f   libvcruntime:initialization.obj
 0001:0001bc90       ___vcrt_uninitialize_critical 1001cc90 f   libvcruntime:initialization.obj
 0001:0001bce0       __except_handler4          1001cce0 f   libvcruntime:_chandler4_.obj
 0001:0001be74       ___telemetry_main_invoke_trigger 1001ce74 f   libvcruntime:telemetry.obj
 0001:0001bf10       ___telemetry_main_return_trigger 1001cf10 f   libvcruntime:telemetry.obj
 0001:0001bfac       ___vcrt_initialize_telemetry_provider 1001cfac f   libvcruntime:telemetry.obj
 0001:0001bfbf       ___vcrt_uninitialize_telemetry_provider 1001cfbf f   libvcruntime:telemetry.obj
 0001:0001bfcb       ___std_type_info_compare   1001cfcb f   libvcruntime:std_type_info.obj
 0001:0001c007       ___std_type_info_destroy_list 1001d007 f   libvcruntime:std_type_info.obj
 0001:0001c02a       ?_CallCatchBlock2@@YAPAXPAUEHRegistrationNode@@PBU_s_FuncInfo@@PAXHK@Z 1001d02a f   libvcruntime:trnsctrl.obj
 0001:0001c08a       ?_CallSETranslator@@YAHPAUEHExceptionRecord@@PAUEHRegistrationNode@@PAX2PBU_s_FuncInfo@@H1@Z 1001d08a f   libvcruntime:trnsctrl.obj
 0001:0001c167       ?_GetRangeOfTrysToCheck@@YAPBU_s_TryBlockMapEntry@@PBU_s_FuncInfo@@HHPAI1@Z 1001d167 f   libvcruntime:trnsctrl.obj
 0001:0001c1df       ?_JumpToContinuation@@YGXPAXPAUEHRegistrationNode@@@Z 1001d1df f   libvcruntime:trnsctrl.obj
 0001:0001c211       ?_UnwindNestedFrames@@YGXPAUEHRegistrationNode@@PAUEHExceptionRecord@@@Z 1001d211 f   libvcruntime:trnsctrl.obj
 0001:0001c266       __CatchGuardHandler        1001d266 f   libvcruntime:trnsctrl.obj
 0001:0001c297       __CreateFrameInfo          1001d297 f   libvcruntime:trnsctrl.obj
 0001:0001c2bb       __FindAndUnlinkFrame       1001d2bb f   libvcruntime:trnsctrl.obj
 0001:0001c305       __IsExceptionObjectToBeDestroyed 1001d305 f   libvcruntime:trnsctrl.obj
 0001:0001c32b       __TranslatorGuardHandler   1001d32b f   libvcruntime:trnsctrl.obj
 0001:0001c3ca       ___CxxFrameHandler3        1001d3ca f   libvcruntime:trnsctrl.obj
 0001:0001c400       _unexpected                1001d400 f   libvcruntime:unexpected.obj
 0001:0001c41c       ___vcrt_freefls@4          1001d41c f   libvcruntime:per_thread_data.obj
 0001:0001c438       ___vcrt_freeptd            1001d438 f   libvcruntime:per_thread_data.obj
 0001:0001c46e       ___vcrt_getptd             1001d46e f   libvcruntime:per_thread_data.obj
 0001:0001c47c       ___vcrt_getptd_noexit      1001d47c f   libvcruntime:per_thread_data.obj
 0001:0001c50e       ___vcrt_initialize_ptd     1001d50e f   libvcruntime:per_thread_data.obj
 0001:0001c541       ___vcrt_uninitialize_ptd   1001d541 f   libvcruntime:per_thread_data.obj
 0001:0001c560       __CallSettingFrame@12      1001d560 f   libvcruntime:lowhelpr.obj
 0001:0001c587       __NLG_Return               1001d587     libvcruntime:lowhelpr.obj
 0001:0001c5ac       ___vcrt_initialize_pure_virtual_call_handler 1001d5ac f   libvcruntime:purevirt_data.obj
 0001:0001c5c9       ___vcrt_initialize_locks   1001d5c9 f   libvcruntime:locks.obj
 0001:0001c605       ___vcrt_uninitialize_locks 1001d605 f   libvcruntime:locks.obj
 0001:0001c755       ___vcrt_EventRegister      1001d755 f   libvcruntime:winapi_downlevel.obj
 0001:0001c795       ___vcrt_EventSetInformation 1001d795 f   libvcruntime:winapi_downlevel.obj
 0001:0001c7d8       ___vcrt_EventUnregister    1001d7d8 f   libvcruntime:winapi_downlevel.obj
 0001:0001c812       ___vcrt_EventWriteTransfer 1001d812 f   libvcruntime:winapi_downlevel.obj
 0001:0001c85b       ___vcrt_FlsAlloc           1001d85b f   libvcruntime:winapi_downlevel.obj
 0001:0001c895       ___vcrt_FlsFree            1001d895 f   libvcruntime:winapi_downlevel.obj
 0001:0001c8cf       ___vcrt_FlsGetValue        1001d8cf f   libvcruntime:winapi_downlevel.obj
 0001:0001c909       ___vcrt_FlsSetValue        1001d909 f   libvcruntime:winapi_downlevel.obj
 0001:0001c946       ___vcrt_InitializeCriticalSectionEx 1001d946 f   libvcruntime:winapi_downlevel.obj
 0001:0001c98c       ___vcrt_initialize_winapi_thunks 1001d98c f   libvcruntime:winapi_downlevel.obj
 0001:0001c9b0       ___vcrt_uninitialize_winapi_thunks 1001d9b0 f   libvcruntime:winapi_downlevel.obj
 0001:0001c9f0       __local_unwind4            1001d9f0 f   libvcruntime:_exsup4_.obj
 0001:0001cac6       __seh_longjmp_unwind4@4    1001dac6 f   libvcruntime:_exsup4_.obj
 0001:0001caee       @_EH4_CallFilterFunc@8     1001daee f   libvcruntime:_exsup4_.obj
 0001:0001cb05       @_EH4_TransferToHandler@8  1001db05 f   libvcruntime:_exsup4_.obj
 0001:0001cb1e       @_EH4_GlobalUnwind2@8      1001db1e f   libvcruntime:_exsup4_.obj
 0001:0001cb37       @_EH4_LocalUnwind@16       1001db37 f   libvcruntime:_exsup4_.obj
 0001:0001cb50       __global_unwind2           1001db50 f   libvcruntime:_exsup_.obj
 0001:0001cbb5       __local_unwind2            1001dbb5 f   libvcruntime:_exsup_.obj
 0001:0001cc39       __abnormal_termination     1001dc39 f   libvcruntime:_exsup_.obj
 0001:0001cc5c       __NLG_Notify1              1001dc5c f   libvcruntime:_exsup_.obj
 0001:0001cc65       __NLG_Notify               1001dc65 f   libvcruntime:_exsup_.obj
 0001:0001cc7c       __NLG_Dispatch2            1001dc7c     libvcruntime:_exsup_.obj
 0001:0001cc7c       __NLG_Dispatch             1001dc7c     libvcruntime:_exsup_.obj
 0001:0001cc84       __NLG_Call                 1001dc84 f   libvcruntime:_exsup_.obj
 0001:0001cc86       __NLG_Return2              1001dc86     libvcruntime:_exsup_.obj
 0001:0001cc87       ??$?RV<lambda_db08b09ef7aa9d4f8620ce68402612bc>@@AAV<lambda_4f2c1eaeead2a5fc776db5b62ea0fb9b>@@V<lambda_3ae262bc35d4ba6a3825c4f6bcaaf95c>@@@?$__crt_seh_guarded_call@H@@QAEH$$QAV<lambda_db08b09ef7aa9d4f8620ce68402612bc>@@AAV<lambda_4f2c1eaeead2a5fc776db5b62ea0fb9b>@@$$QAV<lambda_3ae262bc35d4ba6a3825c4f6bcaaf95c>@@@Z 1001dc87 f i libucrt:output.obj
 0001:0001ccd8       ??$__acrt_lock_stream_and_call@V<lambda_4f2c1eaeead2a5fc776db5b62ea0fb9b>@@@@YAHQAU_iobuf@@$$QAV<lambda_4f2c1eaeead2a5fc776db5b62ea0fb9b>@@@Z 1001dcd8 f i libucrt:output.obj
 0001:0001d070       ??$count@D@formatting_buffer@__crt_stdio_output@@QBEIXZ 1001e070 f i libucrt:output.obj
 0001:0001d088       ??$ensure_buffer_is_big_enough@D@formatting_buffer@__crt_stdio_output@@QAE_NI@Z 1001e088 f i libucrt:output.obj
 0001:0001d10e       ??$is_wide_character_specifier@D@__crt_stdio_output@@YA_N_KDW4length_modifier@0@@Z 1001e10e f i libucrt:output.obj
 0001:0001d14e       ??$scratch_data@D@formatting_buffer@__crt_stdio_output@@QAEPADXZ 1001e14e f i libucrt:output.obj
 0001:0001d16c       ??$type_case_integer_parse_into_buffer@I@?$output_processor@DV?$string_output_adapter@D@__crt_stdio_output@@V?$format_validation_base@DV?$string_output_adapter@D@__crt_stdio_output@@@2@@__crt_stdio_output@@AAEXII_N@Z 1001e16c f i libucrt:output.obj
 0001:0001d16c       ??$type_case_integer_parse_into_buffer@I@?$output_processor@DV?$string_output_adapter@D@__crt_stdio_output@@V?$standard_base@DV?$string_output_adapter@D@__crt_stdio_output@@@2@@__crt_stdio_output@@AAEXII_N@Z 1001e16c f i libucrt:output.obj
 0001:0001d16c       ??$type_case_integer_parse_into_buffer@I@?$output_processor@DV?$stream_output_adapter@D@__crt_stdio_output@@V?$standard_base@DV?$stream_output_adapter@D@__crt_stdio_output@@@2@@__crt_stdio_output@@AAEXII_N@Z 1001e16c f i libucrt:output.obj
 0001:0001d1e1       ??$type_case_integer_parse_into_buffer@_K@?$output_processor@DV?$string_output_adapter@D@__crt_stdio_output@@V?$standard_base@DV?$string_output_adapter@D@__crt_stdio_output@@@2@@__crt_stdio_output@@AAEX_KI_N@Z 1001e1e1 f i libucrt:output.obj
 0001:0001d1e1       ??$type_case_integer_parse_into_buffer@_K@?$output_processor@DV?$stream_output_adapter@D@__crt_stdio_output@@V?$standard_base@DV?$stream_output_adapter@D@__crt_stdio_output@@@2@@__crt_stdio_output@@AAEX_KI_N@Z 1001e1e1 f i libucrt:output.obj
 0001:0001d1e1       ??$type_case_integer_parse_into_buffer@_K@?$output_processor@DV?$string_output_adapter@D@__crt_stdio_output@@V?$format_validation_base@DV?$string_output_adapter@D@__crt_stdio_output@@@2@@__crt_stdio_output@@AAEX_KI_N@Z 1001e1e1 f i libucrt:output.obj
 0001:0001d269       ??$write_multiple_characters@V?$stream_output_adapter@D@__crt_stdio_output@@D@__crt_stdio_output@@YAXABV?$stream_output_adapter@D@0@DHQAH@Z 1001e269 f i libucrt:output.obj
 0001:0001d295       ??$write_multiple_characters@V?$string_output_adapter@D@__crt_stdio_output@@D@__crt_stdio_output@@YAXABV?$string_output_adapter@D@0@DHQAH@Z 1001e295 f i libucrt:output.obj
 0001:0001d2c1       ??0?$common_data@D@__crt_stdio_output@@IAE@XZ 1001e2c1 f i libucrt:output.obj
 0001:0001d308       ??0?$output_adapter_data@DV?$stream_output_adapter@D@__crt_stdio_output@@@__crt_stdio_output@@IAE@ABV?$stream_output_adapter@D@1@_KQBDQAU__crt_locale_pointers@@QAD@Z 1001e308 f i libucrt:output.obj
 0001:0001d308       ??0?$output_adapter_data@DV?$string_output_adapter@D@__crt_stdio_output@@@__crt_stdio_output@@IAE@ABV?$string_output_adapter@D@1@_KQBDQAU__crt_locale_pointers@@QAD@Z 1001e308 f i libucrt:output.obj
 0001:0001d344       ??0?$output_processor@DV?$string_output_adapter@D@__crt_stdio_output@@V?$format_validation_base@DV?$string_output_adapter@D@__crt_stdio_output@@@2@@__crt_stdio_output@@QAE@ABV?$string_output_adapter@D@1@_KQBDQAU__crt_locale_pointers@@QAD@Z 1001e344 f i libucrt:output.obj
 0001:0001d344       ??0?$output_processor@DV?$stream_output_adapter@D@__crt_stdio_output@@V?$standard_base@DV?$stream_output_adapter@D@__crt_stdio_output@@@2@@__crt_stdio_output@@QAE@ABV?$stream_output_adapter@D@1@_KQBDQAU__crt_locale_pointers@@QAD@Z 1001e344 f i libucrt:output.obj
 0001:0001d344       ??0?$output_processor@DV?$string_output_adapter@D@__crt_stdio_output@@V?$standard_base@DV?$string_output_adapter@D@__crt_stdio_output@@@2@@__crt_stdio_output@@QAE@ABV?$string_output_adapter@D@1@_KQBDQAU__crt_locale_pointers@@QAD@Z 1001e344 f i libucrt:output.obj
 0001:0001d379       ??0_LocaleUpdate@@QAE@QAU__crt_locale_pointers@@@Z 1001e379 f i libucrt:output.obj
 0001:0001d3fc       ??1formatting_buffer@__crt_stdio_output@@QAE@XZ 1001e3fc f i libucrt:output.obj
 0001:0001d416       ??4?$__crt_unique_heap_ptr@DU__crt_internal_free_policy@@@@QAEAAV0@$$QAV0@@Z 1001e416 f i libucrt:output.obj
 0001:0001d4f7       ?crop_zeroes@__crt_stdio_output@@YAXPADQAU__crt_locale_pointers@@@Z 1001e4f7 f i libucrt:output.obj
 0001:0001d54e       ?find_next_state@?$output_processor@DV?$string_output_adapter@D@__crt_stdio_output@@V?$standard_base@DV?$string_output_adapter@D@__crt_stdio_output@@@2@@__crt_stdio_output@@ABE?AW4state@2@DW432@@Z 1001e54e f i libucrt:output.obj
 0001:0001d54e       ?find_next_state@?$output_processor@DV?$stream_output_adapter@D@__crt_stdio_output@@V?$standard_base@DV?$stream_output_adapter@D@__crt_stdio_output@@@2@@__crt_stdio_output@@ABE?AW4state@2@DW432@@Z 1001e54e f i libucrt:output.obj
 0001:0001d580       ?find_next_state@?$output_processor@DV?$string_output_adapter@D@__crt_stdio_output@@V?$format_validation_base@DV?$string_output_adapter@D@__crt_stdio_output@@@2@@__crt_stdio_output@@ABE?AW4state@2@DW432@@Z 1001e580 f i libucrt:output.obj
 0001:0001d5b5       ?force_decimal_point@__crt_stdio_output@@YAXPADQAU__crt_locale_pointers@@@Z 1001e5b5 f i libucrt:output.obj
 0001:0001d611       ?parse_int_from_format_string@?$output_processor@DV?$string_output_adapter@D@__crt_stdio_output@@V?$format_validation_base@DV?$string_output_adapter@D@__crt_stdio_output@@@2@@__crt_stdio_output@@AAE_NQAH@Z 1001e611 f i libucrt:output.obj
 0001:0001d611       ?parse_int_from_format_string@?$output_processor@DV?$stream_output_adapter@D@__crt_stdio_output@@V?$standard_base@DV?$stream_output_adapter@D@__crt_stdio_output@@@2@@__crt_stdio_output@@AAE_NQAH@Z 1001e611 f i libucrt:output.obj
 0001:0001d611       ?parse_int_from_format_string@?$output_processor@DV?$string_output_adapter@D@__crt_stdio_output@@V?$standard_base@DV?$string_output_adapter@D@__crt_stdio_output@@@2@@__crt_stdio_output@@AAE_NQAH@Z 1001e611 f i libucrt:output.obj
 0001:0001d66d       ?process@?$output_processor@DV?$stream_output_adapter@D@__crt_stdio_output@@V?$standard_base@DV?$stream_output_adapter@D@__crt_stdio_output@@@2@@__crt_stdio_output@@QAEHXZ 1001e66d f i libucrt:output.obj
 0001:0001d789       ?process@?$output_processor@DV?$string_output_adapter@D@__crt_stdio_output@@V?$format_validation_base@DV?$string_output_adapter@D@__crt_stdio_output@@@2@@__crt_stdio_output@@QAEHXZ 1001e789 f i libucrt:output.obj
 0001:0001d8b1       ?process@?$output_processor@DV?$string_output_adapter@D@__crt_stdio_output@@V?$standard_base@DV?$string_output_adapter@D@__crt_stdio_output@@@2@@__crt_stdio_output@@QAEHXZ 1001e8b1 f i libucrt:output.obj
 0001:0001d9cd       ?state_case_flag@?$output_processor@DV?$string_output_adapter@D@__crt_stdio_output@@V?$standard_base@DV?$string_output_adapter@D@__crt_stdio_output@@@2@@__crt_stdio_output@@AAE_NXZ 1001e9cd f i libucrt:output.obj
 0001:0001d9cd       ?state_case_flag@?$output_processor@DV?$string_output_adapter@D@__crt_stdio_output@@V?$format_validation_base@DV?$string_output_adapter@D@__crt_stdio_output@@@2@@__crt_stdio_output@@AAE_NXZ 1001e9cd f i libucrt:output.obj
 0001:0001d9cd       ?state_case_flag@?$output_processor@DV?$stream_output_adapter@D@__crt_stdio_output@@V?$standard_base@DV?$stream_output_adapter@D@__crt_stdio_output@@@2@@__crt_stdio_output@@AAE_NXZ 1001e9cd f i libucrt:output.obj
 0001:0001da0a       ?state_case_normal@?$output_processor@DV?$stream_output_adapter@D@__crt_stdio_output@@V?$standard_base@DV?$stream_output_adapter@D@__crt_stdio_output@@@2@@__crt_stdio_output@@AAE_NXZ 1001ea0a f i libucrt:output.obj
 0001:0001da29       ?state_case_normal@?$output_processor@DV?$string_output_adapter@D@__crt_stdio_output@@V?$format_validation_base@DV?$string_output_adapter@D@__crt_stdio_output@@@2@@__crt_stdio_output@@AAE_NXZ 1001ea29 f i libucrt:output.obj
 0001:0001da29       ?state_case_normal@?$output_processor@DV?$string_output_adapter@D@__crt_stdio_output@@V?$standard_base@DV?$string_output_adapter@D@__crt_stdio_output@@@2@@__crt_stdio_output@@AAE_NXZ 1001ea29 f i libucrt:output.obj
 0001:0001da48       ?state_case_normal_common@?$output_processor@DV?$stream_output_adapter@D@__crt_stdio_output@@V?$standard_base@DV?$stream_output_adapter@D@__crt_stdio_output@@@2@@__crt_stdio_output@@AAE_NXZ 1001ea48 f i libucrt:output.obj
 0001:0001da72       ?state_case_normal_common@?$output_processor@DV?$string_output_adapter@D@__crt_stdio_output@@V?$format_validation_base@DV?$string_output_adapter@D@__crt_stdio_output@@@2@@__crt_stdio_output@@AAE_NXZ 1001ea72 f i libucrt:output.obj
 0001:0001da72       ?state_case_normal_common@?$output_processor@DV?$string_output_adapter@D@__crt_stdio_output@@V?$standard_base@DV?$string_output_adapter@D@__crt_stdio_output@@@2@@__crt_stdio_output@@AAE_NXZ 1001ea72 f i libucrt:output.obj
 0001:0001da9c       ?state_case_normal_tchar@?$output_processor@DV?$stream_output_adapter@D@__crt_stdio_output@@V?$standard_base@DV?$stream_output_adapter@D@__crt_stdio_output@@@2@@__crt_stdio_output@@AAE_ND@Z 1001ea9c f i libucrt:output.obj
 0001:0001dafd       ?state_case_normal_tchar@?$output_processor@DV?$string_output_adapter@D@__crt_stdio_output@@V?$format_validation_base@DV?$string_output_adapter@D@__crt_stdio_output@@@2@@__crt_stdio_output@@AAE_ND@Z 1001eafd f i libucrt:output.obj
 0001:0001dafd       ?state_case_normal_tchar@?$output_processor@DV?$string_output_adapter@D@__crt_stdio_output@@V?$standard_base@DV?$string_output_adapter@D@__crt_stdio_output@@@2@@__crt_stdio_output@@AAE_ND@Z 1001eafd f i libucrt:output.obj
 0001:0001db5e       ?state_case_precision@?$output_processor@DV?$string_output_adapter@D@__crt_stdio_output@@V?$standard_base@DV?$string_output_adapter@D@__crt_stdio_output@@@2@@__crt_stdio_output@@AAE_NXZ 1001eb5e f i libucrt:output.obj
 0001:0001db5e       ?state_case_precision@?$output_processor@DV?$string_output_adapter@D@__crt_stdio_output@@V?$format_validation_base@DV?$string_output_adapter@D@__crt_stdio_output@@@2@@__crt_stdio_output@@AAE_NXZ 1001eb5e f i libucrt:output.obj
 0001:0001db5e       ?state_case_precision@?$output_processor@DV?$stream_output_adapter@D@__crt_stdio_output@@V?$standard_base@DV?$stream_output_adapter@D@__crt_stdio_output@@@2@@__crt_stdio_output@@AAE_NXZ 1001eb5e f i libucrt:output.obj
 0001:0001db86       ?state_case_size@?$output_processor@DV?$stream_output_adapter@D@__crt_stdio_output@@V?$standard_base@DV?$stream_output_adapter@D@__crt_stdio_output@@@2@@__crt_stdio_output@@AAE_NXZ 1001eb86 f i libucrt:output.obj
 0001:0001dcef       ?state_case_size@?$output_processor@DV?$string_output_adapter@D@__crt_stdio_output@@V?$standard_base@DV?$string_output_adapter@D@__crt_stdio_output@@@2@@__crt_stdio_output@@AAE_NXZ 1001ecef f i libucrt:output.obj
 0001:0001dcef       ?state_case_size@?$output_processor@DV?$string_output_adapter@D@__crt_stdio_output@@V?$format_validation_base@DV?$string_output_adapter@D@__crt_stdio_output@@@2@@__crt_stdio_output@@AAE_NXZ 1001ecef f i libucrt:output.obj
 0001:0001de58       ?state_case_type@?$output_processor@DV?$stream_output_adapter@D@__crt_stdio_output@@V?$standard_base@DV?$stream_output_adapter@D@__crt_stdio_output@@@2@@__crt_stdio_output@@AAE_NXZ 1001ee58 f i libucrt:output.obj
 0001:0001e087       ?state_case_type@?$output_processor@DV?$string_output_adapter@D@__crt_stdio_output@@V?$standard_base@DV?$string_output_adapter@D@__crt_stdio_output@@@2@@__crt_stdio_output@@AAE_NXZ 1001f087 f i libucrt:output.obj
 0001:0001e087       ?state_case_type@?$output_processor@DV?$string_output_adapter@D@__crt_stdio_output@@V?$format_validation_base@DV?$string_output_adapter@D@__crt_stdio_output@@@2@@__crt_stdio_output@@AAE_NXZ 1001f087 f i libucrt:output.obj
 0001:0001e2b6       ?state_case_width@?$output_processor@DV?$string_output_adapter@D@__crt_stdio_output@@V?$standard_base@DV?$string_output_adapter@D@__crt_stdio_output@@@2@@__crt_stdio_output@@AAE_NXZ 1001f2b6 f i libucrt:output.obj
 0001:0001e2b6       ?state_case_width@?$output_processor@DV?$stream_output_adapter@D@__crt_stdio_output@@V?$standard_base@DV?$stream_output_adapter@D@__crt_stdio_output@@@2@@__crt_stdio_output@@AAE_NXZ 1001f2b6 f i libucrt:output.obj
 0001:0001e2b6       ?state_case_width@?$output_processor@DV?$string_output_adapter@D@__crt_stdio_output@@V?$format_validation_base@DV?$string_output_adapter@D@__crt_stdio_output@@@2@@__crt_stdio_output@@AAE_NXZ 1001f2b6 f i libucrt:output.obj
 0001:0001e2e1       ?to_integer_size@__crt_stdio_output@@YAIW4length_modifier@1@@Z 1001f2e1 f i libucrt:output.obj
 0001:0001e33d       ?type_case_Z@?$output_processor@DV?$string_output_adapter@D@__crt_stdio_output@@V?$format_validation_base@DV?$string_output_adapter@D@__crt_stdio_output@@@2@@__crt_stdio_output@@AAE_NXZ 1001f33d f i libucrt:output.obj
 0001:0001e33d       ?type_case_Z@?$output_processor@DV?$stream_output_adapter@D@__crt_stdio_output@@V?$standard_base@DV?$stream_output_adapter@D@__crt_stdio_output@@@2@@__crt_stdio_output@@AAE_NXZ 1001f33d f i libucrt:output.obj
 0001:0001e33d       ?type_case_Z@?$output_processor@DV?$string_output_adapter@D@__crt_stdio_output@@V?$standard_base@DV?$string_output_adapter@D@__crt_stdio_output@@@2@@__crt_stdio_output@@AAE_NXZ 1001f33d f i libucrt:output.obj
 0001:0001e3a0       ?type_case_a@?$output_processor@DV?$string_output_adapter@D@__crt_stdio_output@@V?$standard_base@DV?$string_output_adapter@D@__crt_stdio_output@@@2@@__crt_stdio_output@@AAE_NXZ 1001f3a0 f i libucrt:output.obj
 0001:0001e3a0       ?type_case_a@?$output_processor@DV?$stream_output_adapter@D@__crt_stdio_output@@V?$standard_base@DV?$stream_output_adapter@D@__crt_stdio_output@@@2@@__crt_stdio_output@@AAE_NXZ 1001f3a0 f i libucrt:output.obj
 0001:0001e3a0       ?type_case_a@?$output_processor@DV?$string_output_adapter@D@__crt_stdio_output@@V?$format_validation_base@DV?$string_output_adapter@D@__crt_stdio_output@@@2@@__crt_stdio_output@@AAE_NXZ 1001f3a0 f i libucrt:output.obj
 0001:0001e4fa       ?type_case_c_tchar@?$output_processor@DV?$stream_output_adapter@D@__crt_stdio_output@@V?$standard_base@DV?$stream_output_adapter@D@__crt_stdio_output@@@2@@__crt_stdio_output@@AAE_ND@Z 1001f4fa f i libucrt:output.obj
 0001:0001e4fa       ?type_case_c_tchar@?$output_processor@DV?$string_output_adapter@D@__crt_stdio_output@@V?$standard_base@DV?$string_output_adapter@D@__crt_stdio_output@@@2@@__crt_stdio_output@@AAE_ND@Z 1001f4fa f i libucrt:output.obj
 0001:0001e4fa       ?type_case_c_tchar@?$output_processor@DV?$string_output_adapter@D@__crt_stdio_output@@V?$format_validation_base@DV?$string_output_adapter@D@__crt_stdio_output@@@2@@__crt_stdio_output@@AAE_ND@Z 1001f4fa f i libucrt:output.obj
 0001:0001e58a       ?type_case_integer@?$output_processor@DV?$string_output_adapter@D@__crt_stdio_output@@V?$standard_base@DV?$string_output_adapter@D@__crt_stdio_output@@@2@@__crt_stdio_output@@AAE_NI_N@Z 1001f58a f i libucrt:output.obj
 0001:0001e58a       ?type_case_integer@?$output_processor@DV?$stream_output_adapter@D@__crt_stdio_output@@V?$standard_base@DV?$stream_output_adapter@D@__crt_stdio_output@@@2@@__crt_stdio_output@@AAE_NI_N@Z 1001f58a f i libucrt:output.obj
 0001:0001e58a       ?type_case_integer@?$output_processor@DV?$string_output_adapter@D@__crt_stdio_output@@V?$format_validation_base@DV?$string_output_adapter@D@__crt_stdio_output@@@2@@__crt_stdio_output@@AAE_NI_N@Z 1001f58a f i libucrt:output.obj
 0001:0001e6d4       ?type_case_n@?$output_processor@DV?$string_output_adapter@D@__crt_stdio_output@@V?$standard_base@DV?$string_output_adapter@D@__crt_stdio_output@@@2@@__crt_stdio_output@@AAE_NXZ 1001f6d4 f i libucrt:output.obj
 0001:0001e6d4       ?type_case_n@?$output_processor@DV?$stream_output_adapter@D@__crt_stdio_output@@V?$standard_base@DV?$stream_output_adapter@D@__crt_stdio_output@@@2@@__crt_stdio_output@@AAE_NXZ 1001f6d4 f i libucrt:output.obj
 0001:0001e6d4       ?type_case_n@?$output_processor@DV?$string_output_adapter@D@__crt_stdio_output@@V?$format_validation_base@DV?$string_output_adapter@D@__crt_stdio_output@@@2@@__crt_stdio_output@@AAE_NXZ 1001f6d4 f i libucrt:output.obj
 0001:0001e748       ?type_case_o@?$output_processor@DV?$string_output_adapter@D@__crt_stdio_output@@V?$format_validation_base@DV?$string_output_adapter@D@__crt_stdio_output@@@2@@__crt_stdio_output@@AAE_NXZ 1001f748 f i libucrt:output.obj
 0001:0001e748       ?type_case_o@?$output_processor@DV?$string_output_adapter@D@__crt_stdio_output@@V?$standard_base@DV?$string_output_adapter@D@__crt_stdio_output@@@2@@__crt_stdio_output@@AAE_NXZ 1001f748 f i libucrt:output.obj
 0001:0001e748       ?type_case_o@?$output_processor@DV?$stream_output_adapter@D@__crt_stdio_output@@V?$standard_base@DV?$stream_output_adapter@D@__crt_stdio_output@@@2@@__crt_stdio_output@@AAE_NXZ 1001f748 f i libucrt:output.obj
 0001:0001e767       ?type_case_p@?$output_processor@DV?$stream_output_adapter@D@__crt_stdio_output@@V?$standard_base@DV?$stream_output_adapter@D@__crt_stdio_output@@@2@@__crt_stdio_output@@AAE_NXZ 1001f767 f i libucrt:output.obj
 0001:0001e767       ?type_case_p@?$output_processor@DV?$string_output_adapter@D@__crt_stdio_output@@V?$standard_base@DV?$string_output_adapter@D@__crt_stdio_output@@@2@@__crt_stdio_output@@AAE_NXZ 1001f767 f i libucrt:output.obj
 0001:0001e767       ?type_case_p@?$output_processor@DV?$string_output_adapter@D@__crt_stdio_output@@V?$format_validation_base@DV?$string_output_adapter@D@__crt_stdio_output@@@2@@__crt_stdio_output@@AAE_NXZ 1001f767 f i libucrt:output.obj
 0001:0001e77f       ?type_case_s@?$output_processor@DV?$string_output_adapter@D@__crt_stdio_output@@V?$standard_base@DV?$string_output_adapter@D@__crt_stdio_output@@@2@@__crt_stdio_output@@AAE_NXZ 1001f77f f i libucrt:output.obj
 0001:0001e77f       ?type_case_s@?$output_processor@DV?$stream_output_adapter@D@__crt_stdio_output@@V?$standard_base@DV?$stream_output_adapter@D@__crt_stdio_output@@@2@@__crt_stdio_output@@AAE_NXZ 1001f77f f i libucrt:output.obj
 0001:0001e77f       ?type_case_s@?$output_processor@DV?$string_output_adapter@D@__crt_stdio_output@@V?$format_validation_base@DV?$string_output_adapter@D@__crt_stdio_output@@@2@@__crt_stdio_output@@AAE_NXZ 1001f77f f i libucrt:output.obj
 0001:0001e7f2       ?validate_and_update_state_at_end_of_format_string@?$format_validation_base@DV?$string_output_adapter@D@__crt_stdio_output@@@__crt_stdio_output@@IBE_NXZ 1001f7f2 f i libucrt:output.obj
 0001:0001e814       ?validate_stream_is_ansi_if_required@?$__acrt_stdio_char_traits@D@@SA_NQAU_iobuf@@@Z 1001f814 f i libucrt:output.obj
 0001:0001e896       ?write_character@?$stream_output_adapter@D@__crt_stdio_output@@QBEXDQAH@Z 1001f896 f i libucrt:output.obj
 0001:0001e8d3       ?write_character@?$string_output_adapter@D@__crt_stdio_output@@QBE_NDQAH@Z 1001f8d3 f i libucrt:output.obj
 0001:0001e915       ?write_stored_string_tchar@?$output_processor@DV?$stream_output_adapter@D@__crt_stdio_output@@V?$standard_base@DV?$stream_output_adapter@D@__crt_stdio_output@@@2@@__crt_stdio_output@@AAE_ND@Z 1001f915 f i libucrt:output.obj
 0001:0001e9bc       ?write_stored_string_tchar@?$output_processor@DV?$string_output_adapter@D@__crt_stdio_output@@V?$standard_base@DV?$string_output_adapter@D@__crt_stdio_output@@@2@@__crt_stdio_output@@AAE_ND@Z 1001f9bc f i libucrt:output.obj
 0001:0001e9bc       ?write_stored_string_tchar@?$output_processor@DV?$string_output_adapter@D@__crt_stdio_output@@V?$format_validation_base@DV?$string_output_adapter@D@__crt_stdio_output@@@2@@__crt_stdio_output@@AAE_ND@Z 1001f9bc f i libucrt:output.obj
 0001:0001ea63       ?write_string@?$stream_output_adapter@D@__crt_stdio_output@@QBEXQBDHQAH1@Z 1001fa63 f i libucrt:output.obj
 0001:0001eaed       ?write_string@?$string_output_adapter@D@__crt_stdio_output@@QBEXQBDHQAH1@Z 1001faed f i libucrt:output.obj
 0001:0001eb80       ___stdio_common_vfprintf   1001fb80 f   libucrt:output.obj
 0001:0001ebf7       ___stdio_common_vsprintf   1001fbf7 f   libucrt:output.obj
 0001:0001ec1b       ___stdio_common_vsprintf_s 1001fc1b f   libucrt:output.obj
 0001:0001ec3f       ___acrt_call_reportfault   1001fc3f f   libucrt:invalid_parameter.obj
 0001:0001ed7a       ___acrt_initialize_invalid_parameter_handler 1001fd7a f   libucrt:invalid_parameter.obj
 0001:0001ed8e       __invalid_parameter        1001fd8e f   libucrt:invalid_parameter.obj
 0001:0001ee09       __invalid_parameter_noinfo 1001fe09 f   libucrt:invalid_parameter.obj
 0001:0001ee19       __invalid_parameter_noinfo_noreturn 1001fe19 f   libucrt:invalid_parameter.obj
 0001:0001ee36       __invoke_watson            1001fe36 f   libucrt:invalid_parameter.obj
 0001:0001ee69       _free                      1001fe69 f   libucrt:free.obj
 0001:0001ee6e       _malloc                    1001fe6e f   libucrt:malloc.obj
 0001:0001ee79       __difftime64               1001fe79 f   libucrt:difftime.obj
 0001:0001eec0       ??$__crt_time_elapsed_leap_years@H@@YAHH@Z 1001fec0 f i libucrt:gmtime.obj
 0001:0001eefa       ??$__crt_time_is_leap_year@H@@YA_NH@Z 1001fefa f i libucrt:gmtime.obj
 0001:0001f12c       ___getgmtimebuf            1002012c f   libucrt:gmtime.obj
 0001:0001f16a       __gmtime64                 1002016a f   libucrt:gmtime.obj
 0001:0001f210       __time64                   10020210 f   libucrt:time.obj
 0001:0001f313       _fopen                     10020313 f   libucrt:fopen.obj
 0001:0001f32a       __fclose_nolock            1002032a f   libucrt:fclose.obj
 0001:0001f3a0       _fclose                    100203a0 f   libucrt:fclose.obj
 0001:0001f420       ??$?RV<lambda_948e0c831b1eafdf53315a00da3ad7eb>@@AAV<lambda_d82aded7e80d0a2836af81596bef263e>@@V<lambda_9cb36f98846f17dfe48cc7d4c6a6fede>@@@?$__crt_seh_guarded_call@H@@QAEH$$QAV<lambda_948e0c831b1eafdf53315a00da3ad7eb>@@AAV<lambda_d82aded7e80d0a2836af81596bef263e>@@$$QAV<lambda_9cb36f98846f17dfe48cc7d4c6a6fede>@@@Z 10020420 f i libucrt:input.obj
 0001:0001f471       ??$__acrt_lock_stream_and_call@V<lambda_d82aded7e80d0a2836af81596bef263e>@@@@YAHQAU_iobuf@@$$QAV<lambda_d82aded7e80d0a2836af81596bef263e>@@@Z 10020471 f i libucrt:input.obj
 0001:0001f499       ??$assemble_floating_point_ind@N@__crt_strtox@@YAXAAN@Z 10020499 f i libucrt:input.obj
 0001:0001f4c8       ??$assemble_floating_point_infinity@N@__crt_strtox@@YAX_NAAN@Z 100204c8 f i libucrt:input.obj
 0001:0001f507       ??$assemble_floating_point_qnan@N@__crt_strtox@@YAX_NAAN@Z 10020507 f i libucrt:input.obj
 0001:0001f546       ??$assemble_floating_point_snan@N@__crt_strtox@@YAX_NAAN@Z 10020546 f i libucrt:input.obj
 0001:0001f58a       ??$assemble_floating_point_value_t@M@__crt_strtox@@YA?AW4SLD_STATUS@@_NH_KAAM@Z 1002058a f i libucrt:input.obj
 0001:0001f5ba       ??$assemble_floating_point_value_t@N@__crt_strtox@@YA?AW4SLD_STATUS@@_NH_KAAN@Z 100205ba f i libucrt:input.obj
 0001:0001f619       ??$assemble_floating_point_zero@N@__crt_strtox@@YAX_NAAN@Z 10020619 f i libucrt:input.obj
 0001:0001f658       ??$convert_decimal_string_to_floating_type@M@__crt_strtox@@YA?AW4SLD_STATUS@@ABUfloating_point_string@0@AAM@Z 10020658 f i libucrt:input.obj
 0001:0001f67b       ??$convert_decimal_string_to_floating_type@N@__crt_strtox@@YA?AW4SLD_STATUS@@ABUfloating_point_string@0@AAN@Z 1002067b f i libucrt:input.obj
 0001:0001f69e       ??$convert_hexadecimal_string_to_floating_type@M@__crt_strtox@@YA?AW4SLD_STATUS@@ABUfloating_point_string@0@AAM@Z 1002069e f i libucrt:input.obj
 0001:0001f6c1       ??$convert_hexadecimal_string_to_floating_type@N@__crt_strtox@@YA?AW4SLD_STATUS@@ABUfloating_point_string@0@AAN@Z 100206c1 f i libucrt:input.obj
 0001:0001f6e4       ??$is_overflow_condition@_K@__crt_strtox@@YA_NI_K@Z 100206e4 f i libucrt:input.obj
 0001:0001f727       ??$make_input_adapter_character_source@V?$stream_input_adapter@D@__crt_stdio_input@@@__crt_strtox@@YA?AV?$input_adapter_character_source@V?$stream_input_adapter@D@__crt_stdio_input@@@0@QAV?$stream_input_adapter@D@__crt_stdio_input@@_KQA_N@Z 10020727 f i libucrt:input.obj
 0001:0001f745       ??$parse_floating_point@V?$input_adapter_character_source@V?$stream_input_adapter@D@__crt_stdio_input@@@__crt_strtox@@M@__crt_strtox@@YA?AW4SLD_STATUS@@QAU__crt_locale_pointers@@V?$input_adapter_character_source@V?$stream_input_adapter@D@__crt_stdio_input@@@0@QAM@Z 10020745 f i libucrt:input.obj
 0001:0001f7c0       ??$parse_floating_point@V?$input_adapter_character_source@V?$stream_input_adapter@D@__crt_stdio_input@@@__crt_strtox@@N@__crt_strtox@@YA?AW4SLD_STATUS@@QAU__crt_locale_pointers@@V?$input_adapter_character_source@V?$stream_input_adapter@D@__crt_stdio_input@@@0@QAN@Z 100207c0 f i libucrt:input.obj
 0001:0001f83b       ??$parse_floating_point_from_source@V?$input_adapter_character_source@V?$stream_input_adapter@D@__crt_stdio_input@@@__crt_strtox@@@__crt_strtox@@YA?AW4floating_point_parse_result@0@QAU__crt_locale_pointers@@AAV?$input_adapter_character_source@V?$stream_input_adapter@D@__crt_stdio_input@@@0@AAUfloating_point_string@0@@Z 1002083b f i libucrt:input.obj
 0001:0001fca2       ??$parse_floating_point_possible_infinity@DV?$input_adapter_character_source@V?$stream_input_adapter@D@__crt_stdio_input@@@__crt_strtox@@_K@__crt_strtox@@YA?AW4floating_point_parse_result@0@AADAAV?$input_adapter_character_source@V?$stream_input_adapter@D@__crt_stdio_input@@@0@_K@Z 10020ca2 f i libucrt:input.obj
 0001:0001fd63       ??$parse_floating_point_possible_nan@DV?$input_adapter_character_source@V?$stream_input_adapter@D@__crt_stdio_input@@@__crt_strtox@@_K@__crt_strtox@@YA?AW4floating_point_parse_result@0@AADAAV?$input_adapter_character_source@V?$stream_input_adapter@D@__crt_stdio_input@@@0@_K@Z 10020d63 f i libucrt:input.obj
 0001:0001fe75       ??$parse_floating_point_possible_nan_is_ind@DV?$input_adapter_character_source@V?$stream_input_adapter@D@__crt_stdio_input@@@__crt_strtox@@@__crt_strtox@@YA_NAADAAV?$input_adapter_character_source@V?$stream_input_adapter@D@__crt_stdio_input@@@0@@Z 10020e75 f i libucrt:input.obj
 0001:0001feaf       ??$parse_floating_point_possible_nan_is_snan@DV?$input_adapter_character_source@V?$stream_input_adapter@D@__crt_stdio_input@@@__crt_strtox@@@__crt_strtox@@YA_NAADAAV?$input_adapter_character_source@V?$stream_input_adapter@D@__crt_stdio_input@@@0@@Z 10020eaf f i libucrt:input.obj
 0001:0001fee9       ??$parse_floating_point_write_result@M@__crt_strtox@@YA?AW4SLD_STATUS@@W4floating_point_parse_result@0@ABUfloating_point_string@0@QAM@Z 10020ee9 f i libucrt:input.obj
 0001:0001fff9       ??$parse_floating_point_write_result@N@__crt_strtox@@YA?AW4SLD_STATUS@@W4floating_point_parse_result@0@ABUfloating_point_string@0@QAN@Z 10020ff9 f i libucrt:input.obj
 0001:000200fd       ??$parse_integer@_KV?$input_adapter_character_source@V?$stream_input_adapter@D@__crt_stdio_input@@@__crt_strtox@@@__crt_strtox@@YA_KQAU__crt_locale_pointers@@V?$input_adapter_character_source@V?$stream_input_adapter@D@__crt_stdio_input@@@0@H_N@Z 100210fd f i libucrt:input.obj
 0001:000203ae       ??$process_floating_point_specifier_t@M@?$input_processor@DV?$stream_input_adapter@D@__crt_stdio_input@@@__crt_stdio_input@@AAE_NXZ 100213ae f i libucrt:input.obj
 0001:00020416       ??$process_floating_point_specifier_t@N@?$input_processor@DV?$stream_input_adapter@D@__crt_stdio_input@@@__crt_stdio_input@@AAE_NXZ 10021416 f i libucrt:input.obj
 0001:0002047e       ??$process_string_specifier_tchar@D@?$input_processor@DV?$stream_input_adapter@D@__crt_stdio_input@@@__crt_stdio_input@@AAE_NW4conversion_mode@1@D@Z 1002147e f i libucrt:input.obj
 0001:000205f2       ??$process_string_specifier_tchar@_W@?$input_processor@DV?$stream_input_adapter@D@__crt_stdio_input@@@__crt_stdio_input@@AAE_NW4conversion_mode@1@_W@Z 100215f2 f i libucrt:input.obj
 0001:00020770       ??$skip_whitespace@Vstream_input_adapter@__crt_stdio_input@@D@__crt_stdio_input@@YAHAAV?$stream_input_adapter@D@0@QAU__crt_locale_pointers@@@Z 10021770 f i libucrt:input.obj
 0001:000207a7       ??$write_floating_point@M@?$input_processor@DV?$stream_input_adapter@D@__crt_stdio_input@@@__crt_stdio_input@@AAE_NABM@Z 100217a7 f i libucrt:input.obj
 0001:000207de       ??$write_floating_point@N@?$input_processor@DV?$stream_input_adapter@D@__crt_stdio_input@@@__crt_stdio_input@@AAE_NABN@Z 100217de f i libucrt:input.obj
 0001:0002081b       ??0?$format_string_parser@D@__crt_stdio_input@@QAE@_KQBE@Z 1002181b f i libucrt:input.obj
 0001:00020865       ??0?$input_adapter_character_source@V?$stream_input_adapter@D@__crt_stdio_input@@@__crt_strtox@@QAE@QAV?$stream_input_adapter@D@__crt_stdio_input@@_KQA_N@Z 10021865 f i libucrt:input.obj
 0001:00020896       ??0?$input_processor@DV?$stream_input_adapter@D@__crt_stdio_input@@@__crt_stdio_input@@QAE@ABV?$stream_input_adapter@D@1@_KQBDQAU__crt_locale_pointers@@QAD@Z 10021896 f i libucrt:input.obj
 0001:0002098f       ?advance@?$format_string_parser@D@__crt_stdio_input@@QAE_NXZ 1002198f f i libucrt:input.obj
 0001:00020aaf       ?as_double@floating_point_value@__crt_strtox@@QBEAANXZ 10021aaf f i libucrt:input.obj
 0001:00020ad4       ?as_float@floating_point_value@__crt_strtox@@QBEAAMXZ 10021ad4 f i libucrt:input.obj
 0001:00020af9       ?assemble_floating_point_infinity@__crt_strtox@@YAX_NABVfloating_point_value@1@@Z 10021af9 f i libucrt:input.obj
 0001:00020b33       ?assemble_floating_point_value@__crt_strtox@@YA?AW4SLD_STATUS@@_KH_N1ABVfloating_point_value@1@@Z 10021b33 f i libucrt:input.obj
 0001:00020e7f       ?assemble_floating_point_value_from_big_integer@__crt_strtox@@YA?AW4SLD_STATUS@@ABUbig_integer@1@I_N1ABVfloating_point_value@1@@Z 10021e7f f i libucrt:input.obj
 0001:0002100d       ?assemble_floating_point_zero@__crt_strtox@@YAX_NABVfloating_point_value@1@@Z 1002200d f i libucrt:input.obj
 0001:00021041       ?convert_decimal_string_to_floating_type_common@__crt_strtox@@YA?AW4SLD_STATUS@@ABUfloating_point_string@1@ABVfloating_point_value@1@@Z 10022041 f i libucrt:input.obj
 0001:00022e04       ?convert_hexadecimal_string_to_floating_type_common@__crt_strtox@@YA?AW4SLD_STATUS@@ABUfloating_point_string@1@ABVfloating_point_value@1@@Z 10023e04 f i libucrt:input.obj
 0001:00022eb0       ?denormal_mantissa_mask@floating_point_value@__crt_strtox@@QBE_KXZ 10023eb0 f i libucrt:input.obj
 0001:00022ed0       ?divide@__crt_strtox@@YA_KAAUbig_integer@1@ABU21@@Z 10023ed0 f i libucrt:input.obj
 0001:0002337e       ?get@?$input_adapter_character_source@V?$stream_input_adapter@D@__crt_stdio_input@@@__crt_strtox@@QAEDXZ 1002437e f i libucrt:input.obj
 0001:000233b7       ?invert@?$scanset_buffer@E@__crt_stdio_input@@QAEXXZ 100243b7 f i libucrt:input.obj
 0001:000233d5       ?is_character_allowed_in_string@?$input_processor@DV?$stream_input_adapter@D@__crt_stdio_input@@@__crt_stdio_input@@ABE_NW4conversion_mode@2@H@Z 100243d5 f i libucrt:input.obj
 0001:0002341b       ?length@?$format_string_parser@D@__crt_stdio_input@@QBEIXZ 1002441b f i libucrt:input.obj
 0001:0002345c       ?normal_mantissa_mask@floating_point_value@__crt_strtox@@QBE_KXZ 1002445c f i libucrt:input.obj
 0001:00023473       ?process@?$input_processor@DV?$stream_input_adapter@D@__crt_stdio_input@@@__crt_stdio_input@@QAEHXZ 10024473 f i libucrt:input.obj
 0001:000234ff       ?process_character_count_specifier@?$input_processor@DV?$stream_input_adapter@D@__crt_stdio_input@@@__crt_stdio_input@@AAE_NXZ 100244ff f i libucrt:input.obj
 0001:00023515       ?process_conversion_specifier@?$input_processor@DV?$stream_input_adapter@D@__crt_stdio_input@@@__crt_stdio_input@@AAE_NXZ 10024515 f i libucrt:input.obj
 0001:00023589       ?process_floating_point_specifier@?$input_processor@DV?$stream_input_adapter@D@__crt_stdio_input@@@__crt_stdio_input@@AAE_NXZ 10024589 f i libucrt:input.obj
 0001:000235b9       ?process_integer_specifier@?$input_processor@DV?$stream_input_adapter@D@__crt_stdio_input@@@__crt_stdio_input@@AAE_NI_N@Z 100245b9 f i libucrt:input.obj
 0001:0002361f       ?process_literal_character@?$input_processor@DV?$stream_input_adapter@D@__crt_stdio_input@@@__crt_stdio_input@@AAE_NXZ 1002461f f i libucrt:input.obj
 0001:00023655       ?process_literal_character_tchar@?$input_processor@DV?$stream_input_adapter@D@__crt_stdio_input@@@__crt_stdio_input@@AAE_ND@Z 10024655 f i libucrt:input.obj
 0001:000236b4       ?process_state@?$input_processor@DV?$stream_input_adapter@D@__crt_stdio_input@@@__crt_stdio_input@@AAE_NXZ 100246b4 f i libucrt:input.obj
 0001:000236ea       ?process_string_specifier@?$input_processor@DV?$stream_input_adapter@D@__crt_stdio_input@@@__crt_stdio_input@@AAE_NW4conversion_mode@2@@Z 100246ea f i libucrt:input.obj
 0001:00023732       ?process_whitespace@?$input_processor@DV?$stream_input_adapter@D@__crt_stdio_input@@@__crt_stdio_input@@AAE_NXZ 10024732 f i libucrt:input.obj
 0001:0002374f       ?restore_state@?$input_adapter_character_source@V?$stream_input_adapter@D@__crt_stdio_input@@@__crt_strtox@@QAE_N_K@Z 1002474f f i libucrt:input.obj
 0001:00023774       ?scan_conversion_specifier@?$format_string_parser@D@__crt_stdio_input@@AAE_NXZ 10024774 f i libucrt:input.obj
 0001:000238df       ?scan_optional_field_width@?$format_string_parser@D@__crt_stdio_input@@AAE_NXZ 100248df f i libucrt:input.obj
 0001:0002397e       ?scan_optional_length_modifier@?$format_string_parser@D@__crt_stdio_input@@AAEXXZ 1002497e f i libucrt:input.obj
 0001:00023a9e       ?scan_optional_literal_character_trail_bytes_tchar@?$format_string_parser@D@__crt_stdio_input@@AAE_ND@Z 10024a9e f i libucrt:input.obj
 0001:00023af3       ?scan_optional_wide_modifier@?$format_string_parser@D@__crt_stdio_input@@AAEXXZ 10024af3 f i libucrt:input.obj
 0001:00023b11       ?scan_scanset_range@?$format_string_parser@D@__crt_stdio_input@@AAE_NXZ 10024b11 f i libucrt:input.obj
 0001:00023c18       ?set@?$scanset_buffer@E@__crt_stdio_input@@QAEXE@Z 10024c18 f i libucrt:input.obj
 0001:00023c43       ?set_wide_for_c_s_or_scanset@?$format_string_parser@D@__crt_stdio_input@@AAEXXZ 10024c43 f i libucrt:input.obj
 0001:00023c63       ?test@?$scanset_buffer@E@__crt_stdio_input@@QBE_NE@Z 10024c63 f i libucrt:input.obj
 0001:00023c94       ?to_floating_point_length@__crt_stdio_input@@YAIW4length_modifier@1@@Z 10024c94 f i libucrt:input.obj
 0001:00023cb7       ?to_integer_length@__crt_stdio_input@@YAIW4length_modifier@1@@Z 10024cb7 f i libucrt:input.obj
 0001:00023d0f       ?unget@?$input_adapter_character_source@V?$stream_input_adapter@D@__crt_stdio_input@@@__crt_strtox@@QAEXD@Z 10024d0f f i libucrt:input.obj
 0001:00023d50       ?unget@?$stream_input_adapter@D@__crt_stdio_input@@QAEXH@Z 10024d50 f i libucrt:input.obj
 0001:00023d6e       ?validate@?$format_string_parser@D@__crt_stdio_input@@QBE_NXZ 10024d6e f i libucrt:input.obj
 0001:00023d8a       ?validate@?$input_adapter_character_source@V?$stream_input_adapter@D@__crt_stdio_input@@@__crt_strtox@@QBE_NXZ 10024d8a f i libucrt:input.obj
 0001:00023dab       ?validate@?$stream_input_adapter@D@__crt_stdio_input@@QBE_NXZ 10024dab f i libucrt:input.obj
 0001:00023dab       ?validate@?$stream_output_adapter@D@__crt_stdio_output@@QBE_NXZ 10024dab f i libucrt:output.obj
 0001:00023dcc       ?write_character@?$input_processor@DV?$stream_input_adapter@D@__crt_stdio_input@@@__crt_stdio_input@@AAE_NQA_WIAAPA_WAAID@Z 10024dcc f i libucrt:input.obj
 0001:00023e46       ?write_integer@?$input_processor@DV?$stream_input_adapter@D@__crt_stdio_input@@@__crt_stdio_input@@AAE_N_K_N@Z 10024e46 f i libucrt:input.obj
 0001:00023ebd       ___stdio_common_vfscanf    10024ebd f   libucrt:input.obj
 0001:00023f34       __chvalidchk_l             10024f34 f i libucrt:input.obj
 0001:00023f5e       __ischartype_l             10024f5e f i libucrt:input.obj
 0001:00024012       __isdigit_l                10025012 f i libucrt:_ctype.obj
 0001:0002404a       __isspace_l                1002504a f i libucrt:_ctype.obj
 0001:00024082       _isdigit                   10025082 f i libucrt:_ctype.obj
 0001:000240af       _isspace                   100250af f i libucrt:_ctype.obj
 0001:00024243       __tolower_l                10025243 f   libucrt:tolower_toupper.obj
 0001:0002425d       _tolower                   1002525d f   libucrt:tolower_toupper.obj
 0001:0002428d       __isleadbyte_l             1002528d f i libucrt:_wctype.obj
 0001:000242d0       _strncat                   100252d0 f   libucrt:strncat.obj
 0001:00024410       _strncpy                   10025410 f   libucrt:strncpy.obj
 0001:00024534       __freea_crt                10025534 f i libucrt:wcslwr.obj
 0001:00024554       ___acrt_initialize_stdio   10025554 f   libucrt:_file.obj
 0001:0002461c       ___acrt_iob_func           1002561c f   libucrt:_file.obj
 0001:0002462c       ___acrt_uninitialize_stdio 1002562c f   libucrt:_file.obj
 0001:00024678       __lock_file                10025678 f   libucrt:_file.obj
 0001:0002468c       __unlock_file              1002568c f   libucrt:_file.obj
 0001:000246a0       ___acrt_initialize_new_handler 100256a0 f   libucrt:new_handler.obj
 0001:000246b4       __callnewh                 100256b4 f   libucrt:new_handler.obj
 0001:000246f8       __query_new_handler        100256f8 f   libucrt:new_handler.obj
 0001:0002474a       __seh_filter_dll           1002574a f   libucrt:exception_filter.obj
 0001:0002476a       __seh_filter_exe           1002576a f   libucrt:exception_filter.obj
 0001:00024af8       ___acrt_initialize_thread_local_exit_callback 10025af8 f   libucrt:exit.obj
 0001:00024b07       __cexit                    10025b07 f   libucrt:exit.obj
 0001:00024b16       __exit                     10025b16 f   libucrt:exit.obj
 0001:00024b2c       __is_c_termination_complete 10025b2c f   libucrt:exit.obj
 0001:00024dcb       ___acrt_allocate_buffer_for_argv 10025dcb f   libucrt:argv_parsing.obj
 0001:00024e20       __configure_narrow_argv    10025e20 f   libucrt:argv_parsing.obj
 0001:00024f84       ??$uninitialize@A6AXAAPAPA_W@Z@?$dual_state_global@PAPA_W@__crt_state_management@@QAEXA6AXAAPAPA_W@Z@Z 10025f84 f i libucrt:environment_initialization.obj
 0001:00024f84       ??$uninitialize@A6AXAAPAPAD@Z@?$dual_state_global@PAPAD@__crt_state_management@@QAEXA6AXAAPAPAD@Z@Z 10025f84 f i libucrt:environment_initialization.obj
 0001:00024ffa       ___dcrt_uninitialize_environments_nolock 10025ffa f   libucrt:environment_initialization.obj
 0001:00025031       __initialize_narrow_environment 10026031 f   libucrt:environment_initialization.obj
 0001:00025036       ??$?RV<lambda_800076c951b434888f4765a74a194fcc>@@AAV<lambda_4e60a939b0d047cfe11ddc22648dfba9>@@V<lambda_6dbb1268764f43b569ce7b67e331d33a>@@@?$__crt_seh_guarded_call@H@@QAEH$$QAV<lambda_800076c951b434888f4765a74a194fcc>@@AAV<lambda_4e60a939b0d047cfe11ddc22648dfba9>@@$$QAV<lambda_6dbb1268764f43b569ce7b67e331d33a>@@@Z 10026036 f i libucrt:onexit.obj
 0001:00025087       ??$?RV<lambda_995298e7d72eb4c2aab26c0585b3abe5>@@AAV<lambda_275893d493268fdec8709772e3fcec0e>@@V<lambda_293819299cbf9a7022e18b56a874bb5c>@@@?$__crt_seh_guarded_call@H@@QAEH$$QAV<lambda_995298e7d72eb4c2aab26c0585b3abe5>@@AAV<lambda_275893d493268fdec8709772e3fcec0e>@@$$QAV<lambda_293819299cbf9a7022e18b56a874bb5c>@@@Z 10026087 f i libucrt:onexit.obj
 0001:000250d8       ??$__acrt_lock_and_call@V<lambda_275893d493268fdec8709772e3fcec0e>@@@@YAHW4__acrt_lock_id@@$$QAV<lambda_275893d493268fdec8709772e3fcec0e>@@@Z 100260d8 f i libucrt:onexit.obj
 0001:00025100       ??$__acrt_lock_and_call@V<lambda_4e60a939b0d047cfe11ddc22648dfba9>@@@@YAHW4__acrt_lock_id@@$$QAV<lambda_4e60a939b0d047cfe11ddc22648dfba9>@@@Z 10026100 f i libucrt:onexit.obj
 0001:00025128       ??$__crt_fast_encode_pointer@P6AHXZ@@YAP6AHXZQ6AHXZ@Z 10026128 f i libucrt:onexit.obj
 0001:000253a8       __crt_atexit               100263a8 f   libucrt:onexit.obj
 0001:000253be       __execute_onexit_table     100263be f   libucrt:onexit.obj
 0001:000253db       __initialize_onexit_table  100263db f   libucrt:onexit.obj
 0001:00025418       __register_onexit_function 10026418 f   libucrt:onexit.obj
 0001:00025470       ___acrt_uninitialize_command_line 10026470 f   libucrt:argv_data.obj
 0001:00025530       ?initialize@?$dual_state_global@P6AHPAU_exception@@@Z@__crt_state_management@@QAEXQ6AHPAU_exception@@@Z@Z 10026530 f i libucrt:matherr.obj
 0001:00025530       ?initialize@?$dual_state_global@P6AXH@Z@__crt_state_management@@QAEXQ6AXH@Z@Z 10026530 f i libucrt:signal.obj
 0001:00025530       ?initialize@?$dual_state_global@PAU__crt_locale_data@@@__crt_state_management@@QAEXQAU__crt_locale_data@@@Z 10026530 f i libucrt:initialization.obj
 0001:00025530       ?initialize@?$dual_state_global@PAPAD@__crt_state_management@@QAEXQAPAD@Z 10026530 f i libucrt:environment_initialization.obj
 0001:00025530       ?initialize@?$dual_state_global@P6AXPB_W00II@Z@__crt_state_management@@QAEXQ6AXPB_W00II@Z@Z 10026530 f i libucrt:invalid_parameter.obj
 0001:00025530       ?initialize@?$dual_state_global@P6AHI@Z@__crt_state_management@@QAEXQ6AHI@Z@Z 10026530 f i libucrt:new_handler.obj
 0001:00025561       ___acrt_initialize         10026561 f   libucrt:initialization.obj
 0001:00025573       ___acrt_thread_attach      10026573 f   libucrt:initialization.obj
 0001:0002557e       ___acrt_thread_detach      1002657e f   libucrt:initialization.obj
 0001:00025586       ___acrt_uninitialize       10026586 f   libucrt:initialization.obj
 0001:00025598       ___acrt_uninitialize_critical 10026598 f   libucrt:initialization.obj
 0001:000255aa       __initterm                 100265aa f   libucrt:initterm.obj
 0001:00025606       __initterm_e               10026606 f   libucrt:initterm.obj
 0001:0002564b       _terminate                 1002664b f   libucrt:terminate.obj
 0001:00025687       __strnicmp                 10026687 f   libucrt:strnicmp.obj
 0001:00025687       _strnicmp                  10026687 f   libucrt:strnicmp.obj
 0001:000256f3       __strnicmp_l               100266f3 f   libucrt:strnicmp.obj
 0001:00025827       ??Rthread_parameter_free_policy@?A0xe57bf005@@QAEXQAU__acrt_thread_parameter@@@Z 10026827 f i libucrt:thread.obj
 0001:000258fe       __beginthreadex            100268fe f   libucrt:thread.obj
 0001:00025983       __endthreadex              10026983 f   libucrt:thread.obj
 0001:00025a0d       __get_sys_err_msg          10026a0d f i libucrt:strerror.obj
 0001:00025a31       _strerror                  10026a31 f   libucrt:strerror.obj
 0001:00025a3c       _strcpy_s                  10026a3c f   libucrt:strcpy_s.obj
 0001:00025a96       _abort                     10026a96 f   libucrt:abort.obj
 0001:00025ad9       __free_base                10026ad9 f   libucrt:free_base.obj
 0001:00025b13       __malloc_base              10026b13 f   libucrt:malloc_base.obj
 0001:00025b61       __calloc_base              10026b61 f   libucrt:calloc_base.obj
 0001:00025bbe       ??$is_overflow_condition@K@__crt_strtox@@YA_NIK@Z 10026bbe f i libucrt:atox.obj
 0001:00025bf1       ??$parse_integer@KV?$c_string_character_source@D@__crt_strtox@@@__crt_strtox@@YAKQAU__crt_locale_pointers@@V?$c_string_character_source@D@0@H_N@Z 10026bf1 f i libucrt:atox.obj
 0001:00025e19       ??$parse_integer@_KV?$c_string_character_source@D@__crt_strtox@@@__crt_strtox@@YA_KQAU__crt_locale_pointers@@V?$c_string_character_source@D@0@H_N@Z 10026e19 f i libucrt:atox.obj
 0001:000260bf       ?unget@?$c_string_character_source@D@__crt_strtox@@QAEXD@Z 100270bf f i libucrt:atox.obj
 0001:000260e7       ?validate@?$c_string_character_source@D@__crt_strtox@@QBE_NXZ 100270e7 f i libucrt:atox.obj
 0001:000260e7       ?validate@?$string_output_adapter@D@__crt_stdio_output@@QBE_NXZ 100270e7 f i libucrt:output.obj
 0001:00026102       ___acrt_errno_from_os_error 10027102 f   libucrt:errno.obj
 0001:00026145       ___acrt_errno_map_os_error 10027145 f   libucrt:errno.obj
 0001:00026168       ___doserrno                10027168 f   libucrt:errno.obj
 0001:0002617b       __errno                    1002717b f   libucrt:errno.obj
 0001:0002618e       ??$make_c_string_character_source@DPAPAD@__crt_strtox@@YA?AV?$c_string_character_source@D@0@QBDQAPAD@Z 1002718e f i libucrt:strtox.obj
 0001:000261a9       _strtol                    100271a9 f   libucrt:strtox.obj
 0001:000261d5       _strtoull                  100271d5 f   libucrt:strtox.obj
 0001:00026201       __mbtowc_l                 10027201 f   libucrt:mbtowc.obj
 0001:000262fb       _mbtowc                    100272fb f   libucrt:mbtowc.obj
 0001:00026315       __wctomb_s_l               10027315 f   libucrt:wctomb.obj
 0001:00026436       _wctomb_s                  10027436 f   libucrt:wctomb.obj
 0001:00026453       _strnlen                   10027453 f   libucrt:strnlen.obj
 0001:0002657a       _wcsnlen                   1002757a f   libucrt:strnlen.obj
 0001:00026731       ??$?RV<lambda_3518db117f0e7cdb002338c5d3c47b6c>@@AAV<lambda_b2ea41f6bbb362cd97d94c6828d90b61>@@V<lambda_abdedf541bb04549bc734292b4a045d4>@@@?$__crt_seh_guarded_call@X@@QAEX$$QAV<lambda_3518db117f0e7cdb002338c5d3c47b6c>@@AAV<lambda_b2ea41f6bbb362cd97d94c6828d90b61>@@$$QAV<lambda_abdedf541bb04549bc734292b4a045d4>@@@Z 10027731 f i libucrt:per_thread_data.obj
 0001:00026781       ??$?RV<lambda_51b6e8b1eb166f2a3faf91f424b38130>@@AAV<lambda_6250bd4b2a391816dd638c3bf72b0bcb>@@V<lambda_0b5a4a3e68152e1d9b943535f5f47bed>@@@?$__crt_seh_guarded_call@X@@QAEX$$QAV<lambda_51b6e8b1eb166f2a3faf91f424b38130>@@AAV<lambda_6250bd4b2a391816dd638c3bf72b0bcb>@@$$QAV<lambda_0b5a4a3e68152e1d9b943535f5f47bed>@@@Z 10027781 f i libucrt:per_thread_data.obj
 0001:000267e2       ??$?RV<lambda_5b71d36f03204c0beab531769a5b5694>@@AAV<lambda_be2b3da3f62db62e9dad5dc70221a656>@@V<lambda_8f9ce462984622f9bf76b59e2aaaf805>@@@?$__crt_seh_guarded_call@X@@QAEX$$QAV<lambda_5b71d36f03204c0beab531769a5b5694>@@AAV<lambda_be2b3da3f62db62e9dad5dc70221a656>@@$$QAV<lambda_8f9ce462984622f9bf76b59e2aaaf805>@@@Z 100277e2 f i libucrt:per_thread_data.obj
 0001:0002682d       ??$?RV<lambda_9df27f884b057bc3edfc946cb5b7cf47>@@AAV<lambda_e69574bed617af4e071282c136b37893>@@V<lambda_cc0d902bcbbeb830f749456577db4721>@@@?$__crt_seh_guarded_call@X@@QAEX$$QAV<lambda_9df27f884b057bc3edfc946cb5b7cf47>@@AAV<lambda_e69574bed617af4e071282c136b37893>@@$$QAV<lambda_cc0d902bcbbeb830f749456577db4721>@@@Z 1002782d f i libucrt:per_thread_data.obj
 0001:00026875       ??$__acrt_lock_and_call@V<lambda_6250bd4b2a391816dd638c3bf72b0bcb>@@@@YAXW4__acrt_lock_id@@$$QAV<lambda_6250bd4b2a391816dd638c3bf72b0bcb>@@@Z 10027875 f i libucrt:per_thread_data.obj
 0001:0002689d       ??$__acrt_lock_and_call@V<lambda_b2ea41f6bbb362cd97d94c6828d90b61>@@@@YAXW4__acrt_lock_id@@$$QAV<lambda_b2ea41f6bbb362cd97d94c6828d90b61>@@@Z 1002789d f i libucrt:per_thread_data.obj
 0001:000268c5       ??$__acrt_lock_and_call@V<lambda_be2b3da3f62db62e9dad5dc70221a656>@@@@YAXW4__acrt_lock_id@@$$QAV<lambda_be2b3da3f62db62e9dad5dc70221a656>@@@Z 100278c5 f i libucrt:per_thread_data.obj
 0001:000268ed       ??$__acrt_lock_and_call@V<lambda_e69574bed617af4e071282c136b37893>@@@@YAXW4__acrt_lock_id@@$$QAV<lambda_e69574bed617af4e071282c136b37893>@@@Z 100278ed f i libucrt:per_thread_data.obj
 0001:00026aa3       ___acrt_freeptd            10027aa3 f   libucrt:per_thread_data.obj
 0001:00026acf       ___acrt_getptd             10027acf f   libucrt:per_thread_data.obj
 0001:00026b53       ___acrt_getptd_noexit      10027b53 f   libucrt:per_thread_data.obj
 0001:00026bd8       ___acrt_initialize_ptd     10027bd8 f   libucrt:per_thread_data.obj
 0001:00026c04       ___acrt_uninitialize_ptd   10027c04 f   libucrt:per_thread_data.obj
 0001:00026c1e       ___acrt_update_locale_info 10027c1e f   libucrt:locale_update.obj
 0001:00026c4b       ___acrt_update_multibyte_info 10027c4b f   libucrt:locale_update.obj
 0001:00026c78       ?__acrt_fp_classify@@YA?AW4__acrt_fp_class@@ABN@Z 10027c78 f i libucrt:cvt.obj
 0001:00026ce4       ?__acrt_fp_is_negative@@YA_NABN@Z 10027ce4 f i libucrt:cvt.obj
 0001:00027543       ___acrt_fp_format          10028543 f   libucrt:cvt.obj
 0001:0002768d       __fileno                   1002868d f   libucrt:fileno.obj
 0001:000276b3       __fputc_nolock             100286b3 f   libucrt:fputc.obj
 0001:000276dc       __get_printf_count_output  100286dc f   libucrt:printf_count_output.obj
 0001:000276f1       ___acrt_stdio_begin_temporary_buffering_nolock 100286f1 f   libucrt:_sftbuf.obj
 0001:000277a6       ___acrt_stdio_end_temporary_buffering_nolock 100287a6 f   libucrt:_sftbuf.obj
 0001:000277df       ___acrt_set_locale_changed 100287df f   libucrt:wsetlocale.obj
 0001:000277ea       ___acrt_uninitialize_locale 100287ea f   libucrt:wsetlocale.obj
 0001:000279a8       ___acrt_initialize_lowio   100289a8 f   libucrt:ioinit.obj
 0001:000279fe       ___acrt_uninitialize_lowio 100289fe f   libucrt:ioinit.obj
 0001:00027b41       ___acrt_AreFileApisANSI@0  10028b41 f   libucrt:winapi_thunks.obj
 0001:00027b8f       ___acrt_FlsAlloc@4         10028b8f f   libucrt:winapi_thunks.obj
 0001:00027be5       ___acrt_FlsFree@4          10028be5 f   libucrt:winapi_thunks.obj
 0001:00027c3b       ___acrt_FlsGetValue@4      10028c3b f   libucrt:winapi_thunks.obj
 0001:00027c91       ___acrt_FlsSetValue@8      10028c91 f   libucrt:winapi_thunks.obj
 0001:00027cea       ___acrt_GetSystemTimePreciseAsFileTime@4 10028cea f   libucrt:winapi_thunks.obj
 0001:00027d40       ___acrt_InitializeCriticalSectionEx@12 10028d40 f   libucrt:winapi_thunks.obj
 0001:00027da2       ___acrt_LCMapStringEx@36   10028da2 f   libucrt:winapi_thunks.obj
 0001:00027e2a       ___acrt_LocaleNameToLCID@8 10028e2a f   libucrt:winapi_thunks.obj
 0001:00027e86       ___acrt_RoInitialize@4     10028e86 f   libucrt:winapi_thunks.obj
 0001:00027ed8       ___acrt_RoUninitialize@0   10028ed8 f   libucrt:winapi_thunks.obj
 0001:00027f21       ___acrt_initialize_winapi_thunks 10028f21 f   libucrt:winapi_thunks.obj
 0001:00027f47       ___acrt_is_packaged_app    10028f47 f   libucrt:winapi_thunks.obj
 0001:00027fce       ___acrt_uninitialize_winapi_thunks 10028fce f   libucrt:winapi_thunks.obj
 0001:00028004       ?__acrt_stdio_allocate_stream@@YA?AV__crt_stdio_stream@@XZ 10029004 f   libucrt:stream.obj
 0001:00028063       ?__acrt_stdio_free_stream@@YAXV__crt_stdio_stream@@@Z 10029063 f   libucrt:stream.obj
 0001:00028161       ??$__acrt_stdio_parse_mode@D@@YA?AU__acrt_stdio_stream_mode@@QBD@Z 10029161 f i libucrt:openfile.obj
 0001:00028418       ?__acrt_stdio_parse_mode_D@@YA_NAAU__acrt_stdio_stream_mode@@@Z 10029418 f i libucrt:openfile.obj
 0001:00028433       ?__acrt_stdio_parse_mode_T@@YA_NAAU__acrt_stdio_stream_mode@@@Z 10029433 f i libucrt:openfile.obj
 0001:00028452       ?__acrt_stdio_parse_mode_b@@YA_NAAU__acrt_stdio_stream_mode@@@Z 10029452 f i libucrt:openfile.obj
 0001:00028472       ?__acrt_stdio_parse_mode_c@@YA_NAAU__acrt_stdio_stream_mode@@AA_N@Z 10029472 f i libucrt:openfile.obj
 0001:00028494       ?__acrt_stdio_parse_mode_n@@YA_NAAU__acrt_stdio_stream_mode@@AA_N@Z 10029494 f i libucrt:openfile.obj
 0001:000284b6       ?__acrt_stdio_parse_mode_plus@@YA_NAAU__acrt_stdio_stream_mode@@AA_N@Z 100294b6 f i libucrt:openfile.obj
 0001:000284eb       ?__acrt_stdio_parse_mode_t@@YA_NAAU__acrt_stdio_stream_mode@@@Z 100294eb f i libucrt:openfile.obj
 0001:0002850b       __openfile                 1002950b f   libucrt:openfile.obj
 0001:00028516       ??$?RV<lambda_123407a5e2ac06da108355a851863b7a>@@AAV<lambda_2fe9b910cf3cbf4a0ab98a02ba45b3ec>@@V<lambda_ae55bdf541ad94d75914d381c370e64d>@@@?$__crt_seh_guarded_call@H@@QAEH$$QAV<lambda_123407a5e2ac06da108355a851863b7a>@@AAV<lambda_2fe9b910cf3cbf4a0ab98a02ba45b3ec>@@$$QAV<lambda_ae55bdf541ad94d75914d381c370e64d>@@@Z 10029516 f i libucrt:close.obj
 0001:00028598       ??$__acrt_lowio_lock_fh_and_call@V<lambda_2fe9b910cf3cbf4a0ab98a02ba45b3ec>@@@@YAHH$$QAV<lambda_2fe9b910cf3cbf4a0ab98a02ba45b3ec>@@@Z 10029598 f i libucrt:close.obj
 0001:000285c0       __close                    100295c0 f   libucrt:close.obj
 0001:0002863f       __close_nolock             1002963f f   libucrt:close.obj
 0001:000286db       ___acrt_stdio_free_buffer_nolock 100296db f   libucrt:_freebuf.obj
 0001:00028719       ___acrt_stdio_flush_nolock 10029719 f   libucrt:fflush.obj
 0001:0002877f       __fflush_nolock            1002977f f   libucrt:fflush.obj
 0001:000287c6       __flushall                 100297c6 f   libucrt:fflush.obj
 0001:000288a7       ___pctype_func             100298a7 f   libucrt:ctype.obj
 0001:000288cd       __isctype_l                100298cd f   libucrt:isctype.obj
 0001:0002899f       __fgetc_nolock             1002999f f   libucrt:fgetc.obj
 0001:000289db       __getc_nolock              100299db f   libucrt:fgetc.obj
 0001:000289e6       __ungetc_nolock            100299e6 f   libucrt:ungetc.obj
 0001:00028ad5       _fegetround                10029ad5 f   libucrt:fegetround.obj
 0001:00028cfd       ___acrt_LCMapStringA       10029cfd f   libucrt:lcmapstringa.obj
 0001:00028d48       __fcloseall                10029d48 f   libucrt:closeall.obj
 0001:00028de8       ___acrt_initialize_locks   10029de8 f   libucrt:locks.obj
 0001:00028e29       ___acrt_lock               10029e29 f   libucrt:locks.obj
 0001:00028e40       ___acrt_uninitialize_locks 10029e40 f   libucrt:locks.obj
 0001:00028e71       ___acrt_unlock             10029e71 f   libucrt:locks.obj
 0001:0002924a       ??1?$argument_list@D@?A0xb0e4b824@@QAE@XZ 1002a24a f i libucrt:argv_wildcards.obj
 0001:0002926f       ?append@?$argument_list@D@?A0xb0e4b824@@QAEHQAD@Z 1002a26f f i libucrt:argv_wildcards.obj
 0001:000292a4       ?expand_if_necessary@?$argument_list@D@?A0xb0e4b824@@AAEHXZ 1002a2a4 f i libucrt:argv_wildcards.obj
 0001:0002932b       ___acrt_expand_narrow_argv_wildcards 1002a32b f   libucrt:argv_wildcards.obj
 0001:00029336       ??$?RV<lambda_978dc153c237d78434369da87b74ff60>@@AAV<lambda_ad1ced32f4ac17aa236e5ef05d6b3b7c>@@V<lambda_4a8533e2866a575feecb8298ce776b0d>@@@?$__crt_seh_guarded_call@X@@QAEX$$QAV<lambda_978dc153c237d78434369da87b74ff60>@@AAV<lambda_ad1ced32f4ac17aa236e5ef05d6b3b7c>@@$$QAV<lambda_4a8533e2866a575feecb8298ce776b0d>@@@Z 1002a336 f i libucrt:mbctype.obj
 0001:00029379       ??$__acrt_lock_and_call@V<lambda_ad1ced32f4ac17aa236e5ef05d6b3b7c>@@@@YAXW4__acrt_lock_id@@$$QAV<lambda_ad1ced32f4ac17aa236e5ef05d6b3b7c>@@@Z 1002a379 f i libucrt:mbctype.obj
 0001:00029810       ___acrt_initialize_multibyte 1002a810 f   libucrt:mbctype.obj
 0001:0002982e       ___acrt_update_thread_multibyte_data 1002a82e f   libucrt:mbctype.obj
 0001:000298d0       __setmbcp_nolock           1002a8d0 f   libucrt:mbctype.obj
 0001:00029b1a       __ismbblead                1002ab1a f   libucrt:ismbbyte.obj
 0001:00029b32       ___acrt_initialize_command_line 1002ab32 f   libucrt:argv_data.obj
 0001:00029b82       ___dcrt_get_narrow_environment_from_os 1002ab82 f   libucrt:get_environment_from_os.obj
 0001:00029c05       __recalloc                 1002ac05 f   libucrt:recalloc.obj
 0001:00029c10       __recalloc_base            1002ac10 f   libucrt:recalloc.obj
 0001:00029c7d       ___acrt_initialize_heap    1002ac7d f   libucrt:heap_handle.obj
 0001:00029c8e       ___acrt_uninitialize_heap  1002ac8e f   libucrt:heap_handle.obj
 0001:00029c98       ___acrt_execute_initializers 1002ac98 f   libucrt:shared_initialization.obj
 0001:00029d1b       ___acrt_execute_uninitializers 1002ad1b f   libucrt:shared_initialization.obj
 0001:00029d68       ??$?RV<lambda_a048d3beccc847880fc8490e18b82769>@@AAV<lambda_ec61778202f4f5fc7e7711acc23c3bca>@@V<lambda_f7496a158712204296dd6628a163878e>@@@?$__crt_seh_guarded_call@P6AXH@Z@@QAEP6AXH@Z$$QAV<lambda_a048d3beccc847880fc8490e18b82769>@@AAV<lambda_ec61778202f4f5fc7e7711acc23c3bca>@@$$QAV<lambda_f7496a158712204296dd6628a163878e>@@@Z 1002ad68 f i libucrt:signal.obj
 0001:00029dc2       ??$__acrt_lock_and_call@V<lambda_ec61778202f4f5fc7e7711acc23c3bca>@@@@YAP6AXH@ZW4__acrt_lock_id@@$$QAV<lambda_ec61778202f4f5fc7e7711acc23c3bca>@@@Z 1002adc2 f i libucrt:signal.obj
 0001:00029e54       ___acrt_get_sigabrt_handler 1002ae54 f   libucrt:signal.obj
 0001:00029e6b       ___acrt_initialize_signal_handlers 1002ae6b f   libucrt:signal.obj
 0001:00029ea6       ___fpecode                 1002aea6 f   libucrt:signal.obj
 0001:00029eb0       _raise                     1002aeb0 f   libucrt:signal.obj
 0001:0002a0b8       ___acrt_has_user_matherr   1002b0b8 f   libucrt:matherr.obj
 0001:0002a0d1       ___acrt_initialize_user_matherr 1002b0d1 f   libucrt:matherr.obj
 0001:0002a0e5       ___acrt_invoke_user_matherr 1002b0e5 f   libucrt:matherr.obj
 0001:0002a130       ___ascii_strnicmp          1002b130 f   libucrt:_strnicm.obj
 0001:0002a191       ___sys_errlist             1002b191 f   libucrt:syserr.obj
 0001:0002a197       ___sys_nerr                1002b197 f   libucrt:syserr.obj
 0001:0002a24e       _strncpy_s                 1002b24e f   libucrt:strncpy_s.obj
 0001:0002a259       __query_new_mode           1002b259 f   libucrt:new_mode.obj
 0001:0002a25f       ___acrt_add_locale_ref     1002b25f f   libucrt:locale_refcounting.obj
 0001:0002a2dc       ___acrt_free_locale        1002b2dc f   libucrt:locale_refcounting.obj
 0001:0002a426       ___acrt_locale_add_lc_time_reference 1002b426 f   libucrt:locale_refcounting.obj
 0001:0002a44f       ___acrt_locale_free_lc_time_if_unreferenced 1002b44f f   libucrt:locale_refcounting.obj
 0001:0002a47f       ___acrt_locale_release_lc_time_reference 1002b47f f   libucrt:locale_refcounting.obj
 0001:0002a4a8       ___acrt_release_locale_ref 1002b4a8 f   libucrt:locale_refcounting.obj
 0001:0002a529       ___acrt_update_thread_locale_data 1002b529 f   libucrt:locale_refcounting.obj
 0001:0002a5a0       __updatetlocinfoEx_nolock  1002b5a0 f   libucrt:locale_refcounting.obj
 0001:0002a5f0       ___acrt_fp_strflt_to_string 1002b5f0 f   libucrt:_fptostr.obj
 0001:0002a6ac       ??0scoped_fp_state_reset@?A0x48fbfdd4@@QAE@XZ 1002b6ac f i libucrt:cfout.obj
 0001:0002a6d6       ___acrt_fltout             1002b6d6 f   libucrt:cfout.obj
 0001:0002bc4f       ___acrt_stdio_flush_and_write_narrow_nolock 1002cc4f f   libucrt:_flsbuf.obj
 0001:0002bc5a       __isatty                   1002cc5a f   libucrt:isatty.obj
 0001:0002bcb0       ___acrt_locale_free_monetary 1002ccb0 f   libucrt:initmon.obj
 0001:0002bdae       ___acrt_locale_free_numeric 1002cdae f   libucrt:initnum.obj
 0001:0002be53       ___acrt_locale_free_time   1002ce53 f   libucrt:inittime.obj
 0001:0002bf37       ___acrt_GetStringTypeA     1002cf37 f   libucrt:getstringtypea.obj
 0001:0002c054       ___acrt_lowio_create_handle_array 1002d054 f   libucrt:osfinfo.obj
 0001:0002c0ce       ___acrt_lowio_destroy_handle_array 1002d0ce f   libucrt:osfinfo.obj
 0001:0002c103       ___acrt_lowio_ensure_fh_exists 1002d103 f   libucrt:osfinfo.obj
 0001:0002c19b       ___acrt_lowio_lock_fh      1002d19b f   libucrt:osfinfo.obj
 0001:0002c1be       ___acrt_lowio_set_os_handle 1002d1be f   libucrt:osfinfo.obj
 0001:0002c252       ___acrt_lowio_unlock_fh    1002d252 f   libucrt:osfinfo.obj
 0001:0002c275       __alloc_osfhnd             1002d275 f   libucrt:osfinfo.obj
 0001:0002c387       __free_osfhnd              1002d387 f   libucrt:osfinfo.obj
 0001:0002c418       __get_osfhandle            1002d418 f   libucrt:osfinfo.obj
 0001:0002c53e       ___acrt_DownlevelLocaleNameToLCID 1002d53e f   libucrt:lcidtoname_downlevel.obj
 0001:0002c570       _strncmp                   1002d570 f   libucrt:strncmp.obj
 0001:0002cbc2       __sopen_nolock             1002dbc2 f   libucrt:open.obj
 0001:0002cc13       __sopen_s                  1002dc13 f   libucrt:open.obj
 0001:0002cc33       __wsopen_nolock            1002dc33 f   libucrt:open.obj
 0001:0002cf5c       ??$?RV<lambda_61cee617f5178ae960314fd4d05640a0>@@AAV<lambda_6978c1fb23f02e42e1d9e99668cc68aa>@@V<lambda_9cd88cf8ad10232537feb2133f08c833>@@@?$__crt_seh_guarded_call@H@@QAEH$$QAV<lambda_61cee617f5178ae960314fd4d05640a0>@@AAV<lambda_6978c1fb23f02e42e1d9e99668cc68aa>@@$$QAV<lambda_9cd88cf8ad10232537feb2133f08c833>@@@Z 1002df5c f i libucrt:commit.obj
 0001:0002cff4       ??$__acrt_lowio_lock_fh_and_call@V<lambda_6978c1fb23f02e42e1d9e99668cc68aa>@@@@YAHH$$QAV<lambda_6978c1fb23f02e42e1d9e99668cc68aa>@@@Z 1002dff4 f i libucrt:commit.obj
 0001:0002d01c       __commit                   1002e01c f   libucrt:commit.obj
 0001:0002d61b       __write                    1002e61b f   libucrt:write.obj
 0001:0002d706       __write_nolock             1002e706 f   libucrt:write.obj
 0001:0002da93       ___acrt_stdio_refill_and_read_narrow_nolock 1002ea93 f   libucrt:_filbuf.obj
 0001:0002da9e       ___acrt_stdio_allocate_buffer_nolock 1002ea9e f   libucrt:_getbuf.obj
 0001:0002dd9e       __getfpcontrolword         1002ed9e f   libucrt:_fenvutils.obj
 0001:0002dde1       __getfpstatusword          1002ede1 f   libucrt:_fenvutils.obj
 0001:0002de89       __setfpcontrolword         1002ee89 f   libucrt:_fenvutils.obj
 0001:0002df09       __setfpstatusword          1002ef09 f   libucrt:_fenvutils.obj
 0001:0002df89       ___strncnt                 1002ef89 f   libucrt:strncnt.obj
 0001:0002e090       _qsort                     1002f090 f   libucrt:qsort.obj
 0001:0002e430       _strpbrk                   1002f430 f   libucrt:strpbrk.obj
 0001:0002e470       __mbsdec                   1002f470 f   libucrt:mbsdec.obj
 0001:0002e487       __mbsdec_l                 1002f487 f   libucrt:mbsdec.obj
 0001:0002e523       __msize                    1002f523 f   libucrt:msize.obj
 0001:0002e556       __realloc_base             1002f556 f   libucrt:realloc_base.obj
 0001:0002e5bf       _fegetenv                  1002f5bf f   libucrt:fegetenv.obj
 0001:0002e5dc       _fesetenv                  1002f5dc f   libucrt:fesetenv.obj
 0001:0002e625       _feholdexcept              1002f625 f   libucrt:feholdexcept.obj
 0001:0002e680       _log10                     1002f680 f   libucrt:log10.obj
 0001:0002e6c0       __CIlog10                  1002f6c0 f   libucrt:log10.obj
 0001:0002e6fb       __CIlog10_default          1002f6fb f   libucrt:log10.obj
 0001:0002e70f       __log10_default            1002f70f     libucrt:log10.obj
 0001:0002e7d0       _ceil                      1002f7d0 f   libucrt:ceil_pentium4.obj
 0001:0002e810       __ceil_pentium4            1002f810 f   libucrt:ceil_pentium4.obj
 0001:0002ea70       __lseeki64                 1002fa70 f   libucrt:lseek.obj
 0001:0002ea8b       __lseeki64_nolock          1002fa8b f   libucrt:lseek.obj
 0001:0002eaa6       __query_app_type           1002faa6 f   libucrt:report_runtime_error.obj
 0001:0002eaac       __get_fmode                1002faac f   libucrt:setmode.obj
 0001:0002ead8       __setmode_nolock           1002fad8 f   libucrt:setmode.obj
 0001:0002eba9       ___acrt_copy_path_to_wide_string 1002fba9 f   libucrt:string_utilities.obj
 0001:0002ec70       __chsize_nolock            1002fc70 f   libucrt:chsize.obj
 0001:0002f2e9       __read                     100302e9 f   libucrt:read.obj
 0001:0002f3fc       __read_nolock              100303fc f   libucrt:read.obj
 0001:0002f7b1       __putwch_nolock            100307b1 f   libucrt:putwch.obj
 0001:0002f7f6       __clearfp                  100307f6 f   libucrt:ieee87.obj
 0001:0002f8d4       ___acrt_initialize_sse2    100308d4 f   libucrt:mathfcns.obj
 0001:0002f8f0       __CIlog10_pentium4         100308f0 f   libucrt:log10_pentium4.obj
 0001:0002f908       __log10_pentium4           10030908     libucrt:log10_pentium4.obj
 0001:0002fb91       __fFEXP                    10030b91     libucrt:87tran.obj
 0001:0002fbe8       __rtinfpopse               10030be8     libucrt:87tran.obj
 0001:0002fbea       __rtinfnpopse              10030bea     libucrt:87tran.obj
 0001:0002fbfa       __fFLN                     10030bfa     libucrt:87tran.obj
 0001:0002fcaf       __rtinfpop                 10030caf     libucrt:87tran.obj
 0001:0002fcb1       __rtinfnpop                10030cb1     libucrt:87tran.obj
 0001:0002fcce       __ffexpm1                  10030cce     libucrt:87tran.obj
 0001:0002fd80       __trandisp1                10030d80 f   libucrt:87disp.obj
 0001:0002fde7       __trandisp2                10030de7 f   libucrt:87disp.obj
 0001:0002fe73       __rttospopde               10030e73     libucrt:87disp.obj
 0001:0002fe78       __rttospop                 10030e78     libucrt:87disp.obj
 0001:0002fe7a       __rtnospop                 10030e7a     libucrt:87disp.obj
 0001:0002fe7c       __rttosnpop                10030e7c     libucrt:87disp.obj
 0001:0002fe7d       __rtnospopde               10030e7d     libucrt:87disp.obj
 0001:0002fe84       __rtzeropop                10030e84     libucrt:87disp.obj
 0001:0002fe86       __rtzeronpop               10030e86     libucrt:87disp.obj
 0001:0002fe8b       __rtzerospop               10030e8b     libucrt:87disp.obj
 0001:0002fe98       __rtonepop                 10030e98     libucrt:87disp.obj
 0001:0002fe9a       __rtonenpop                10030e9a     libucrt:87disp.obj
 0001:0002fe9f       __tosnan1                  10030e9f     libucrt:87disp.obj
 0001:0002feca       __nosnan2                  10030eca     libucrt:87disp.obj
 0001:0002fecc       __tosnan2                  10030ecc     libucrt:87disp.obj
 0001:0002fef4       __nan2                     10030ef4     libucrt:87disp.obj
 0001:0002ff33       __rtindfpop                10030f33     libucrt:87disp.obj
 0001:0002ff35       __rtindfnpop               10030f35     libucrt:87disp.obj
 0001:0002ff46       __rttosnpopde              10030f46     libucrt:87disp.obj
 0001:0002ff50       __rtatan2inf               10030f50     libucrt:87disp.obj
 0001:0002ff6d       __rtchsifneg               10030f6d     libucrt:87disp.obj
 0001:0002ff80       __twoToTOS                 10030f80 f   libucrt:common.obj
 0001:0002ff95       __load_CW                  10030f95 f   libucrt:common.obj
 0001:0002ffac       __convertTOStoQNaN         10030fac f   libucrt:common.obj
 0001:0002ffc5       __fload_withFB             10030fc5 f   libucrt:common.obj
 0001:00030008       __checkTOS_withFB          10031008 f   libucrt:common.obj
 0001:0003001e       __fast_exit                1003101e f   libucrt:common.obj
 0001:0003002b       __math_exit                1003102b f   libucrt:common.obj
 0001:00030055       __check_overflow_exit      10031055 f   libucrt:common.obj
 0001:00030069       __check_range_exit         10031069 f   libucrt:common.obj
 0001:00030110       __startTwoArgErrorHandling 10031110 f   libucrt:genexcep.obj
 0001:00030127       __startOneArgErrorHandling 10031127 f   libucrt:genexcep.obj
 0001:00030163       ___libm_error_support      10031163 f   libucrt:libm_error.obj
 0001:0003037b       __ceil_default             1003137b f   libucrt:ceil.obj
 0001:00030434       ___dcrt_lowio_initialize_console_output 10031434 f   libucrt:initcon.obj
 0001:00030453       ___dcrt_terminate_console_output 10031453 f   libucrt:initcon.obj
 0001:0003046a       __clrfp                    1003146a f   libucrt:fpctrl.obj
 0001:0003047d       __ctrlfp                   1003147d f   libucrt:fpctrl.obj
 0001:000304a9       __set_statfp               100314a9 f   libucrt:fpctrl.obj
 0001:00030504       __statfp                   10031504 f   libucrt:fpctrl.obj
 0001:00030516       __d_inttype                10031516 f   libucrt:powhlp.obj
 0001:00030580       __powhlp                   10031580 f   libucrt:powhlp.obj
 0001:000306ab       __87except                 100316ab f   libucrt:87except.obj
 0001:000307b6       __frnd                     100317b6 f   libucrt:frnd.obj
 0001:000307cc       __errcode                  100317cc f   libucrt:fpexcept.obj
 0001:00030800       __except1                  10031800 f   libucrt:fpexcept.obj
 0001:000308ce       __handle_exc               100318ce f   libucrt:fpexcept.obj
 0001:00030aae       __raise_exc                10031aae f   libucrt:fpexcept.obj
 0001:00030ad1       __raise_exc_ex             10031ad1 f   libucrt:fpexcept.obj
 0001:00030dc2       __set_errno_from_matherr   10031dc2 f   libucrt:fpexcept.obj
 0001:00030df1       __umatherr                 10031df1 f   libucrt:fpexcept.obj
 0001:00030e93       __decomp                   10031e93 f   libucrt:util.obj
 0001:00030f67       __set_exp                  10031f67 f   libucrt:util.obj
 0001:00030f96       __sptype                   10031f96 f   libucrt:util.obj
 0001:00030ff4       __fpclass                  10031ff4 f   libucrt:ieeemisc.obj
 0001:00031098       _IsProcessorFeaturePresent@4 10032098 f   kernel32:KERNEL32.dll
 0001:0003109e       _RtlUnwind@16              1003209e f   kernel32:KERNEL32.dll
 0001:000310a4       _SystemFunction036@8       100320a4 f   advapi32:ADVAPI32.dll
 0001:00031186       __Init_thread_abort        10032186 f   LIBCMT:thread_safe_statics.obj
 0001:0003119f       __Init_thread_footer       1003219f f   LIBCMT:thread_safe_statics.obj
 0001:000311de       __Init_thread_header       100321de f   LIBCMT:thread_safe_statics.obj
 0001:00031224       __Init_thread_lock         10032224 f   LIBCMT:thread_safe_statics.obj
 0001:00031230       __Init_thread_notify       10032230 f   LIBCMT:thread_safe_statics.obj
 0001:00031271       __Init_thread_unlock       10032271 f   LIBCMT:thread_safe_statics.obj
 0001:0003127d       __Init_thread_wait         1003227d f   LIBCMT:thread_safe_statics.obj
 0001:000312f0       __alldiv                   100322f0 f   LIBCMT:lldiv.obj
 0001:000313a0       __allrem                   100323a0 f   LIBCMT:llrem.obj
 0001:00031452       __EH_prolog3_catch         10032452 f   LIBCMT:ehprolg3.obj
 0001:00031490       __FindPESection            10032490 f   LIBCMT:pesect.obj
 0001:000314e0       __IsNonwritableInCurrentImage 100324e0 f   LIBCMT:pesect.obj
 0001:000315a0       __ValidateImageBase        100325a0 f   LIBCMT:pesect.obj
 0001:000315e0       __aulldvrm                 100325e0 f   LIBCMT:ulldvrm.obj
 0001:00031680       __alldvrm                  10032680 f   LIBCMT:lldvrm.obj
 0001:00031760       __allshl                   10032760 f   LIBCMT:llshl.obj
 0001:00031780       __aullshr                  10032780 f   LIBCMT:ullshr.obj
 0001:000317a0       __SEH_prolog4_GS           100327a0 f   LIBCMT:_sehprolg4gs_.obj
 0001:000317e9       __SEH_epilog4_GS           100327e9 f   LIBCMT:_sehprolg4gs_.obj
 0001:00031800       __ftol2_sse                10032800 f   LIBCMT:_ftol2_.obj
 0001:00031809       __ftol2_pentium4           10032809 f   LIBCMT:_ftol2_.obj
 0001:0003181c       __ftol2_sse_excpt          1003281c f   LIBCMT:_ftol2_.obj
 0001:00031840       __ftol2                    10032840 f   LIBCMT:_ftol2_.obj
 0001:000318c0       _strrchr                   100328c0 f   libvcruntime:strrchr.obj
 0001:00031a00       __aullrem                  10032a00 f   LIBCMT:ullrem.obj
 0001:00031a80       __libm_sse2_pow_precise    10032a80 f   libucrt:pow_sse2_precise.obj
 0001:000325d0       __libm_sse2_sqrt_precise   100335d0 f   libucrt:sqrt_sse2_precise.obj
 0001:000326d0       _pow                       100336d0 f   libucrt:pow.obj
 0001:00032710       __CIpow                    10033710 f   libucrt:pow.obj
 0001:0003274b       __CIpow_default            1003374b f   libucrt:pow.obj
 0001:00032764       __pow_default              10033764     libucrt:pow.obj
 0001:00032960       __CIsqrt                   10033960 f   libucrt:sqrt.obj
 0001:00032974       _sqrt                      10033974     libucrt:sqrt.obj
 0001:00032a20       __CIpow_pentium4           10033a20 f   libucrt:pow_pentium4.obj
 0001:00032a39       __pow_pentium4             10033a39     libucrt:pow_pentium4.obj
 0002:00000000       __imp__SystemFunction036@8 10036000     advapi32:ADVAPI32.dll
 0002:00000004       \177ADVAPI32_NULL_THUNK_DATA 10036004     advapi32:ADVAPI32.dll
 0002:00000008       __imp__DecodePointer@4     10036008     kernel32:KERNEL32.dll
 0002:0000000c       __imp__WriteConsoleW@20    1003600c     kernel32:KERNEL32.dll
 0002:00000010       __imp__ReadConsoleW@20     10036010     kernel32:KERNEL32.dll
 0002:00000014       __imp__HeapFree@12         10036014     kernel32:KERNEL32.dll
 0002:00000018       __imp__GetModuleHandleA@4  10036018     kernel32:KERNEL32.dll
 0002:0000001c       __imp__GetProcAddress@8    1003601c     kernel32:KERNEL32.dll
 0002:00000020       __imp__GetProcessHeap@0    10036020     kernel32:KERNEL32.dll
 0002:00000024       __imp__GetTickCount@0      10036024     kernel32:KERNEL32.dll
 0002:00000028       __imp__GetSystemTimeAsFileTime@4 10036028     kernel32:KERNEL32.dll
 0002:0000002c       __imp__CloseHandle@4       1003602c     kernel32:KERNEL32.dll
 0002:00000030       __imp__HeapAlloc@12        10036030     kernel32:KERNEL32.dll
 0002:00000034       __imp__CreateEventA@16     10036034     kernel32:KERNEL32.dll
 0002:00000038       __imp__FreeLibrary@4       10036038     kernel32:KERNEL32.dll
 0002:0000003c       __imp__MultiByteToWideChar@24 1003603c     kernel32:KERNEL32.dll
 0002:00000040       __imp__WideCharToMultiByte@32 10036040     kernel32:KERNEL32.dll
 0002:00000044       __imp__ReadFile@20         10036044     kernel32:KERNEL32.dll
 0002:00000048       __imp__SetEndOfFile@4      10036048     kernel32:KERNEL32.dll
 0002:0000004c       __imp__SetFilePointerEx@20 1003604c     kernel32:KERNEL32.dll
 0002:00000050       __imp__HeapReAlloc@16      10036050     kernel32:KERNEL32.dll
 0002:00000054       __imp__HeapSize@12         10036054     kernel32:KERNEL32.dll
 0002:00000058       __imp__GetConsoleMode@8    10036058     kernel32:KERNEL32.dll
 0002:0000005c       __imp__GetConsoleCP@0      1003605c     kernel32:KERNEL32.dll
 0002:00000060       __imp__WriteFile@20        10036060     kernel32:KERNEL32.dll
 0002:00000064       __imp__UnhandledExceptionFilter@4 10036064     kernel32:KERNEL32.dll
 0002:00000068       __imp__SetUnhandledExceptionFilter@4 10036068     kernel32:KERNEL32.dll
 0002:0000006c       __imp__GetCurrentProcess@0 1003606c     kernel32:KERNEL32.dll
 0002:00000070       __imp__TerminateProcess@8  10036070     kernel32:KERNEL32.dll
 0002:00000074       __imp__IsProcessorFeaturePresent@4 10036074     kernel32:KERNEL32.dll
 0002:00000078       __imp__IsDebuggerPresent@0 10036078     kernel32:KERNEL32.dll
 0002:0000007c       __imp__GetStartupInfoW@4   1003607c     kernel32:KERNEL32.dll
 0002:00000080       __imp__GetModuleHandleW@4  10036080     kernel32:KERNEL32.dll
 0002:00000084       __imp__QueryPerformanceCounter@4 10036084     kernel32:KERNEL32.dll
 0002:00000088       __imp__GetCurrentProcessId@0 10036088     kernel32:KERNEL32.dll
 0002:0000008c       __imp__GetCurrentThreadId@0 1003608c     kernel32:KERNEL32.dll
 0002:00000090       __imp__InitializeSListHead@4 10036090     kernel32:KERNEL32.dll
 0002:00000094       __imp__OpenEventA@12       10036094     kernel32:KERNEL32.dll
 0002:00000098       __imp__WaitForSingleObjectEx@12 10036098     kernel32:KERNEL32.dll
 0002:0000009c       __imp__WaitForMultipleObjectsEx@20 1003609c     kernel32:KERNEL32.dll
 0002:000000a0       __imp__ReleaseSemaphore@12 100360a0     kernel32:KERNEL32.dll
 0002:000000a4       __imp__Sleep@4             100360a4     kernel32:KERNEL32.dll
 0002:000000a8       __imp__SetEvent@4          100360a8     kernel32:KERNEL32.dll
 0002:000000ac       __imp__ResetEvent@4        100360ac     kernel32:KERNEL32.dll
 0002:000000b0       __imp__SetWaitableTimer@24 100360b0     kernel32:KERNEL32.dll
 0002:000000b4       __imp__ResumeThread@4      100360b4     kernel32:KERNEL32.dll
 0002:000000b8       __imp__TlsAlloc@0          100360b8     kernel32:KERNEL32.dll
 0002:000000bc       __imp__TlsGetValue@4       100360bc     kernel32:KERNEL32.dll
 0002:000000c0       __imp__TlsSetValue@8       100360c0     kernel32:KERNEL32.dll
 0002:000000c4       __imp__TlsFree@4           100360c4     kernel32:KERNEL32.dll
 0002:000000c8       __imp__CreateWaitableTimerA@12 100360c8     kernel32:KERNEL32.dll
 0002:000000cc       __imp__SystemTimeToFileTime@8 100360cc     kernel32:KERNEL32.dll
 0002:000000d0       __imp__LocalFree@4         100360d0     kernel32:KERNEL32.dll
 0002:000000d4       __imp__FormatMessageA@28   100360d4     kernel32:KERNEL32.dll
 0002:000000d8       __imp__EncodePointer@4     100360d8     kernel32:KERNEL32.dll
 0002:000000dc       __imp__RaiseException@16   100360dc     kernel32:KERNEL32.dll
 0002:000000e0       __imp__GetLastError@0      100360e0     kernel32:KERNEL32.dll
 0002:000000e4       __imp__GetModuleFileNameW@12 100360e4     kernel32:KERNEL32.dll
 0002:000000e8       __imp__CreateEventW@16     100360e8     kernel32:KERNEL32.dll
 0002:000000ec       __imp__InterlockedFlushSList@4 100360ec     kernel32:KERNEL32.dll
 0002:000000f0       __imp__RtlUnwind@16        100360f0     kernel32:KERNEL32.dll
 0002:000000f4       __imp__SetLastError@4      100360f4     kernel32:KERNEL32.dll
 0002:000000f8       __imp__EnterCriticalSection@4 100360f8     kernel32:KERNEL32.dll
 0002:000000fc       __imp__LeaveCriticalSection@4 100360fc     kernel32:KERNEL32.dll
 0002:00000100       __imp__DeleteCriticalSection@4 10036100     kernel32:KERNEL32.dll
 0002:00000104       __imp__InitializeCriticalSectionAndSpinCount@8 10036104     kernel32:KERNEL32.dll
 0002:00000108       __imp__LoadLibraryExW@12   10036108     kernel32:KERNEL32.dll
 0002:0000010c       __imp__ExitProcess@4       1003610c     kernel32:KERNEL32.dll
 0002:00000110       __imp__GetModuleHandleExW@12 10036110     kernel32:KERNEL32.dll
 0002:00000114       __imp__GetModuleFileNameA@12 10036114     kernel32:KERNEL32.dll
 0002:00000118       __imp__CreateThread@24     10036118     kernel32:KERNEL32.dll
 0002:0000011c       __imp__ExitThread@4        1003611c     kernel32:KERNEL32.dll
 0002:00000120       __imp__FreeLibraryAndExitThread@8 10036120     kernel32:KERNEL32.dll
 0002:00000124       __imp__GetACP@0            10036124     kernel32:KERNEL32.dll
 0002:00000128       __imp__GetStdHandle@4      10036128     kernel32:KERNEL32.dll
 0002:0000012c       __imp__GetFileType@4       1003612c     kernel32:KERNEL32.dll
 0002:00000130       __imp__LCMapStringW@24     10036130     kernel32:KERNEL32.dll
 0002:00000134       __imp__GetStringTypeW@16   10036134     kernel32:KERNEL32.dll
 0002:00000138       __imp__FindClose@4         10036138     kernel32:KERNEL32.dll
 0002:0000013c       __imp__FindFirstFileExA@24 1003613c     kernel32:KERNEL32.dll
 0002:00000140       __imp__FindNextFileA@8     10036140     kernel32:KERNEL32.dll
 0002:00000144       __imp__IsValidCodePage@4   10036144     kernel32:KERNEL32.dll
 0002:00000148       __imp__GetOEMCP@0          10036148     kernel32:KERNEL32.dll
 0002:0000014c       __imp__GetCPInfo@8         1003614c     kernel32:KERNEL32.dll
 0002:00000150       __imp__GetCommandLineA@0   10036150     kernel32:KERNEL32.dll
 0002:00000154       __imp__GetCommandLineW@0   10036154     kernel32:KERNEL32.dll
 0002:00000158       __imp__GetEnvironmentStringsW@0 10036158     kernel32:KERNEL32.dll
 0002:0000015c       __imp__FreeEnvironmentStringsW@4 1003615c     kernel32:KERNEL32.dll
 0002:00000160       __imp__SetStdHandle@8      10036160     kernel32:KERNEL32.dll
 0002:00000164       __imp__CreateFileW@28      10036164     kernel32:KERNEL32.dll
 0002:00000168       __imp__FlushFileBuffers@4  10036168     kernel32:KERNEL32.dll
 0002:0000016c       \177KERNEL32_NULL_THUNK_DATA 1003616c     kernel32:KERNEL32.dll
 0002:00000170       __imp_?Lock@CThreadMutex@@QAEXXZ 10036170     tier0:tier0.dll
 0002:00000174       __imp_?Unlock@CThreadMutex@@QAEXXZ 10036174     tier0:tier0.dll
 0002:00000178       __imp__Error               10036178     tier0:tier0.dll
 0002:0000017c       __imp_??0CThreadMutex@@QAE@XZ 1003617c     tier0:tier0.dll
 0002:00000180       __imp_??1CThreadMutex@@QAE@XZ 10036180     tier0:tier0.dll
 0002:00000184       __imp__Msg                 10036184     tier0:tier0.dll
 0002:00000188       __imp__g_pMemAlloc         10036188     tier0:tier0.dll
 0002:0000018c       \177tier0_NULL_THUNK_DATA  1003618c     tier0:tier0.dll
 0002:00000190       ___guard_check_icall_fptr  10036190     LIBCMT:guard_support.obj
 0002:00000194       ___xc_a                    10036194     LIBCMT:initializers.obj
 0002:000001a0       ?p_process_init@?A0xa0aa9219@@3P6AHXZA 100361a0     libboost_thread-vc140-mt-s-1_60:tss_pe.obj
 0002:0000029c       ___xc_z                    1003629c     LIBCMT:initializers.obj
 0002:000002a0       ___xi_a                    100362a0     LIBCMT:initializers.obj
 0002:000002a4       ___PLEASE_LINK_WITH_legacy_stdio_wide_specifiers.lib 100362a4     legacy_stdio_wide_specifiers:legacy_stdio_wide_specifiers.obj
 0002:000002a8       ___acrt_stdio_initializer  100362a8     libucrt:stdio_initializer.obj
 0002:000002ac       ___acrt_multibyte_initializer 100362ac     libucrt:multibyte_initializer.obj
 0002:000002b0       ___acrt_tran_sse2_initializer 100362b0     libucrt:sse2_initializer.obj
 0002:000002b8       ?p_tls_prepare@?A0xa0aa9219@@3P6AHXZA 100362b8     libboost_thread-vc140-mt-s-1_60:tss_pe.obj
 0002:000002bc       ___xi_z                    100362bc     LIBCMT:initializers.obj
 0002:000002c0       ___xl_a                    100362c0     LIBCMT:tlssup.obj
 0002:000002c4       ?__xl_ca@?A0xa0aa9219@@3P6GXPAUHINSTANCE__@@KPAX@ZA 100362c4     libboost_thread-vc140-mt-s-1_60:tss_pe.obj
 0002:000002c8       ___xl_z                    100362c8     LIBCMT:tlssup.obj
 0002:000002cc       ___xp_a                    100362cc     LIBCMT:initializers.obj
 0002:000002d0       ___acrt_locale_terminator  100362d0     libucrt:locale_initializer.obj
 0002:000002d4       ___dcrt_console_output_terminator 100362d4     libucrt:console_output_initializer.obj
 0002:000002d8       ___acrt_stdio_terminator   100362d8     libucrt:stdio_initializer.obj
 0002:000002dc       ___xp_z                    100362dc     LIBCMT:initializers.obj
 0002:000002e0       ___xt_a                    100362e0     LIBCMT:initializers.obj
 0002:000002e4       ?p_process_term@?A0xa0aa9219@@3P6AHXZA 100362e4     libboost_thread-vc140-mt-s-1_60:tss_pe.obj
 0002:000002e8       ___xt_z                    100362e8     LIBCMT:initializers.obj
 0002:000002f0       ??_C@_0BA@OBHPCBFP@CreateInterface?$AA@ 100362f0     tier1:interface.obj
 0002:00000300       ??_C@_01JOAMLHOP@?9?$AA@   10036300     tier1:strtools.obj
 0002:00000308       ??_7exception@std@@6B@     10036308     libcpmt:xthrow.obj
 0002:00000314       ??_7bad_alloc@std@@6B@     10036314     libcpmt:xthrow.obj
 0002:00000320       ??_7logic_error@std@@6B@   10036320     libcpmt:xthrow.obj
 0002:0000032c       ??_7length_error@std@@6B@  1003632c     libcpmt:xthrow.obj
 0002:00000338       ??_7out_of_range@std@@6B@  10036338     libcpmt:xthrow.obj
 0002:00000344       ??_7runtime_error@std@@6B@ 10036344     libcpmt:xthrow.obj
 0002:00000350       ??_7type_info@@6B@         10036350     LIBCMT:std_type_info_static.obj
 0002:00000354       __pDefaultRawDllMain       10036354     LIBCMT:dll_dllmain.obj
 0002:00000364       ??_7bad_array_new_length@std@@6B@ 10036364     LIBCMT:throw_bad_alloc.obj
 0002:0000036c       ??_C@_0BF@KINCDENJ@bad?5array?5new?5length?$AA@ 1003636c     LIBCMT:throw_bad_alloc.obj
 0002:00000388       ??_7bad_exception@std@@6B@ 10036388     libboost_thread-vc140-mt-s-1_60:thread.obj
 0002:00000390       ??_C@_0O@DPKOEFFH@bad?5exception?$AA@ 10036390     libboost_thread-vc140-mt-s-1_60:thread.obj
 0002:000003a4       ??_7exception@boost@@6B@   100363a4     libboost_thread-vc140-mt-s-1_60:thread.obj
 0002:000003ac       ??_7clone_base@exception_detail@boost@@6B@ 100363ac     libboost_thread-vc140-mt-s-1_60:thread.obj
 0002:000003bc       ??_7sp_counted_base@detail@boost@@6B@ 100363bc     libboost_thread-vc140-mt-s-1_60:thread.obj
 0002:000003d4       ??_7bad_day_of_month@gregorian@boost@@6B@ 100363d4     libboost_thread-vc140-mt-s-1_60:thread.obj
 0002:000003e0       ??_7bad_year@gregorian@boost@@6B@ 100363e0     libboost_thread-vc140-mt-s-1_60:thread.obj
 0002:000003ec       ??_7bad_month@gregorian@boost@@6B@ 100363ec     libboost_thread-vc140-mt-s-1_60:thread.obj
 0002:000003f8       ??_7system_error@system@boost@@6B@ 100363f8     libboost_thread-vc140-mt-s-1_60:thread.obj
 0002:00000404       ??_7thread_exception@boost@@6B@ 10036404     libboost_thread-vc140-mt-s-1_60:thread.obj
 0002:00000410       ??_7lock_error@boost@@6B@  10036410     libboost_thread-vc140-mt-s-1_60:thread.obj
 0002:0000041c       ??_7thread_resource_error@boost@@6B@ 1003641c     libboost_thread-vc140-mt-s-1_60:thread.obj
 0002:00000428       ??_7thread_data_base@detail@boost@@6B@ 10036428     libboost_thread-vc140-mt-s-1_60:thread.obj
 0002:00000434       ??_C@_0CE@FBJAFPKL@boost?5thread?3?5trying?5joining?5its@ 10036434     libboost_thread-vc140-mt-s-1_60:thread.obj
 0002:00000458       ?fixed_mutex_name@?1??name_once_mutex@detail@boost@@YAXPADPAX@Z@4QBDB 10036458     libboost_thread-vc140-mt-s-1_60:thread.obj
 0002:00000494       ??_7bad_alloc_@exception_detail@boost@@6Bexception@2@@ 10036494     libboost_thread-vc140-mt-s-1_60:thread.obj
 0002:0000049c       ??_7bad_alloc_@exception_detail@boost@@6Bbad_alloc@std@@@ 1003649c     libboost_thread-vc140-mt-s-1_60:thread.obj
 0002:000004a8       ??_7bad_exception_@exception_detail@boost@@6Bexception@2@@ 100364a8     libboost_thread-vc140-mt-s-1_60:thread.obj
 0002:000004b0       ??_7bad_exception_@exception_detail@boost@@6Bbad_exception@std@@@ 100364b0     libboost_thread-vc140-mt-s-1_60:thread.obj
 0002:000004b8       ??_C@_0BD@EGNOAEIL@SetWaitableTimerEx?$AA@ 100364b8     libboost_thread-vc140-mt-s-1_60:thread.obj
 0002:000004cc       ??_C@_0BP@NGGGDFMB@boost?5unique_lock?5has?5no?5mutex?$AA@ 100364cc     libboost_thread-vc140-mt-s-1_60:thread.obj
 0002:000004ec       ??_C@_0CJ@JIBGGJPF@boost?5unique_lock?5owns?5already?5t@ 100364ec     libboost_thread-vc140-mt-s-1_60:thread.obj
 0002:0000051c       ??_7?$error_info_injector@Vruntime_error@std@@@exception_detail@boost@@6Bruntime_error@std@@@ 1003651c     libboost_thread-vc140-mt-s-1_60:thread.obj
 0002:00000528       ??_7?$error_info_injector@Vruntime_error@std@@@exception_detail@boost@@6Bexception@2@@ 10036528     libboost_thread-vc140-mt-s-1_60:thread.obj
 0002:00000530       ??_7?$clone_impl@U?$error_info_injector@Vruntime_error@std@@@exception_detail@boost@@@exception_detail@boost@@6Bruntime_error@std@@@ 10036530     libboost_thread-vc140-mt-s-1_60:thread.obj
 0002:0000053c       ??_7?$clone_impl@U?$error_info_injector@Vruntime_error@std@@@exception_detail@boost@@@exception_detail@boost@@6Bexception@2@@ 1003653c     libboost_thread-vc140-mt-s-1_60:thread.obj
 0002:00000544       ??_7?$clone_impl@U?$error_info_injector@Vruntime_error@std@@@exception_detail@boost@@@exception_detail@boost@@6B@ 10036544     libboost_thread-vc140-mt-s-1_60:thread.obj
 0002:00000554       ??_7?$error_info_injector@Ubad_day_of_month@gregorian@boost@@@exception_detail@boost@@6Bbad_day_of_month@gregorian@2@@ 10036554     libboost_thread-vc140-mt-s-1_60:thread.obj
 0002:00000560       ??_7?$error_info_injector@Ubad_day_of_month@gregorian@boost@@@exception_detail@boost@@6Bexception@2@@ 10036560     libboost_thread-vc140-mt-s-1_60:thread.obj
 0002:00000568       ??_7?$clone_impl@U?$error_info_injector@Ubad_day_of_month@gregorian@boost@@@exception_detail@boost@@@exception_detail@boost@@6Bbad_day_of_month@gregorian@2@@ 10036568     libboost_thread-vc140-mt-s-1_60:thread.obj
 0002:00000574       ??_7?$clone_impl@U?$error_info_injector@Ubad_day_of_month@gregorian@boost@@@exception_detail@boost@@@exception_detail@boost@@6Bexception@2@@ 10036574     libboost_thread-vc140-mt-s-1_60:thread.obj
 0002:0000057c       ??_7?$clone_impl@U?$error_info_injector@Ubad_day_of_month@gregorian@boost@@@exception_detail@boost@@@exception_detail@boost@@6B@ 1003657c     libboost_thread-vc140-mt-s-1_60:thread.obj
 0002:0000058c       ??_7?$error_info_injector@Vthread_resource_error@boost@@@exception_detail@boost@@6Bthread_resource_error@2@@ 1003658c     libboost_thread-vc140-mt-s-1_60:thread.obj
 0002:00000598       ??_7?$error_info_injector@Vthread_resource_error@boost@@@exception_detail@boost@@6Bexception@2@@ 10036598     libboost_thread-vc140-mt-s-1_60:thread.obj
 0002:000005a0       ??_7?$clone_impl@U?$error_info_injector@Vthread_resource_error@boost@@@exception_detail@boost@@@exception_detail@boost@@6Bthread_resource_error@2@@ 100365a0     libboost_thread-vc140-mt-s-1_60:thread.obj
 0002:000005ac       ??_7?$clone_impl@U?$error_info_injector@Vthread_resource_error@boost@@@exception_detail@boost@@@exception_detail@boost@@6Bexception@2@@ 100365ac     libboost_thread-vc140-mt-s-1_60:thread.obj
 0002:000005b4       ??_7?$clone_impl@U?$error_info_injector@Vthread_resource_error@boost@@@exception_detail@boost@@@exception_detail@boost@@6B@ 100365b4     libboost_thread-vc140-mt-s-1_60:thread.obj
 0002:000005c4       ??_7?$error_info_injector@Vbad_alloc@std@@@exception_detail@boost@@6Bbad_alloc@std@@@ 100365c4     libboost_thread-vc140-mt-s-1_60:thread.obj
 0002:000005d0       ??_7?$error_info_injector@Vbad_alloc@std@@@exception_detail@boost@@6Bexception@2@@ 100365d0     libboost_thread-vc140-mt-s-1_60:thread.obj
 0002:000005d8       ??_7?$clone_impl@U?$error_info_injector@Vbad_alloc@std@@@exception_detail@boost@@@exception_detail@boost@@6Bbad_alloc@std@@@ 100365d8     libboost_thread-vc140-mt-s-1_60:thread.obj
 0002:000005e4       ??_7?$clone_impl@U?$error_info_injector@Vbad_alloc@std@@@exception_detail@boost@@@exception_detail@boost@@6Bexception@2@@ 100365e4     libboost_thread-vc140-mt-s-1_60:thread.obj
 0002:000005ec       ??_7?$clone_impl@U?$error_info_injector@Vbad_alloc@std@@@exception_detail@boost@@@exception_detail@boost@@6B@ 100365ec     libboost_thread-vc140-mt-s-1_60:thread.obj
 0002:000005fc       ??_7?$error_info_injector@Vlock_error@boost@@@exception_detail@boost@@6Block_error@2@@ 100365fc     libboost_thread-vc140-mt-s-1_60:thread.obj
 0002:00000608       ??_7?$error_info_injector@Vlock_error@boost@@@exception_detail@boost@@6Bexception@2@@ 10036608     libboost_thread-vc140-mt-s-1_60:thread.obj
 0002:00000610       ??_7?$clone_impl@U?$error_info_injector@Vlock_error@boost@@@exception_detail@boost@@@exception_detail@boost@@6Block_error@2@@ 10036610     libboost_thread-vc140-mt-s-1_60:thread.obj
 0002:0000061c       ??_7?$clone_impl@U?$error_info_injector@Vlock_error@boost@@@exception_detail@boost@@@exception_detail@boost@@6Bexception@2@@ 1003661c     libboost_thread-vc140-mt-s-1_60:thread.obj
 0002:00000624       ??_7?$clone_impl@U?$error_info_injector@Vlock_error@boost@@@exception_detail@boost@@@exception_detail@boost@@6B@ 10036624     libboost_thread-vc140-mt-s-1_60:thread.obj
 0002:00000630       ??_8?$clone_impl@U?$error_info_injector@Vlock_error@boost@@@exception_detail@boost@@@exception_detail@boost@@7B@ 10036630     libboost_thread-vc140-mt-s-1_60:thread.obj
 0002:0000063c       ??_7?$error_info_injector@Ubad_month@gregorian@boost@@@exception_detail@boost@@6Bbad_month@gregorian@2@@ 1003663c     libboost_thread-vc140-mt-s-1_60:thread.obj
 0002:00000648       ??_7?$error_info_injector@Ubad_month@gregorian@boost@@@exception_detail@boost@@6Bexception@2@@ 10036648     libboost_thread-vc140-mt-s-1_60:thread.obj
 0002:00000650       ??_7?$clone_impl@U?$error_info_injector@Ubad_month@gregorian@boost@@@exception_detail@boost@@@exception_detail@boost@@6Bbad_month@gregorian@2@@ 10036650     libboost_thread-vc140-mt-s-1_60:thread.obj
 0002:0000065c       ??_7?$clone_impl@U?$error_info_injector@Ubad_month@gregorian@boost@@@exception_detail@boost@@@exception_detail@boost@@6Bexception@2@@ 1003665c     libboost_thread-vc140-mt-s-1_60:thread.obj
 0002:00000664       ??_7?$clone_impl@U?$error_info_injector@Ubad_month@gregorian@boost@@@exception_detail@boost@@@exception_detail@boost@@6B@ 10036664     libboost_thread-vc140-mt-s-1_60:thread.obj
 0002:00000674       ??_7?$error_info_injector@Ubad_year@gregorian@boost@@@exception_detail@boost@@6Bbad_year@gregorian@2@@ 10036674     libboost_thread-vc140-mt-s-1_60:thread.obj
 0002:00000680       ??_7?$error_info_injector@Ubad_year@gregorian@boost@@@exception_detail@boost@@6Bexception@2@@ 10036680     libboost_thread-vc140-mt-s-1_60:thread.obj
 0002:00000688       ??_7?$clone_impl@U?$error_info_injector@Ubad_year@gregorian@boost@@@exception_detail@boost@@@exception_detail@boost@@6Bbad_year@gregorian@2@@ 10036688     libboost_thread-vc140-mt-s-1_60:thread.obj
 0002:00000694       ??_7?$clone_impl@U?$error_info_injector@Ubad_year@gregorian@boost@@@exception_detail@boost@@@exception_detail@boost@@6Bexception@2@@ 10036694     libboost_thread-vc140-mt-s-1_60:thread.obj
 0002:0000069c       ??_7?$clone_impl@U?$error_info_injector@Ubad_year@gregorian@boost@@@exception_detail@boost@@@exception_detail@boost@@6B@ 1003669c     libboost_thread-vc140-mt-s-1_60:thread.obj
 0002:000006ac       ??_7?$clone_impl@Ubad_alloc_@exception_detail@boost@@@exception_detail@boost@@6Bexception@2@@ 100366ac     libboost_thread-vc140-mt-s-1_60:thread.obj
 0002:000006b4       ??_7?$clone_impl@Ubad_alloc_@exception_detail@boost@@@exception_detail@boost@@6Bbad_alloc@std@@@ 100366b4     libboost_thread-vc140-mt-s-1_60:thread.obj
 0002:000006c0       ??_7?$clone_impl@Ubad_alloc_@exception_detail@boost@@@exception_detail@boost@@6B@ 100366c0     libboost_thread-vc140-mt-s-1_60:thread.obj
 0002:000006cc       ??_8?$clone_impl@Ubad_alloc_@exception_detail@boost@@@exception_detail@boost@@7B@ 100366cc     libboost_thread-vc140-mt-s-1_60:thread.obj
 0002:000006d4       ??_C@_0CL@EGOLMDBI@?4?2boost?1exception?1detail?1excepti@ 100366d4     libboost_thread-vc140-mt-s-1_60:thread.obj
 0002:00000700       ??_C@_0IK@LHEHAGMH@class?5boost?3?3exception_ptr?5__cde@ 10036700     libboost_thread-vc140-mt-s-1_60:thread.obj
 0002:00000790       ??_7?$clone_impl@Ubad_exception_@exception_detail@boost@@@exception_detail@boost@@6Bexception@2@@ 10036790     libboost_thread-vc140-mt-s-1_60:thread.obj
 0002:00000798       ??_7?$clone_impl@Ubad_exception_@exception_detail@boost@@@exception_detail@boost@@6Bbad_exception@std@@@ 10036798     libboost_thread-vc140-mt-s-1_60:thread.obj
 0002:000007a4       ??_7?$clone_impl@Ubad_exception_@exception_detail@boost@@@exception_detail@boost@@6B@ 100367a4     libboost_thread-vc140-mt-s-1_60:thread.obj
 0002:000007b0       ??_8?$clone_impl@Ubad_exception_@exception_detail@boost@@@exception_detail@boost@@7B@ 100367b0     libboost_thread-vc140-mt-s-1_60:thread.obj
 0002:000007b8       ??_C@_0IO@BHMGIOEK@class?5boost?3?3exception_ptr?5__cde@ 100367b8     libboost_thread-vc140-mt-s-1_60:thread.obj
 0002:0000084c       ??_7?$sp_counted_impl_p@V?$clone_impl@Ubad_alloc_@exception_detail@boost@@@exception_detail@boost@@@detail@boost@@6B@ 1003684c     libboost_thread-vc140-mt-s-1_60:thread.obj
 0002:00000864       ??_7?$sp_counted_impl_p@V?$clone_impl@Ubad_exception_@exception_detail@boost@@@exception_detail@boost@@@detail@boost@@6B@ 10036864     libboost_thread-vc140-mt-s-1_60:thread.obj
 0002:00000880       __xmm@ffffffff000000000000000000000000 10036880     libboost_thread-vc140-mt-s-1_60:thread.obj
 0002:00000890       __pRawDllMainOrig          10036890     libboost_thread-vc140-mt-s-1_60:tss_pe.obj
 0002:00000890       __pDefaultRawDllMainOrig   10036890     libboost_thread-vc140-mt-s-1_60:tss_pe.obj
 0002:00000894       __pRawDllMain              10036894     libboost_thread-vc140-mt-s-1_60:tss_pe.obj
 0002:00000898       ??_C@_07DCLBNMLN@generic?$AA@ 10036898     libboost_system-vc140-mt-s-1_60:error_code.obj
 0002:000008a0       ??_C@_06FHFOAHML@system?$AA@ 100368a0     libboost_system-vc140-mt-s-1_60:error_code.obj
 0002:000008ac       ??_7error_category@system@boost@@6B@ 100368ac     libboost_system-vc140-mt-s-1_60:error_code.obj
 0002:000008c8       ??_7generic_error_category@?A0x5c0157ab@system@boost@@6B@ 100368c8     libboost_system-vc140-mt-s-1_60:error_code.obj
 0002:000008e4       ??_7system_error_category@?A0x5c0157ab@system@boost@@6B@ 100368e4     libboost_system-vc140-mt-s-1_60:error_code.obj
 0002:000008fc       ??_C@_0O@NIPGCINC@Unknown?5error?$AA@ 100368fc     libboost_system-vc140-mt-s-1_60:error_code.obj
 0002:0000090c       __pDestructExceptionObject 1003690c     libvcruntime:frame.obj
 0002:00000930       __Microsoft_CRTProvider    10036930     libvcruntime:telemetry.obj
 0002:00000934       ??_C@_00CNPNBAHC@?$AA@     10036934     libvcruntime:telemetry.obj
 0002:00000938       ??_C@_11LOCGONAA@?$AA?$AA@ 10036938     libvcruntime:telemetry.obj
 0002:0000093c       ??_C@_0O@JEOPJOMI@Main?5Invoked?4?$AA@ 1003693c     libvcruntime:telemetry.obj
 0002:0000094c       ??_C@_0P@NEAEIBDO@Main?5Returned?4?$AA@ 1003694c     libvcruntime:telemetry.obj
 0002:0000096c       ??_C@_1BC@DNHGCMLG@?$AAa?$AAd?$AAv?$AAa?$AAp?$AAi?$AA3?$AA2?$AA?$AA@ 1003696c     libvcruntime:winapi_downlevel.obj
 0002:00000980       ??_C@_1DM@KHCHBNEB@?$AAa?$AAp?$AAi?$AA?9?$AAm?$AAs?$AA?9?$AAw?$AAi?$AAn?$AA?9?$AAc?$AAo?$AAr?$AAe?$AA?9?$AAf?$AAi?$AAb?$AAe?$AAr?$AAs?$AA?9?$AAl?$AA1?$AA?9?$AA1?$AA?9?$AA1?$AA?$AA@ 10036980     libvcruntime:winapi_downlevel.obj
 0002:000009bc       ??_C@_1DK@LPPGFMPP@?$AAa?$AAp?$AAi?$AA?9?$AAm?$AAs?$AA?9?$AAw?$AAi?$AAn?$AA?9?$AAc?$AAo?$AAr?$AAe?$AA?9?$AAs?$AAy?$AAn?$AAc?$AAh?$AA?9?$AAl?$AA1?$AA?9?$AA2?$AA?9?$AA0?$AA?$AA@ 100369bc     libvcruntime:winapi_downlevel.obj
 0002:000009f8       ??_C@_1BC@GDMECMAK@?$AAk?$AAe?$AAr?$AAn?$AAe?$AAl?$AA3?$AA2?$AA?$AA@ 100369f8     libvcruntime:winapi_downlevel.obj
 0002:00000a10       ??_C@_0O@BAMBGLIE@EventRegister?$AA@ 10036a10     libvcruntime:winapi_downlevel.obj
 0002:00000a24       ??_C@_0BE@BJEEGHGK@EventSetInformation?$AA@ 10036a24     libvcruntime:winapi_downlevel.obj
 0002:00000a3c       ??_C@_0BA@FAKLIPIC@EventUnregister?$AA@ 10036a3c     libvcruntime:winapi_downlevel.obj
 0002:00000a50       ??_C@_0BD@PKLHJPHD@EventWriteTransfer?$AA@ 10036a50     libvcruntime:winapi_downlevel.obj
 0002:00000a6c       ??_C@_08KNHFBNJ@FlsAlloc?$AA@ 10036a6c     libvcruntime:winapi_downlevel.obj
 0002:00000a80       ??_C@_07PEJMOBNF@FlsFree?$AA@ 10036a80     libvcruntime:winapi_downlevel.obj
 0002:00000a90       ??_C@_0M@GDNOONDI@FlsGetValue?$AA@ 10036a90     libvcruntime:winapi_downlevel.obj
 0002:00000aa4       ??_C@_0M@JCPCPOEF@FlsSetValue?$AA@ 10036aa4     libvcruntime:winapi_downlevel.obj
 0002:00000ab8       ??_C@_0BM@HCFOFFN@InitializeCriticalSectionEx?$AA@ 10036ab8     libvcruntime:winapi_downlevel.obj
 0002:00000c68       ??_C@_08EHJDFFNH@__based?$CI?$AA@ 10036c68     libvcruntime:undname.obj
 0002:00000c74       ??_C@_07KOLFKCDI@__cdecl?$AA@ 10036c74     libvcruntime:undname.obj
 0002:00000c7c       ??_C@_08GHMPAG@__pascal?$AA@ 10036c7c     libvcruntime:undname.obj
 0002:00000c88       ??_C@_09IFJBGAPI@__stdcall?$AA@ 10036c88     libvcruntime:undname.obj
 0002:00000c94       ??_C@_0L@NPHFGOKO@__thiscall?$AA@ 10036c94     libvcruntime:undname.obj
 0002:00000ca0       ??_C@_0L@JMKHOMEK@__fastcall?$AA@ 10036ca0     libvcruntime:undname.obj
 0002:00000cac       ??_C@_0N@BCKKPABJ@__vectorcall?$AA@ 10036cac     libvcruntime:undname.obj
 0002:00000cbc       ??_C@_09HIJEGCPM@__clrcall?$AA@ 10036cbc     libvcruntime:undname.obj
 0002:00000cc8       ??_C@_06GHPCKEAG@__eabi?$AA@ 10036cc8     libvcruntime:undname.obj
 0002:00000cd0       ??_C@_07JOMMBBKO@__ptr64?$AA@ 10036cd0     libvcruntime:undname.obj
 0002:00000cd8       ??_C@_0L@PILCLIHE@__restrict?$AA@ 10036cd8     libvcruntime:undname.obj
 0002:00000ce4       ??_C@_0M@GFIIJFMG@__unaligned?$AA@ 10036ce4     libvcruntime:undname.obj
 0002:00000cf0       ??_C@_09DHDLOLLB@restrict?$CI?$AA@ 10036cf0     libvcruntime:undname.obj
 0002:00000cfc       ??_C@_04NIHEBCM@?5new?$AA@ 10036cfc     libvcruntime:undname.obj
 0002:00000d04       ??_C@_07FPCDHGMM@?5delete?$AA@ 10036d04     libvcruntime:undname.obj
 0002:00000d0c       ??_C@_01NEMOKFLO@?$DN?$AA@ 10036d0c     libvcruntime:undname.obj
 0002:00000d10       ??_C@_02GPIOPFAK@?$DO?$DO?$AA@ 10036d10     libvcruntime:undname.obj
 0002:00000d14       ??_C@_02FODMEDOG@?$DM?$DM?$AA@ 10036d14     libvcruntime:undname.obj
 0002:00000d18       ??_C@_01DCLJPIOD@?$CB?$AA@ 10036d18     libvcruntime:undname.obj
 0002:00000d1c       ??_C@_02EGOFBIJA@?$DN?$DN?$AA@ 10036d1c     libvcruntime:undname.obj
 0002:00000d20       ??_C@_02FDNJECIE@?$CB?$DN?$AA@ 10036d20     libvcruntime:undname.obj
 0002:00000d24       ??_C@_02GPECMEKF@?$FL?$FN?$AA@ 10036d24     libvcruntime:undname.obj
 0002:00000d28       ??_C@_08LHJFAFGD@operator?$AA@ 10036d28     libvcruntime:undname.obj
 0002:00000d34       ??_C@_02HBOOOICD@?9?$DO?$AA@ 10036d34     libvcruntime:undname.obj
 0002:00000d38       ??_C@_01NBENCBCI@?$CK?$AA@ 10036d38     libvcruntime:undname.obj
 0002:00000d3c       ??_C@_02ECNGHCIF@?$CL?$CL?$AA@ 10036d3c     libvcruntime:undname.obj
 0002:00000d40       ??_C@_02BAABKJLB@?9?9?$AA@ 10036d40     libvcruntime:undname.obj
 0002:00000d44       ??_C@_01MIFGBAGJ@?$CL?$AA@ 10036d44     libvcruntime:undname.obj
 0002:00000d48       ??_C@_01HNPIGOCE@?$CG?$AA@ 10036d48     libvcruntime:undname.obj
 0002:00000d4c       ??_C@_03MNHNFDLC@?9?$DO?$CK?$AA@ 10036d4c     libvcruntime:undname.obj
 0002:00000d50       ??_C@_01KMDKNFGN@?1?$AA@   10036d50     libvcruntime:undname.obj
 0002:00000d54       ??_C@_01FGNFDNOH@?$CF?$AA@ 10036d54     libvcruntime:undname.obj
 0002:00000d58       ??_C@_01MNNFJEPP@?$DM?$AA@ 10036d58     libvcruntime:undname.obj
 0002:00000d5c       ??_C@_02EHCHHCKH@?$DM?$DN?$AA@ 10036d5c     libvcruntime:undname.obj
 0002:00000d60       ??_C@_01PPODPGHN@?$DO?$AA@ 10036d60     libvcruntime:undname.obj
 0002:00000d64       ??_C@_02EEKDKGMJ@?$DO?$DN?$AA@ 10036d64     libvcruntime:undname.obj
 0002:00000d68       ??_C@_01IHBHIGKO@?0?$AA@   10036d68     libvcruntime:undname.obj
 0002:00000d6c       ??_C@_02HCKGKOFO@?$CI?$CJ?$AA@ 10036d6c     libvcruntime:undname.obj
 0002:00000d70       ??_C@_01PJKLJHI@?$HO?$AA@  10036d70     libvcruntime:undname.obj
 0002:00000d74       ??_C@_01JKBOJNNK@?$FO?$AA@ 10036d74     libvcruntime:undname.obj
 0002:00000d78       ??_C@_01DNKMNLPK@?$HM?$AA@ 10036d78     libvcruntime:undname.obj
 0002:00000d7c       ??_C@_02PPKAJPJL@?$CG?$CG?$AA@ 10036d7c     libvcruntime:undname.obj
 0002:00000d80       ??_C@_02NONPIBCD@?$HM?$HM?$AA@ 10036d80     libvcruntime:undname.obj
 0002:00000d84       ??_C@_02FPIMKNGF@?$CK?$DN?$AA@ 10036d84     libvcruntime:undname.obj
 0002:00000d88       ??_C@_02FOEOMHFC@?$CL?$DN?$AA@ 10036d88     libvcruntime:undname.obj
 0002:00000d8c       ??_C@_02FKMDLLOA@?9?$DN?$AA@ 10036d8c     libvcruntime:undname.obj
 0002:00000d90       ??_C@_02FJEHGPIO@?1?$DN?$AA@ 10036d90     libvcruntime:undname.obj
 0002:00000d94       ??_C@_02FENAOKFI@?$CF?$DN?$AA@ 10036d94     libvcruntime:undname.obj
 0002:00000d98       ??_C@_03IKFCCPFF@?$DO?$DO?$DN?$AA@ 10036d98     libvcruntime:undname.obj
 0002:00000d9c       ??_C@_03CDNPDDLA@?$DM?$DM?$DN?$AA@ 10036d9c     libvcruntime:undname.obj
 0002:00000da0       ??_C@_02FGJGFEAB@?$CG?$DN?$AA@ 10036da0     libvcruntime:undname.obj
 0002:00000da4       ??_C@_02DHLNPPGH@?$HM?$DN?$AA@ 10036da4     libvcruntime:undname.obj
 0002:00000da8       ??_C@_02MHEGNOJ@?$FO?$DN?$AA@ 10036da8     libvcruntime:undname.obj
 0002:00000dac       ??_C@_09IFPLHPGF@?$GAvftable?8?$AA@ 10036dac     libvcruntime:undname.obj
 0002:00000db8       ??_C@_09BLBHBJP@?$GAvbtable?8?$AA@ 10036db8     libvcruntime:undname.obj
 0002:00000dc4       ??_C@_07FEEIOKP@?$GAvcall?8?$AA@ 10036dc4     libvcruntime:undname.obj
 0002:00000dcc       ??_C@_08LLFFHHDJ@?$GAtypeof?8?$AA@ 10036dcc     libvcruntime:undname.obj
 0002:00000dd8       ??_C@_0BF@KDPPACIK@?$GAlocal?5static?5guard?8?$AA@ 10036dd8     libvcruntime:undname.obj
 0002:00000df0       ??_C@_08OBABFOLI@?$GAstring?8?$AA@ 10036df0     libvcruntime:undname.obj
 0002:00000dfc       ??_C@_0BD@JDLKDPAB@?$GAvbase?5destructor?8?$AA@ 10036dfc     libvcruntime:undname.obj
 0002:00000e10       ??_C@_0BN@DEGPLNFK@?$GAvector?5deleting?5destructor?8?$AA@ 10036e10     libvcruntime:undname.obj
 0002:00000e30       ??_C@_0BO@OBMKPJIG@?$GAdefault?5constructor?5closure?8?$AA@ 10036e30     libvcruntime:undname.obj
 0002:00000e50       ??_C@_0BN@IMDCHIKM@?$GAscalar?5deleting?5destructor?8?$AA@ 10036e50     libvcruntime:undname.obj
 0002:00000e70       ??_C@_0BO@PFGOCPJJ@?$GAvector?5constructor?5iterator?8?$AA@ 10036e70     libvcruntime:undname.obj
 0002:00000e90       ??_C@_0BN@LFPFMEDL@?$GAvector?5destructor?5iterator?8?$AA@ 10036e90     libvcruntime:undname.obj
 0002:00000eb0       ??_C@_0CE@IKBNEHA@?$GAvector?5vbase?5constructor?5iterat@ 10036eb0     libvcruntime:undname.obj
 0002:00000ed4       ??_C@_0BL@NILFHHPC@?$GAvirtual?5displacement?5map?8?$AA@ 10036ed4     libvcruntime:undname.obj
 0002:00000ef0       ??_C@_0CB@JONCMFFK@?$GAeh?5vector?5constructor?5iterator?8@ 10036ef0     libvcruntime:undname.obj
 0002:00000f14       ??_C@_0CA@GCEOPDGL@?$GAeh?5vector?5destructor?5iterator?8?$AA@ 10036f14     libvcruntime:undname.obj
 0002:00000f34       ??_C@_0CH@OOJPLCPH@?$GAeh?5vector?5vbase?5constructor?5ite@ 10036f34     libvcruntime:undname.obj
 0002:00000f5c       ??_C@_0BL@LLKPOHJI@?$GAcopy?5constructor?5closure?8?$AA@ 10036f5c     libvcruntime:undname.obj
 0002:00000f78       ??_C@_0BA@KBCDOMBN@?$GAudt?5returning?8?$AA@ 10036f78     libvcruntime:undname.obj
 0002:00000f88       ??_C@_03KLGMFNMG@?$GAEH?$AA@ 10036f88     libvcruntime:undname.obj
 0002:00000f8c       ??_C@_05KHLCHHI@?$GARTTI?$AA@ 10036f8c     libvcruntime:undname.obj
 0002:00000f94       ??_C@_0BA@KKLDJDLB@?$GAlocal?5vftable?8?$AA@ 10036f94     libvcruntime:undname.obj
 0002:00000fa4       ??_C@_0CE@IIHCMGGL@?$GAlocal?5vftable?5constructor?5closu@ 10036fa4     libvcruntime:undname.obj
 0002:00000fc8       ??_C@_06FHBGPFGH@?5new?$FL?$FN?$AA@ 10036fc8     libvcruntime:undname.obj
 0002:00000fd0       ??_C@_09LBNFPBCA@?5delete?$FL?$FN?$AA@ 10036fd0     libvcruntime:undname.obj
 0002:00000fdc       ??_C@_0P@HJKNJFNN@?$GAomni?5callsig?8?$AA@ 10036fdc     libvcruntime:undname.obj
 0002:00000fec       ??_C@_0BL@CNOONJFP@?$GAplacement?5delete?5closure?8?$AA@ 10036fec     libvcruntime:undname.obj
 0002:00001008       ??_C@_0BN@CKNJLHMB@?$GAplacement?5delete?$FL?$FN?5closure?8?$AA@ 10037008     libvcruntime:undname.obj
 0002:00001028       ??_C@_0CG@CFDHKGGD@?$GAmanaged?5vector?5constructor?5iter@ 10037028     libvcruntime:undname.obj
 0002:00001050       ??_C@_0CF@IMGKMJNO@?$GAmanaged?5vector?5destructor?5itera@ 10037050     libvcruntime:undname.obj
 0002:00001078       ??_C@_0CG@HLDDJMAG@?$GAeh?5vector?5copy?5constructor?5iter@ 10037078     libvcruntime:undname.obj
 0002:000010a0       ??_C@_0CM@FCBBDIGB@?$GAeh?5vector?5vbase?5copy?5constructo@ 100370a0     libvcruntime:undname.obj
 0002:000010cc       ??_C@_0BL@CLIPGLGB@?$GAdynamic?5initializer?5for?5?8?$AA@ 100370cc     libvcruntime:undname.obj
 0002:000010e8       ??_C@_0CB@PDBIFEP@?$GAdynamic?5atexit?5destructor?5for?5?8@ 100370e8     libvcruntime:undname.obj
 0002:0000110c       ??_C@_0CD@CGAJBKEJ@?$GAvector?5copy?5constructor?5iterato@ 1003710c     libvcruntime:undname.obj
 0002:00001130       ??_C@_0CJ@GJELGAMM@?$GAvector?5vbase?5copy?5constructor?5i@ 10037130     libvcruntime:undname.obj
 0002:0000115c       ??_C@_0CL@FGIJHLCE@?$GAmanaged?5vector?5copy?5constructor@ 1003715c     libvcruntime:undname.obj
 0002:00001188       ??_C@_0BM@PMGGMLDN@?$GAlocal?5static?5thread?5guard?8?$AA@ 10037188     libvcruntime:undname.obj
 0002:000011a4       ??_C@_0N@BDNMDMOL@operator?5?$CC?$CC?5?$AA@ 100371a4     libvcruntime:undname.obj
 0002:000011b4       ??_C@_0BC@DAFEJGAK@?5Type?5Descriptor?8?$AA@ 100371b4     libvcruntime:undname.obj
 0002:000011c8       ??_C@_0BM@LDKODKLH@?5Base?5Class?5Descriptor?5at?5?$CI?$AA@ 100371c8     libvcruntime:undname.obj
 0002:000011e4       ??_C@_0BD@LGICGFMM@?5Base?5Class?5Array?8?$AA@ 100371e4     libvcruntime:undname.obj
 0002:000011f8       ??_C@_0BN@MECKDCOJ@?5Class?5Hierarchy?5Descriptor?8?$AA@ 100371f8     libvcruntime:undname.obj
 0002:00001218       ??_C@_0BK@CFCOFLF@?5Complete?5Object?5Locator?8?$AA@ 10037218     libvcruntime:undname.obj
 0002:00001238       _standard_lookup_table     10037238     libucrt:output.obj
 0002:00001298       _format_validation_lookup_table 10037298     libucrt:output.obj
 0002:000012f4       ??_C@_06OJHGLDPL@?$CInull?$CJ?$AA@ 100372f4     libucrt:output.obj
 0002:000012fc       ??_C@_1O@CEDCILHN@?$AA?$CI?$AAn?$AAu?$AAl?$AAl?$AA?$CJ?$AA?$AA@ 100372fc     libucrt:output.obj
 0002:00001310       ?large_power_data@?1??multiply_by_power_of_ten@__crt_strtox@@YA_NAAUbig_integer@2@I@Z@4QBIB 10037310     libucrt:input.obj
 0002:00001c18       ?large_power_indices@?1??multiply_by_power_of_ten@__crt_strtox@@YA_NAAUbig_integer@2@I@Z@4QBUunpack_index@?1??12@YA_N0I@Z@B 10037c18     libucrt:input.obj
 0002:00001cb0       ?small_powers_of_ten@?6??multiply_by_power_of_ten@__crt_strtox@@YA_NAAUbig_integer@2@I@Z@4QBIB 10037cb0     libucrt:input.obj
 0002:00001cd8       ??_C@_1GE@DPGDJKLM@?$AAm?$AAi?$AAn?$AAk?$AAe?$AAr?$AAn?$AAe?$AAl?$AA?2?$AAc?$AAr?$AAt?$AAs?$AA?2?$AAu?$AAc?$AAr?$AAt?$AA?2?$AAi?$AAn?$AAc?$AA?2?$AAc?$AAo?$AAr?$AAe?$AAc?$AAr?$AAt?$AA_@ 10037cd8     libucrt:input.obj
 0002:00001d40       ??_C@_1FM@FELNCOBF@?$AA_?$AA_?$AAc?$AAr?$AAt?$AA_?$AAs?$AAt?$AAr?$AAt?$AAo?$AAx?$AA?3?$AA?3?$AAf?$AAl?$AAo?$AAa?$AAt?$AAi?$AAn?$AAg?$AA_?$AAp?$AAo?$AAi?$AAn?$AAt?$AA_?$AAv?$AAa?$AAl@ 10037d40     libucrt:input.obj
 0002:00001d9c       ??_C@_1BG@GEMHBGAF@?$AA_?$AAi?$AAs?$AA_?$AAd?$AAo?$AAu?$AAb?$AAl?$AAe?$AA?$AA@ 10037d9c     libucrt:input.obj
 0002:00001db8       ??_C@_1FK@JOJELFFO@?$AA_?$AA_?$AAc?$AAr?$AAt?$AA_?$AAs?$AAt?$AAr?$AAt?$AAo?$AAx?$AA?3?$AA?3?$AAf?$AAl?$AAo?$AAa?$AAt?$AAi?$AAn?$AAg?$AA_?$AAp?$AAo?$AAi?$AAn?$AAt?$AA_?$AAv?$AAa?$AAl@ 10037db8     libucrt:input.obj
 0002:00001e14       ??_C@_1BI@BANMPGJI@?$AA?$CB?$AA_?$AAi?$AAs?$AA_?$AAd?$AAo?$AAu?$AAb?$AAl?$AAe?$AA?$AA@ 10037e14     libucrt:input.obj
 0002:00001e30       ?constraints@?1??is_length_valid@__crt_stdio_input@@YA_NW4conversion_mode@2@W4length_modifier@2@@Z@4QAY0M@$$CBEA 10037e30     libucrt:input.obj
 0002:00001ea8       ?inf_uppercase@?2???$parse_floating_point_possible_infinity@DV?$input_adapter_character_source@V?$stream_input_adapter@D@__crt_stdio_input@@@__crt_strtox@@_K@__crt_strtox@@YA?AW4floating_point_parse_result@1@AADAAV?$input_adapter_character_source@V?$stream_input_adapter@D@__crt_stdio_input@@@1@_K@Z@4QBDB 10037ea8     libucrt:input.obj
 0002:00001eac       ?inf_lowercase@?2???$parse_floating_point_possible_infinity@DV?$input_adapter_character_source@V?$stream_input_adapter@D@__crt_stdio_input@@@__crt_strtox@@_K@__crt_strtox@@YA?AW4floating_point_parse_result@1@AADAAV?$input_adapter_character_source@V?$stream_input_adapter@D@__crt_stdio_input@@@1@_K@Z@4QBDB 10037eac     libucrt:input.obj
 0002:00001eb0       ?inity_uppercase@?5???$parse_floating_point_possible_infinity@DV?$input_adapter_character_source@V?$stream_input_adapter@D@__crt_stdio_input@@@__crt_strtox@@_K@__crt_strtox@@YA?AW4floating_point_parse_result@1@AADAAV?$input_adapter_character_source@V?$stream_input_adapter@D@__crt_stdio_input@@@1@_K@Z@4QBDB 10037eb0     libucrt:input.obj
 0002:00001eb8       ?inity_lowercase@?5???$parse_floating_point_possible_infinity@DV?$input_adapter_character_source@V?$stream_input_adapter@D@__crt_stdio_input@@@__crt_strtox@@_K@__crt_strtox@@YA?AW4floating_point_parse_result@1@AADAAV?$input_adapter_character_source@V?$stream_input_adapter@D@__crt_stdio_input@@@1@_K@Z@4QBDB 10037eb8     libucrt:input.obj
 0002:00001ec0       ?uppercase@?2???$parse_floating_point_possible_nan@DV?$input_adapter_character_source@V?$stream_input_adapter@D@__crt_stdio_input@@@__crt_strtox@@_K@__crt_strtox@@YA?AW4floating_point_parse_result@1@AADAAV?$input_adapter_character_source@V?$stream_input_adapter@D@__crt_stdio_input@@@1@_K@Z@4QBDB 10037ec0     libucrt:input.obj
 0002:00001ec4       ?lowercase@?2???$parse_floating_point_possible_nan@DV?$input_adapter_character_source@V?$stream_input_adapter@D@__crt_stdio_input@@@__crt_strtox@@_K@__crt_strtox@@YA?AW4floating_point_parse_result@1@AADAAV?$input_adapter_character_source@V?$stream_input_adapter@D@__crt_stdio_input@@@1@_K@Z@4QBDB 10037ec4     libucrt:input.obj
 0002:00001ec8       ?uppercase@?1???$parse_floating_point_possible_nan_is_snan@DV?$input_adapter_character_source@V?$stream_input_adapter@D@__crt_stdio_input@@@__crt_strtox@@@__crt_strtox@@YA_NAADAAV?$input_adapter_character_source@V?$stream_input_adapter@D@__crt_stdio_input@@@1@@Z@4QBDB 10037ec8     libucrt:input.obj
 0002:00001ed0       ?lowercase@?1???$parse_floating_point_possible_nan_is_snan@DV?$input_adapter_character_source@V?$stream_input_adapter@D@__crt_stdio_input@@@__crt_strtox@@@__crt_strtox@@YA_NAADAAV?$input_adapter_character_source@V?$stream_input_adapter@D@__crt_stdio_input@@@1@@Z@4QBDB 10037ed0     libucrt:input.obj
 0002:00001ed8       ?uppercase@?1???$parse_floating_point_possible_nan_is_ind@DV?$input_adapter_character_source@V?$stream_input_adapter@D@__crt_stdio_input@@@__crt_strtox@@@__crt_strtox@@YA_NAADAAV?$input_adapter_character_source@V?$stream_input_adapter@D@__crt_stdio_input@@@1@@Z@4QBDB 10037ed8     libucrt:input.obj
 0002:00001edc       ?lowercase@?1???$parse_floating_point_possible_nan_is_ind@DV?$input_adapter_character_source@V?$stream_input_adapter@D@__crt_stdio_input@@@__crt_strtox@@@__crt_strtox@@YA_NAADAAV?$input_adapter_character_source@V?$stream_input_adapter@D@__crt_stdio_input@@@1@@Z@4QBDB 10037edc     libucrt:input.obj
 0002:00001ee0       ___acrt_exception_action_table 10037ee0     libucrt:exception_filter.obj
 0002:00001f70       ___acrt_signal_action_table_count 10037f70     libucrt:exception_filter.obj
 0002:00001f74       ___acrt_signal_action_first_fpe_index 10037f74     libucrt:exception_filter.obj
 0002:00001f78       ___acrt_signal_action_fpe_count 10037f78     libucrt:exception_filter.obj
 0002:00001f7c       ??_C@_1BI@BGOHAHKC@?$AAm?$AAs?$AAc?$AAo?$AAr?$AAe?$AAe?$AA?4?$AAd?$AAl?$AAl?$AA?$AA@ 10037f7c     libucrt:exit.obj
 0002:00001f94       ??_C@_0P@MIGLKIOC@CorExitProcess?$AA@ 10037f94     libucrt:exit.obj
 0002:00002020       ??_C@_0EA@FCLIIPNN@Visual?5C?$CL?$CL?5CRT?3?5Not?5enough?5memor@ 10038020     libucrt:strerror.obj
 0002:000021c8       ??_C@_03OEIAHPBN@INF?$AA@  100381c8     libucrt:cvt.obj
 0002:000021cc       ??_C@_03OJHLLCGB@inf?$AA@  100381cc     libucrt:cvt.obj
 0002:000021d0       ??_C@_03LKNCIKJB@NAN?$AA@  100381d0     libucrt:cvt.obj
 0002:000021d4       ??_C@_03LHCJEHON@nan?$AA@  100381d4     libucrt:cvt.obj
 0002:000021d8       ??_C@_09OFJJIMPC@NAN?$CISNAN?$CJ?$AA@ 100381d8     libucrt:cvt.obj
 0002:000021e4       ??_C@_09IPFBKMDL@nan?$CIsnan?$CJ?$AA@ 100381e4     libucrt:cvt.obj
 0002:000021f0       ??_C@_08IKHNHAJ@NAN?$CIIND?$CJ?$AA@ 100381f0     libucrt:cvt.obj
 0002:000021fc       ??_C@_08OFCDMILK@nan?$CIind?$CJ?$AA@ 100381fc     libucrt:cvt.obj
 0002:00002208       ??_C@_05KLBDPFGC@e?$CL000?$AA@ 10038208     libucrt:cvt.obj
 0002:00002210       ??_C@_03KOEHGMDN@Sun?$AA@  10038210     libucrt:nlsdata.obj
 0002:00002214       ??_C@_03PDAGKDH@Mon?$AA@   10038214     libucrt:nlsdata.obj
 0002:00002218       ??_C@_03NAGEINEP@Tue?$AA@  10038218     libucrt:nlsdata.obj
 0002:0000221c       ??_C@_03MHOMLAJA@Wed?$AA@  1003821c     libucrt:nlsdata.obj
 0002:00002220       ??_C@_03IOFIKPDN@Thu?$AA@  10038220     libucrt:nlsdata.obj
 0002:00002224       ??_C@_03IDIOELNC@Fri?$AA@  10038224     libucrt:nlsdata.obj
 0002:00002228       ??_C@_03FEFJNEK@Sat?$AA@   10038228     libucrt:nlsdata.obj
 0002:0000222c       ??_C@_06OOPIFAJ@Sunday?$AA@ 1003822c     libucrt:nlsdata.obj
 0002:00002234       ??_C@_06JLEDEDGH@Monday?$AA@ 10038234     libucrt:nlsdata.obj
 0002:0000223c       ??_C@_07BAAGCFCM@Tuesday?$AA@ 1003823c     libucrt:nlsdata.obj
 0002:00002244       ??_C@_09DLIGFAKA@Wednesday?$AA@ 10038244     libucrt:nlsdata.obj
 0002:00002250       ??_C@_08HACCIKIA@Thursday?$AA@ 10038250     libucrt:nlsdata.obj
 0002:0000225c       ??_C@_06JECMNKMI@Friday?$AA@ 1003825c     libucrt:nlsdata.obj
 0002:00002264       ??_C@_08INBOOONO@Saturday?$AA@ 10038264     libucrt:nlsdata.obj
 0002:00002270       ??_C@_03JIHJHPIE@Jan?$AA@  10038270     libucrt:nlsdata.obj
 0002:00002274       ??_C@_03HJBDCHOM@Feb?$AA@  10038274     libucrt:nlsdata.obj
 0002:00002278       ??_C@_03ODNJBKGA@Mar?$AA@  10038278     libucrt:nlsdata.obj
 0002:0000227c       ??_C@_03LEOLGMJP@Apr?$AA@  1003827c     libucrt:nlsdata.obj
 0002:00002280       ??_C@_03CNMDKL@May?$AA@    10038280     libucrt:nlsdata.obj
 0002:00002284       ??_C@_03IDFGHECI@Jun?$AA@  10038284     libucrt:nlsdata.obj
 0002:00002288       ??_C@_03LBGABGKK@Jul?$AA@  10038288     libucrt:nlsdata.obj
 0002:0000228c       ??_C@_03IFJFEIGA@Aug?$AA@  1003828c     libucrt:nlsdata.obj
 0002:00002290       ??_C@_03GGCAPAJC@Sep?$AA@  10038290     libucrt:nlsdata.obj
 0002:00002294       ??_C@_03BMAOKBAD@Oct?$AA@  10038294     libucrt:nlsdata.obj
 0002:00002298       ??_C@_03JPJOFNIA@Nov?$AA@  10038298     libucrt:nlsdata.obj
 0002:0000229c       ??_C@_03MKABNOCG@Dec?$AA@  1003829c     libucrt:nlsdata.obj
 0002:000022a0       ??_C@_07CGJPFGJA@January?$AA@ 100382a0     libucrt:nlsdata.obj
 0002:000022a8       ??_C@_08GNJGEPFN@February?$AA@ 100382a8     libucrt:nlsdata.obj
 0002:000022b4       ??_C@_05HPCKOFNC@March?$AA@ 100382b4     libucrt:nlsdata.obj
 0002:000022bc       ??_C@_05DMJDNLEJ@April?$AA@ 100382bc     libucrt:nlsdata.obj
 0002:000022c4       ??_C@_04CNLMGBGM@June?$AA@ 100382c4     libucrt:nlsdata.obj
 0002:000022cc       ??_C@_04MIEPOIFP@July?$AA@ 100382cc     libucrt:nlsdata.obj
 0002:000022d4       ??_C@_06LBBHFDDG@August?$AA@ 100382d4     libucrt:nlsdata.obj
 0002:000022dc       ??_C@_09BHHEALKD@September?$AA@ 100382dc     libucrt:nlsdata.obj
 0002:000022e8       ??_C@_07JJNFCEND@October?$AA@ 100382e8     libucrt:nlsdata.obj
 0002:000022f0       ??_C@_08HCHEGEOA@November?$AA@ 100382f0     libucrt:nlsdata.obj
 0002:000022fc       ??_C@_08EDHMEBNP@December?$AA@ 100382fc     libucrt:nlsdata.obj
 0002:00002308       ??_C@_02DEDBPAFC@AM?$AA@   10038308     libucrt:nlsdata.obj
 0002:0000230c       ??_C@_02CJNFDJBF@PM?$AA@   1003830c     libucrt:nlsdata.obj
 0002:00002310       ??_C@_08BPBNCDIB@MM?1dd?1yy?$AA@ 10038310     libucrt:nlsdata.obj
 0002:0000231c       ??_C@_0BE@CKGJFCPC@dddd?0?5MMMM?5dd?0?5yyyy?$AA@ 1003831c     libucrt:nlsdata.obj
 0002:00002330       ??_C@_08JCCMCCIL@HH?3mm?3ss?$AA@ 10038330     libucrt:nlsdata.obj
 0002:0000233c       ??_C@_17MBGCMIPB@?$AAS?$AAu?$AAn?$AA?$AA@ 1003833c     libucrt:nlsdata.obj
 0002:00002344       ??_C@_17KBOMKBF@?$AAM?$AAo?$AAn?$AA?$AA@ 10038344     libucrt:nlsdata.obj
 0002:0000234c       ??_C@_17BMKGEGOJ@?$AAT?$AAu?$AAe?$AA?$AA@ 1003834c     libucrt:nlsdata.obj
 0002:00002354       ??_C@_17CJEDCEPE@?$AAW?$AAe?$AAd?$AA?$AA@ 10038354     libucrt:nlsdata.obj
 0002:0000235c       ??_C@_17PDPHAADD@?$AAT?$AAh?$AAu?$AA?$AA@ 1003835c     libucrt:nlsdata.obj
 0002:00002364       ??_C@_17HFOLPPLP@?$AAF?$AAr?$AAi?$AA?$AA@ 10038364     libucrt:nlsdata.obj
 0002:0000236c       ??_C@_17GGIBDPIH@?$AAS?$AAa?$AAt?$AA?$AA@ 1003836c     libucrt:nlsdata.obj
 0002:00002374       ??_C@_1O@IHNHDHPB@?$AAS?$AAu?$AAn?$AAd?$AAa?$AAy?$AA?$AA@ 10038374     libucrt:nlsdata.obj
 0002:00002384       ??_C@_1O@MMNBFLIA@?$AAM?$AAo?$AAn?$AAd?$AAa?$AAy?$AA?$AA@ 10038384     libucrt:nlsdata.obj
 0002:00002394       ??_C@_1BA@ENFBFFEK@?$AAT?$AAu?$AAe?$AAs?$AAd?$AAa?$AAy?$AA?$AA@ 10038394     libucrt:nlsdata.obj
 0002:000023a4       ??_C@_1BE@EBOGMDOH@?$AAW?$AAe?$AAd?$AAn?$AAe?$AAs?$AAd?$AAa?$AAy?$AA?$AA@ 100383a4     libucrt:nlsdata.obj
 0002:000023b8       ??_C@_1BC@HHMNLIHE@?$AAT?$AAh?$AAu?$AAr?$AAs?$AAd?$AAa?$AAy?$AA?$AA@ 100383b8     libucrt:nlsdata.obj
 0002:000023cc       ??_C@_1O@PDICJHAG@?$AAF?$AAr?$AAi?$AAd?$AAa?$AAy?$AA?$AA@ 100383cc     libucrt:nlsdata.obj
 0002:000023dc       ??_C@_1BC@ENMNNPAJ@?$AAS?$AAa?$AAt?$AAu?$AAr?$AAd?$AAa?$AAy?$AA?$AA@ 100383dc     libucrt:nlsdata.obj
 0002:000023f0       ??_C@_17DKNBKCHM@?$AAJ?$AAa?$AAn?$AA?$AA@ 100383f0     libucrt:nlsdata.obj
 0002:000023f8       ??_C@_17LMDJEKJN@?$AAF?$AAe?$AAb?$AA?$AA@ 100383f8     libucrt:nlsdata.obj
 0002:00002400       ??_C@_17CKNLEDEC@?$AAM?$AAa?$AAr?$AA?$AA@ 10038400     libucrt:nlsdata.obj
 0002:00002408       ??_C@_17LFPOIHDD@?$AAA?$AAp?$AAr?$AA?$AA@ 10038408     libucrt:nlsdata.obj
 0002:00002410       ??_C@_17PNNKMEED@?$AAM?$AAa?$AAy?$AA?$AA@ 10038410     libucrt:nlsdata.obj
 0002:00002418       ??_C@_17KCJGOCPB@?$AAJ?$AAu?$AAn?$AA?$AA@ 10038418     libucrt:nlsdata.obj
 0002:00002420       ??_C@_17IJPCKHK@?$AAJ?$AAu?$AAl?$AA?$AA@ 10038420     libucrt:nlsdata.obj
 0002:00002428       ??_C@_17ICPELBCN@?$AAA?$AAu?$AAg?$AA?$AA@ 10038428     libucrt:nlsdata.obj
 0002:00002430       ??_C@_17HCHCOKMG@?$AAS?$AAe?$AAp?$AA?$AA@ 10038430     libucrt:nlsdata.obj
 0002:00002438       ??_C@_17FNLKOI@?$AAO?$AAc?$AAt?$AA?$AA@ 10038438     libucrt:nlsdata.obj
 0002:00002440       ??_C@_17BBDMLCIG@?$AAN?$AAo?$AAv?$AA?$AA@ 10038440     libucrt:nlsdata.obj
 0002:00002448       ??_C@_17EGKACKIF@?$AAD?$AAe?$AAc?$AA?$AA@ 10038448     libucrt:nlsdata.obj
 0002:00002450       ??_C@_1BA@EFMEIEBA@?$AAJ?$AAa?$AAn?$AAu?$AAa?$AAr?$AAy?$AA?$AA@ 10038450     libucrt:nlsdata.obj
 0002:00002460       ??_C@_1BC@JGDDFFAM@?$AAF?$AAe?$AAb?$AAr?$AAu?$AAa?$AAr?$AAy?$AA?$AA@ 10038460     libucrt:nlsdata.obj
 0002:00002474       ??_C@_1M@IKEENEDF@?$AAM?$AAa?$AAr?$AAc?$AAh?$AA?$AA@ 10038474     libucrt:nlsdata.obj
 0002:00002480       ??_C@_1M@GJNLMHFD@?$AAA?$AAp?$AAr?$AAi?$AAl?$AA?$AA@ 10038480     libucrt:nlsdata.obj
 0002:0000248c       ??_C@_19EPFLPGAP@?$AAJ?$AAu?$AAn?$AAe?$AA?$AA@ 1003848c     libucrt:nlsdata.obj
 0002:00002498       ??_C@_19BIFMLPCD@?$AAJ?$AAu?$AAl?$AAy?$AA?$AA@ 10038498     libucrt:nlsdata.obj
 0002:000024a4       ??_C@_1O@PAHLKOAC@?$AAA?$AAu?$AAg?$AAu?$AAs?$AAt?$AA?$AA@ 100384a4     libucrt:nlsdata.obj
 0002:000024b4       ??_C@_1BE@DKAAMBJL@?$AAS?$AAe?$AAp?$AAt?$AAe?$AAm?$AAb?$AAe?$AAr?$AA?$AA@ 100384b4     libucrt:nlsdata.obj
 0002:000024c8       ??_C@_1BA@EPANDLNG@?$AAO?$AAc?$AAt?$AAo?$AAb?$AAe?$AAr?$AA?$AA@ 100384c8     libucrt:nlsdata.obj
 0002:000024d8       ??_C@_1BC@BGLIFPF@?$AAN?$AAo?$AAv?$AAe?$AAm?$AAb?$AAe?$AAr?$AA?$AA@ 100384d8     libucrt:nlsdata.obj
 0002:000024ec       ??_C@_1BC@FEMKIFH@?$AAD?$AAe?$AAc?$AAe?$AAm?$AAb?$AAe?$AAr?$AA?$AA@ 100384ec     libucrt:nlsdata.obj
 0002:00002500       ??_C@_15ODEHAHHF@?$AAA?$AAM?$AA?$AA@ 10038500     libucrt:nlsdata.obj
 0002:00002508       ??_C@_15CLMNNGEL@?$AAP?$AAM?$AA?$AA@ 10038508     libucrt:nlsdata.obj
 0002:00002510       ??_C@_1BC@IEBCMHCM@?$AAM?$AAM?$AA?1?$AAd?$AAd?$AA?1?$AAy?$AAy?$AA?$AA@ 10038510     libucrt:nlsdata.obj
 0002:00002524       ??_C@_1CI@KNAKOEBC@?$AAd?$AAd?$AAd?$AAd?$AA?0?$AA?5?$AAM?$AAM?$AAM?$AAM?$AA?5?$AAd?$AAd?$AA?0?$AA?5?$AAy?$AAy?$AAy?$AAy?$AA?$AA@ 10038524     libucrt:nlsdata.obj
 0002:0000254c       ??_C@_1BC@GDGBMEMK@?$AAH?$AAH?$AA?3?$AAm?$AAm?$AA?3?$AAs?$AAs?$AA?$AA@ 1003854c     libucrt:nlsdata.obj
 0002:00002560       ??_C@_1M@BMHNFIME@?$AAe?$AAn?$AA?9?$AAU?$AAS?$AA?$AA@ 10038560     libucrt:nlsdata.obj
 0002:00002570       ___lc_time_c               10038570     libucrt:nlsdata.obj
 0002:000026d4       __days                     100386d4     libucrt:days.obj
 0002:00002708       __lpdays                   10038708     libucrt:days.obj
 0002:00002790       ??_C@_1EG@CNNIPFIM@?$AAa?$AAp?$AAi?$AA?9?$AAm?$AAs?$AA?9?$AAw?$AAi?$AAn?$AA?9?$AAa?$AAp?$AAp?$AAm?$AAo?$AAd?$AAe?$AAl?$AA?9?$AAr?$AAu?$AAn?$AAt?$AAi?$AAm?$AAe?$AA?9?$AAl?$AA1?$AA?9?$AA1@ 10038790     libucrt:winapi_thunks.obj
 0002:000027d8       ??_C@_1EA@JGEFHKEI@?$AAa?$AAp?$AAi?$AA?9?$AAm?$AAs?$AA?9?$AAw?$AAi?$AAn?$AA?9?$AAc?$AAo?$AAr?$AAe?$AA?9?$AAd?$AAa?$AAt?$AAe?$AAt?$AAi?$AAm?$AAe?$AA?9?$AAl?$AA1?$AA?9?$AA1?$AA?9?$AA1?$AA?$AA@ 100387d8     libucrt:winapi_thunks.obj
 0002:00002818       ??_C@_1DI@GCIAAENM@?$AAa?$AAp?$AAi?$AA?9?$AAm?$AAs?$AA?9?$AAw?$AAi?$AAn?$AA?9?$AAc?$AAo?$AAr?$AAe?$AA?9?$AAf?$AAi?$AAl?$AAe?$AA?9?$AAl?$AA2?$AA?9?$AA1?$AA?9?$AA1?$AA?$AA@ 10038818     libucrt:winapi_thunks.obj
 0002:00002850       ??_C@_1EI@MPIAOHOC@?$AAa?$AAp?$AAi?$AA?9?$AAm?$AAs?$AA?9?$AAw?$AAi?$AAn?$AA?9?$AAc?$AAo?$AAr?$AAe?$AA?9?$AAl?$AAo?$AAc?$AAa?$AAl?$AAi?$AAz?$AAa?$AAt?$AAi?$AAo?$AAn?$AA?9?$AAl?$AA1?$AA?9@ 10038850     libucrt:winapi_thunks.obj
 0002:00002898       ??_C@_1FK@FPHCKFIE@?$AAa?$AAp?$AAi?$AA?9?$AAm?$AAs?$AA?9?$AAw?$AAi?$AAn?$AA?9?$AAc?$AAo?$AAr?$AAe?$AA?9?$AAl?$AAo?$AAc?$AAa?$AAl?$AAi?$AAz?$AAa?$AAt?$AAi?$AAo?$AAn?$AA?9?$AAo?$AAb?$AAs@ 10038898     libucrt:winapi_thunks.obj
 0002:000028f8       ??_C@_1EM@DILCGIIO@?$AAa?$AAp?$AAi?$AA?9?$AAm?$AAs?$AA?9?$AAw?$AAi?$AAn?$AA?9?$AAc?$AAo?$AAr?$AAe?$AA?9?$AAp?$AAr?$AAo?$AAc?$AAe?$AAs?$AAs?$AAt?$AAh?$AAr?$AAe?$AAa?$AAd?$AAs?$AA?9?$AAl@ 100388f8     libucrt:winapi_thunks.obj
 0002:00002944       ??_C@_1DM@LNCGDDPN@?$AAa?$AAp?$AAi?$AA?9?$AAm?$AAs?$AA?9?$AAw?$AAi?$AAn?$AA?9?$AAc?$AAo?$AAr?$AAe?$AA?9?$AAs?$AAt?$AAr?$AAi?$AAn?$AAg?$AA?9?$AAl?$AA1?$AA?9?$AA1?$AA?9?$AA0?$AA?$AA@ 10038944     libucrt:winapi_thunks.obj
 0002:00002980       ??_C@_1DO@FPAPJEMD@?$AAa?$AAp?$AAi?$AA?9?$AAm?$AAs?$AA?9?$AAw?$AAi?$AAn?$AA?9?$AAc?$AAo?$AAr?$AAe?$AA?9?$AAs?$AAy?$AAs?$AAi?$AAn?$AAf?$AAo?$AA?9?$AAl?$AA1?$AA?9?$AA2?$AA?9?$AA1?$AA?$AA@ 10038980     libucrt:winapi_thunks.obj
 0002:000029c0       ??_C@_1DK@NDHNAHIO@?$AAa?$AAp?$AAi?$AA?9?$AAm?$AAs?$AA?9?$AAw?$AAi?$AAn?$AA?9?$AAc?$AAo?$AAr?$AAe?$AA?9?$AAw?$AAi?$AAn?$AAr?$AAt?$AA?9?$AAl?$AA1?$AA?9?$AA1?$AA?9?$AA0?$AA?$AA@ 100389c0     libucrt:winapi_thunks.obj
 0002:000029fc       ??_C@_1DM@KGHDGBCM@?$AAa?$AAp?$AAi?$AA?9?$AAm?$AAs?$AA?9?$AAw?$AAi?$AAn?$AA?9?$AAc?$AAo?$AAr?$AAe?$AA?9?$AAx?$AAs?$AAt?$AAa?$AAt?$AAe?$AA?9?$AAl?$AA2?$AA?9?$AA1?$AA?9?$AA0?$AA?$AA@ 100389fc     libucrt:winapi_thunks.obj
 0002:00002a38       ??_C@_1EO@IJIOEFOH@?$AAa?$AAp?$AAi?$AA?9?$AAm?$AAs?$AA?9?$AAw?$AAi?$AAn?$AA?9?$AAr?$AAt?$AAc?$AAo?$AAr?$AAe?$AA?9?$AAn?$AAt?$AAu?$AAs?$AAe?$AAr?$AA?9?$AAw?$AAi?$AAn?$AAd?$AAo?$AAw?$AA?9@ 10038a38     libucrt:winapi_thunks.obj
 0002:00002a88       ??_C@_1FG@HHGEKANL@?$AAa?$AAp?$AAi?$AA?9?$AAm?$AAs?$AA?9?$AAw?$AAi?$AAn?$AA?9?$AAs?$AAe?$AAc?$AAu?$AAr?$AAi?$AAt?$AAy?$AA?9?$AAs?$AAy?$AAs?$AAt?$AAe?$AAm?$AAf?$AAu?$AAn?$AAc?$AAt?$AAi@ 10038a88     libucrt:winapi_thunks.obj
 0002:00002ae0       ??_C@_1FG@NCKKOLKO@?$AAe?$AAx?$AAt?$AA?9?$AAm?$AAs?$AA?9?$AAw?$AAi?$AAn?$AA?9?$AAk?$AAe?$AAr?$AAn?$AAe?$AAl?$AA3?$AA2?$AA?9?$AAp?$AAa?$AAc?$AAk?$AAa?$AAg?$AAe?$AA?9?$AAc?$AAu?$AAr?$AAr@ 10038ae0     libucrt:winapi_thunks.obj
 0002:00002b38       ??_C@_1EG@DBIOJECG@?$AAe?$AAx?$AAt?$AA?9?$AAm?$AAs?$AA?9?$AAw?$AAi?$AAn?$AA?9?$AAn?$AAt?$AAu?$AAs?$AAe?$AAr?$AA?9?$AAd?$AAi?$AAa?$AAl?$AAo?$AAg?$AAb?$AAo?$AAx?$AA?9?$AAl?$AA1?$AA?9?$AA1@ 10038b38     libucrt:winapi_thunks.obj
 0002:00002b80       ??_C@_1EO@FIHMJCLF@?$AAe?$AAx?$AAt?$AA?9?$AAm?$AAs?$AA?9?$AAw?$AAi?$AAn?$AA?9?$AAn?$AAt?$AAu?$AAs?$AAe?$AAr?$AA?9?$AAw?$AAi?$AAn?$AAd?$AAo?$AAw?$AAs?$AAt?$AAa?$AAt?$AAi?$AAo?$AAn?$AA?9@ 10038b80     libucrt:winapi_thunks.obj
 0002:00002bd0       ??_C@_1O@BCCLBEOE@?$AAu?$AAs?$AAe?$AAr?$AA3?$AA2?$AA?$AA@ 10038bd0     libucrt:winapi_thunks.obj
 0002:00002be4       ??_C@_0BA@FHFNEAED@AreFileApisANSI?$AA@ 10038be4     libucrt:winapi_thunks.obj
 0002:00002c1c       ??_C@_0BE@JOGNEJCI@GetCurrentPackageId?$AA@ 10038c1c     libucrt:winapi_thunks.obj
 0002:00002c34       ??_C@_0BP@FPNJPEJC@GetSystemTimePreciseAsFileTime?$AA@ 10038c34     libucrt:winapi_thunks.obj
 0002:00002c64       ??_C@_0O@KKBNKAPF@LCMapStringEx?$AA@ 10038c64     libucrt:winapi_thunks.obj
 0002:00002c7c       ??_C@_0BB@HBDEELFH@LocaleNameToLCID?$AA@ 10038c7c     libucrt:winapi_thunks.obj
 0002:00002c94       ??_C@_0N@PPOMPGGK@RoInitialize?$AA@ 10038c94     libucrt:winapi_thunks.obj
 0002:00002ca8       ??_C@_0P@LLFHBIJD@RoUninitialize?$AA@ 10038ca8     libucrt:winapi_thunks.obj
 0002:00002cb8       ?ccs@?BL@???$__acrt_stdio_parse_mode@D@@YA?AU__acrt_stdio_stream_mode@@QBD@Z@4QBDB 10038cb8     libucrt:openfile.obj
 0002:00002cbc       ?utf8_encoding@?BL@???$__acrt_stdio_parse_mode@D@@YA?AU__acrt_stdio_stream_mode@@QBD@Z@4QBDB 10038cbc     libucrt:openfile.obj
 0002:00002cc4       ?utf16_encoding@?BL@???$__acrt_stdio_parse_mode@D@@YA?AU__acrt_stdio_stream_mode@@QBD@Z@4QBDB 10038cc4     libucrt:openfile.obj
 0002:00002ccc       ?unicode_encoding@?BL@???$__acrt_stdio_parse_mode@D@@YA?AU__acrt_stdio_stream_mode@@QBD@Z@4QBDB 10038ccc     libucrt:openfile.obj
 0002:00002cd8       ___newctype                10038cd8     libucrt:ctype.obj
 0002:00002fd8       ___newclmap                10038fd8     libucrt:ctype.obj
 0002:00003158       ___newcumap                10039158     libucrt:ctype.obj
 0002:000032e8       ??_C@_1M@HPNHIDJI@?$AAj?$AAa?$AA?9?$AAJ?$AAP?$AA?$AA@ 100392e8     libucrt:mbctype.obj
 0002:000032f4       ??_C@_1M@BIBDDEMK@?$AAz?$AAh?$AA?9?$AAC?$AAN?$AA?$AA@ 100392f4     libucrt:mbctype.obj
 0002:00003300       ??_C@_1M@JLOOOEGK@?$AAk?$AAo?$AA?9?$AAK?$AAR?$AA?$AA@ 10039300     libucrt:mbctype.obj
 0002:0000330c       ??_C@_1M@CLNBBOPM@?$AAz?$AAh?$AA?9?$AAT?$AAW?$AA?$AA@ 1003930c     libucrt:mbctype.obj
 0002:00003318       __sys_errlist              10039318     libucrt:syserr.obj
 0002:000033c8       ??_C@_08INEPGKHH@No?5error?$AA@ 100393c8     libucrt:syserr.obj
 0002:000033d4       ??_C@_0BI@BJFCGOHL@Operation?5not?5permitted?$AA@ 100393d4     libucrt:syserr.obj
 0002:000033ec       ??_C@_0BK@FMDHKPNF@No?5such?5file?5or?5directory?$AA@ 100393ec     libucrt:syserr.obj
 0002:00003408       ??_C@_0BA@FKIAIBGA@No?5such?5process?$AA@ 10039408     libucrt:syserr.obj
 0002:00003418       ??_C@_0BK@FJBOAFDK@Interrupted?5function?5call?$AA@ 10039418     libucrt:syserr.obj
 0002:00003434       ??_C@_0BD@KKNFOBBD@Input?1output?5error?$AA@ 10039434     libucrt:syserr.obj
 0002:00003448       ??_C@_0BK@DPKMCKJ@No?5such?5device?5or?5address?$AA@ 10039448     libucrt:syserr.obj
 0002:00003464       ??_C@_0BC@MFFGCDFL@Arg?5list?5too?5long?$AA@ 10039464     libucrt:syserr.obj
 0002:00003478       ??_C@_0BC@HKPNECK@Exec?5format?5error?$AA@ 10039478     libucrt:syserr.obj
 0002:0000348c       ??_C@_0BE@NFGDDCEF@Bad?5file?5descriptor?$AA@ 1003948c     libucrt:syserr.obj
 0002:000034a0       ??_C@_0BD@LOHELEP@No?5child?5processes?$AA@ 100394a0     libucrt:syserr.obj
 0002:000034b4       ??_C@_0CB@EPFKGNAK@Resource?5temporarily?5unavailable@ 100394b4     libucrt:syserr.obj
 0002:000034d8       ??_C@_0BB@IMDKMPFB@Not?5enough?5space?$AA@ 100394d8     libucrt:syserr.obj
 0002:000034ec       ??_C@_0BC@HFNFNKAI@Permission?5denied?$AA@ 100394ec     libucrt:syserr.obj
 0002:00003500       ??_C@_0M@LOEHLCJD@Bad?5address?$AA@ 10039500     libucrt:syserr.obj
 0002:0000350c       ??_C@_0BA@BIBLIOEK@Resource?5device?$AA@ 1003950c     libucrt:syserr.obj
 0002:0000351c       ??_C@_0M@NAAJNNGH@File?5exists?$AA@ 1003951c     libucrt:syserr.obj
 0002:00003528       ??_C@_0O@OAMDNOCP@Improper?5link?$AA@ 10039528     libucrt:syserr.obj
 0002:00003538       ??_C@_0P@NLEIANHE@No?5such?5device?$AA@ 10039538     libucrt:syserr.obj
 0002:00003548       ??_C@_0BA@CJBACOOL@Not?5a?5directory?$AA@ 10039548     libucrt:syserr.obj
 0002:00003558       ??_C@_0P@NDHGCGKE@Is?5a?5directory?$AA@ 10039558     libucrt:syserr.obj
 0002:00003568       ??_C@_0BB@HMGGCEBG@Invalid?5argument?$AA@ 10039568     libucrt:syserr.obj
 0002:0000357c       ??_C@_0BO@IIFBODJE@Too?5many?5open?5files?5in?5system?$AA@ 1003957c     libucrt:syserr.obj
 0002:0000359c       ??_C@_0BE@INBJMKGG@Too?5many?5open?5files?$AA@ 1003959c     libucrt:syserr.obj
 0002:000035b0       ??_C@_0CE@ONOKNLPF@Inappropriate?5I?1O?5control?5operat@ 100395b0     libucrt:syserr.obj
 0002:000035d4       ??_C@_0P@LFMMIPAE@File?5too?5large?$AA@ 100395d4     libucrt:syserr.obj
 0002:000035e4       ??_C@_0BI@FEALHKLD@No?5space?5left?5on?5device?$AA@ 100395e4     libucrt:syserr.obj
 0002:000035fc       ??_C@_0N@FEHLOILP@Invalid?5seek?$AA@ 100395fc     libucrt:syserr.obj
 0002:0000360c       ??_C@_0BG@DDBFNKBH@Read?9only?5file?5system?$AA@ 1003960c     libucrt:syserr.obj
 0002:00003624       ??_C@_0P@PKCJJLLM@Too?5many?5links?$AA@ 10039624     libucrt:syserr.obj
 0002:00003634       ??_C@_0M@LHEPIIOM@Broken?5pipe?$AA@ 10039634     libucrt:syserr.obj
 0002:00003640       ??_C@_0N@MMJPGLJK@Domain?5error?$AA@ 10039640     libucrt:syserr.obj
 0002:00003650       ??_C@_0BB@FCBJFCAJ@Result?5too?5large?$AA@ 10039650     libucrt:syserr.obj
 0002:00003664       ??_C@_0BK@JAEBMJJM@Resource?5deadlock?5avoided?$AA@ 10039664     libucrt:syserr.obj
 0002:00003680       ??_C@_0BC@BEDIHIDK@Filename?5too?5long?$AA@ 10039680     libucrt:syserr.obj
 0002:00003694       ??_C@_0BD@CLHBCGPB@No?5locks?5available?$AA@ 10039694     libucrt:syserr.obj
 0002:000036a8       ??_C@_0BJ@IHEHINLI@Function?5not?5implemented?$AA@ 100396a8     libucrt:syserr.obj
 0002:000036c4       ??_C@_0BE@ICMCHPHH@Directory?5not?5empty?$AA@ 100396c4     libucrt:syserr.obj
 0002:000036d8       ??_C@_0BG@KLEAJEFJ@Illegal?5byte?5sequence?$AA@ 100396d8     libucrt:syserr.obj
 0002:000036f0       __sys_nerr                 100396f0     libucrt:syserr.obj
 0002:000036f4       ??_C@_01GBGANLPD@0?$AA@    100396f4     libucrt:cfout.obj
 0002:000036f8       ??_C@_05DNEBIAHO@1?$CDINF?$AA@ 100396f8     libucrt:cfout.obj
 0002:00003700       ??_C@_06IMKFLFPG@1?$CDQNAN?$AA@ 10039700     libucrt:cfout.obj
 0002:00003708       ??_C@_06PGGFOGJG@1?$CDSNAN?$AA@ 10039708     libucrt:cfout.obj
 0002:00003710       ??_C@_05PHHOCPM@1?$CDIND?$AA@ 10039710     libucrt:cfout.obj
 0002:00003718       ??_C@_15PJPFLCCM@?$AAu?$AAk?$AA?$AA@ 10039718     libucrt:get_qualified_locale.obj
 0002:00003e40       ??_C@_15EMKDOKLE@?$AAa?$AAr?$AA?$AA@ 10039e40     libucrt:lcidtoname_downlevel.obj
 0002:00003e48       ??_C@_15KNPADPLH@?$AAb?$AAg?$AA?$AA@ 10039e48     libucrt:lcidtoname_downlevel.obj
 0002:00003e50       ??_C@_15EDMHLDMO@?$AAc?$AAa?$AA?$AA@ 10039e50     libucrt:lcidtoname_downlevel.obj
 0002:00003e58       ??_C@_1O@BPEAJADD@?$AAz?$AAh?$AA?9?$AAC?$AAH?$AAS?$AA?$AA@ 10039e58     libucrt:lcidtoname_downlevel.obj
 0002:00003e68       ??_C@_15LJNHCMNK@?$AAc?$AAs?$AA?$AA@ 10039e68     libucrt:lcidtoname_downlevel.obj
 0002:00003e70       ??_C@_15FOMCIDHG@?$AAd?$AAa?$AA?$AA@ 10039e70     libucrt:lcidtoname_downlevel.obj
 0002:00003e78       ??_C@_15NBKABECB@?$AAd?$AAe?$AA?$AA@ 10039e78     libucrt:lcidtoname_downlevel.obj
 0002:00003e80       ??_C@_15GHPEIIAO@?$AAe?$AAl?$AA?$AA@ 10039e80     libucrt:lcidtoname_downlevel.obj
 0002:00003e88       ??_C@_15MNPNEAIF@?$AAe?$AAn?$AA?$AA@ 10039e88     libucrt:lcidtoname_downlevel.obj
 0002:00003e90       ??_C@_15GPIOMPMH@?$AAe?$AAs?$AA?$AA@ 10039e90     libucrt:lcidtoname_downlevel.obj
 0002:00003e98       ??_C@_15NGLOAKJC@?$AAf?$AAi?$AA?$AA@ 10039e98     libucrt:lcidtoname_downlevel.obj
 0002:00003ea0       ??_C@_15FBKGNKAM@?$AAf?$AAr?$AA?$AA@ 10039ea0     libucrt:lcidtoname_downlevel.obj
 0002:00003ea8       ??_C@_15KGGCNEFK@?$AAh?$AAe?$AA?$AA@ 10039ea8     libucrt:lcidtoname_downlevel.obj
 0002:00003eb0       ??_C@_15PGHLIDMF@?$AAh?$AAu?$AA?$AA@ 10039eb0     libucrt:lcidtoname_downlevel.obj
 0002:00003eb8       ??_C@_15BIEMAPLM@?$AAi?$AAs?$AA?$AA@ 10039eb8     libucrt:lcidtoname_downlevel.obj
 0002:00003ec0       ??_C@_15IFJLDHAF@?$AAi?$AAt?$AA?$AA@ 10039ec0     libucrt:lcidtoname_downlevel.obj
 0002:00003ec8       ??_C@_15GEMIOCAG@?$AAj?$AAa?$AA?$AA@ 10039ec8     libucrt:lcidtoname_downlevel.obj
 0002:00003ed0       ??_C@_15EPELEGJA@?$AAk?$AAo?$AA?$AA@ 10039ed0     libucrt:lcidtoname_downlevel.obj
 0002:00003ed8       ??_C@_15NDDHIMN@?$AAn?$AAl?$AA?$AA@ 10039ed8     libucrt:lcidtoname_downlevel.obj
 0002:00003ee0       ??_C@_15BPIGNHCD@?$AAn?$AAo?$AA?$AA@ 10039ee0     libucrt:lcidtoname_downlevel.obj
 0002:00003ee8       ??_C@_15DEOPBLCG@?$AAp?$AAl?$AA?$AA@ 10039ee8     libucrt:lcidtoname_downlevel.obj
 0002:00003ef0       ??_C@_15KBECGEFG@?$AAp?$AAt?$AA?$AA@ 10039ef0     libucrt:lcidtoname_downlevel.obj
 0002:00003ef8       ??_C@_15GLJCBFMD@?$AAr?$AAo?$AA?$AA@ 10039ef8     libucrt:lcidtoname_downlevel.obj
 0002:00003f00       ??_C@_15FEDGKCDI@?$AAr?$AAu?$AA?$AA@ 10039f00     libucrt:lcidtoname_downlevel.obj
 0002:00003f08       ??_C@_15GLKMLLHM@?$AAh?$AAr?$AA?$AA@ 10039f08     libucrt:lcidtoname_downlevel.obj
 0002:00003f10       ??_C@_15CPKMFBDB@?$AAs?$AAk?$AA?$AA@ 10039f10     libucrt:lcidtoname_downlevel.obj
 0002:00003f18       ??_C@_15BAAIOGMK@?$AAs?$AAq?$AA?$AA@ 10039f18     libucrt:lcidtoname_downlevel.obj
 0002:00003f20       ??_C@_15INNPNOHD@?$AAs?$AAv?$AA?$AA@ 10039f20     libucrt:lcidtoname_downlevel.obj
 0002:00003f28       ??_C@_15CABMMOGH@?$AAt?$AAh?$AA?$AA@ 10039f28     libucrt:lcidtoname_downlevel.obj
 0002:00003f30       ??_C@_15BPLIHJJM@?$AAt?$AAr?$AA?$AA@ 10039f30     libucrt:lcidtoname_downlevel.obj
 0002:00003f38       ??_C@_15NEOEKKDJ@?$AAu?$AAr?$AA?$AA@ 10039f38     libucrt:lcidtoname_downlevel.obj
 0002:00003f40       ??_C@_15NFICGAJK@?$AAi?$AAd?$AA?$AA@ 10039f40     libucrt:lcidtoname_downlevel.obj
 0002:00003f48       ??_C@_15HPJPHDM@?$AAb?$AAe?$AA?$AA@ 10039f48     libucrt:lcidtoname_downlevel.obj
 0002:00003f50       ??_C@_15LCHLGJII@?$AAs?$AAl?$AA?$AA@ 10039f50     libucrt:lcidtoname_downlevel.obj
 0002:00003f58       ??_C@_15PCFJPHHO@?$AAe?$AAt?$AA?$AA@ 10039f58     libucrt:lcidtoname_downlevel.obj
 0002:00003f60       ??_C@_15HPFPGODN@?$AAl?$AAv?$AA?$AA@ 10039f60     libucrt:lcidtoname_downlevel.obj
 0002:00003f68       ??_C@_15NFFGKGLG@?$AAl?$AAt?$AA?$AA@ 10039f68     libucrt:lcidtoname_downlevel.obj
 0002:00003f70       ??_C@_15BDAKCCHN@?$AAf?$AAa?$AA?$AA@ 10039f70     libucrt:lcidtoname_downlevel.obj
 0002:00003f78       ??_C@_15NFGIAIAJ@?$AAv?$AAi?$AA?$AA@ 10039f78     libucrt:lcidtoname_downlevel.obj
 0002:00003f80       ??_C@_15LMKNDMHN@?$AAh?$AAy?$AA?$AA@ 10039f80     libucrt:lcidtoname_downlevel.obj
 0002:00003f88       ??_C@_15IJBHMCFL@?$AAa?$AAz?$AA?$AA@ 10039f88     libucrt:lcidtoname_downlevel.obj
 0002:00003f90       ??_C@_15EKOFJABL@?$AAe?$AAu?$AA?$AA@ 10039f90     libucrt:lcidtoname_downlevel.obj
 0002:00003f98       ??_C@_15BGHADCNK@?$AAm?$AAk?$AA?$AA@ 10039f98     libucrt:lcidtoname_downlevel.obj
 0002:00003fa0       ??_C@_15JDNICKHM@?$AAa?$AAf?$AA?$AA@ 10039fa0     libucrt:lcidtoname_downlevel.obj
 0002:00003fa8       ??_C@_15KPJEDBKD@?$AAk?$AAa?$AA?$AA@ 10039fa8     libucrt:lcidtoname_downlevel.obj
 0002:00003fb0       ??_C@_15PDNFFFEO@?$AAf?$AAo?$AA?$AA@ 10039fb0     libucrt:lcidtoname_downlevel.obj
 0002:00003fb8       ??_C@_15OMLEGLOC@?$AAh?$AAi?$AA?$AA@ 10039fb8     libucrt:lcidtoname_downlevel.obj
 0002:00003fc0       ??_C@_15IDNNENKK@?$AAm?$AAs?$AA?$AA@ 10039fc0     libucrt:lcidtoname_downlevel.obj
 0002:00003fc8       ??_C@_15MACJNBMH@?$AAk?$AAk?$AA?$AA@ 10039fc8     libucrt:lcidtoname_downlevel.obj
 0002:00003fd0       ??_C@_15DKDJEOND@?$AAk?$AAy?$AA?$AA@ 10039fd0     libucrt:lcidtoname_downlevel.obj
 0002:00003fd8       ??_C@_15DFGDLJBG@?$AAs?$AAw?$AA?$AA@ 10039fd8     libucrt:lcidtoname_downlevel.obj
 0002:00003fe0       ??_C@_15BBFAICNG@?$AAu?$AAz?$AA?$AA@ 10039fe0     libucrt:lcidtoname_downlevel.obj
 0002:00003fe8       ??_C@_15DKNDCGEA@?$AAt?$AAt?$AA?$AA@ 10039fe8     libucrt:lcidtoname_downlevel.obj
 0002:00003ff0       ??_C@_15MGIFMDPL@?$AAp?$AAa?$AA?$AA@ 10039ff0     libucrt:lcidtoname_downlevel.obj
 0002:00003ff8       ??_C@_15HCNDBBA@?$AAg?$AAu?$AA?$AA@ 10039ff8     libucrt:lcidtoname_downlevel.obj
 0002:00004000       ??_C@_15FNBEIBON@?$AAt?$AAa?$AA?$AA@ 1003a000     libucrt:lcidtoname_downlevel.obj
 0002:00004008       ??_C@_15NCHGBGLK@?$AAt?$AAe?$AA?$AA@ 1003a008     libucrt:lcidtoname_downlevel.obj
 0002:00004010       ??_C@_15PHPHCBPF@?$AAk?$AAn?$AA?$AA@ 1003a010     libucrt:lcidtoname_downlevel.obj
 0002:00004018       ??_C@_15DLGBCKMP@?$AAm?$AAr?$AA?$AA@ 1003a018     libucrt:lcidtoname_downlevel.obj
 0002:00004020       ??_C@_15EABBLBFF@?$AAs?$AAa?$AA?$AA@ 1003a020     libucrt:lcidtoname_downlevel.obj
 0002:00004028       ??_C@_15CBKOMCOI@?$AAm?$AAn?$AA?$AA@ 1003a028     libucrt:lcidtoname_downlevel.obj
 0002:00004030       ??_C@_15CKDMCJAF@?$AAg?$AAl?$AA?$AA@ 1003a030     libucrt:lcidtoname_downlevel.obj
 0002:00004038       ??_C@_17CNJFBPG@?$AAk?$AAo?$AAk?$AA?$AA@ 1003a038     libucrt:lcidtoname_downlevel.obj
 0002:00004040       ??_C@_17FFBJICPL@?$AAs?$AAy?$AAr?$AA?$AA@ 1003a040     libucrt:lcidtoname_downlevel.obj
 0002:00004048       ??_C@_17KPNDCPAF@?$AAd?$AAi?$AAv?$AA?$AA@ 1003a048     libucrt:lcidtoname_downlevel.obj
 0002:00004050       ??_C@_1M@OKAHONE@?$AAa?$AAr?$AA?9?$AAS?$AAA?$AA?$AA@ 1003a050     libucrt:lcidtoname_downlevel.obj
 0002:0000405c       ??_C@_1M@FFFIGIGK@?$AAb?$AAg?$AA?9?$AAB?$AAG?$AA?$AA@ 1003a05c     libucrt:lcidtoname_downlevel.obj
 0002:00004068       ??_C@_1M@BJNKEDC@?$AAc?$AAa?$AA?9?$AAE?$AAS?$AA?$AA@ 1003a068     libucrt:lcidtoname_downlevel.obj
 0002:00004074       ??_C@_1M@IJJHFJHA@?$AAc?$AAs?$AA?9?$AAC?$AAZ?$AA?$AA@ 1003a074     libucrt:lcidtoname_downlevel.obj
 0002:00004080       ??_C@_1M@CLPEOBGI@?$AAd?$AAa?$AA?9?$AAD?$AAK?$AA?$AA@ 1003a080     libucrt:lcidtoname_downlevel.obj
 0002:0000408c       ??_C@_1M@MCMADGCB@?$AAd?$AAe?$AA?9?$AAD?$AAE?$AA?$AA@ 1003a08c     libucrt:lcidtoname_downlevel.obj
 0002:00004098       ??_C@_1M@OOCKEMAM@?$AAe?$AAl?$AA?9?$AAG?$AAR?$AA?$AA@ 1003a098     libucrt:lcidtoname_downlevel.obj
 0002:000040a4       ??_C@_1M@DDNJFGID@?$AAf?$AAi?$AA?9?$AAF?$AAI?$AA?$AA@ 1003a0a4     libucrt:lcidtoname_downlevel.obj
 0002:000040b0       ??_C@_1M@GLIPPMAC@?$AAf?$AAr?$AA?9?$AAF?$AAR?$AA?$AA@ 1003a0b0     libucrt:lcidtoname_downlevel.obj
 0002:000040bc       ??_C@_1M@GFMCHPE@?$AAh?$AAe?$AA?9?$AAI?$AAL?$AA?$AA@ 1003a0bc     libucrt:lcidtoname_downlevel.obj
 0002:000040c8       ??_C@_1M@MHLPGNKM@?$AAh?$AAu?$AA?9?$AAH?$AAU?$AA?$AA@ 1003a0c8     libucrt:lcidtoname_downlevel.obj
 0002:000040d4       ??_C@_1M@LPDDNNPN@?$AAi?$AAs?$AA?9?$AAI?$AAS?$AA?$AA@ 1003a0d4     libucrt:lcidtoname_downlevel.obj
 0002:000040e0       ??_C@_1M@MADIPODN@?$AAi?$AAt?$AA?9?$AAI?$AAT?$AA?$AA@ 1003a0e0     libucrt:lcidtoname_downlevel.obj
 0002:000040ec       ??_C@_1M@IHBJJGG@?$AAn?$AAl?$AA?9?$AAN?$AAL?$AA?$AA@ 1003a0ec     libucrt:lcidtoname_downlevel.obj
 0002:000040f8       ??_C@_1M@EANAGDL@?$AAn?$AAb?$AA?9?$AAN?$AAO?$AA?$AA@ 1003a0f8     libucrt:lcidtoname_downlevel.obj
 0002:00004104       ??_C@_1M@NEIEMEGP@?$AAp?$AAl?$AA?9?$AAP?$AAL?$AA?$AA@ 1003a104     libucrt:lcidtoname_downlevel.obj
 0002:00004110       ??_C@_1M@BOCFIGEP@?$AAp?$AAt?$AA?9?$AAB?$AAR?$AA?$AA@ 1003a110     libucrt:lcidtoname_downlevel.obj
 0002:0000411c       ??_C@_1M@IMPFOPBG@?$AAr?$AAo?$AA?9?$AAR?$AAO?$AA?$AA@ 1003a11c     libucrt:lcidtoname_downlevel.obj
 0002:00004128       ??_C@_1M@IDNNEJMM@?$AAr?$AAu?$AA?9?$AAR?$AAU?$AA?$AA@ 1003a128     libucrt:lcidtoname_downlevel.obj
 0002:00004134       ??_C@_1M@LILEEOGM@?$AAh?$AAr?$AA?9?$AAH?$AAR?$AA?$AA@ 1003a134     libucrt:lcidtoname_downlevel.obj
 0002:00004140       ??_C@_1M@FKIFEHPB@?$AAs?$AAk?$AA?9?$AAS?$AAK?$AA?$AA@ 1003a140     libucrt:lcidtoname_downlevel.obj
 0002:0000414c       ??_C@_1M@LJMAMNPJ@?$AAs?$AAq?$AA?9?$AAA?$AAL?$AA?$AA@ 1003a14c     libucrt:lcidtoname_downlevel.obj
 0002:00004158       ??_C@_1M@GIAKDKJK@?$AAs?$AAv?$AA?9?$AAS?$AAE?$AA?$AA@ 1003a158     libucrt:lcidtoname_downlevel.obj
 0002:00004164       ??_C@_1M@MKJKIKCL@?$AAt?$AAh?$AA?9?$AAT?$AAH?$AA?$AA@ 1003a164     libucrt:lcidtoname_downlevel.obj
 0002:00004170       ??_C@_1M@MFLCCMPB@?$AAt?$AAr?$AA?9?$AAT?$AAR?$AA?$AA@ 1003a170     libucrt:lcidtoname_downlevel.obj
 0002:0000417c       ??_C@_1M@OIJHDKJN@?$AAu?$AAr?$AA?9?$AAP?$AAK?$AA?$AA@ 1003a17c     libucrt:lcidtoname_downlevel.obj
 0002:00004188       ??_C@_1M@LHIPCIEK@?$AAi?$AAd?$AA?9?$AAI?$AAD?$AA?$AA@ 1003a188     libucrt:lcidtoname_downlevel.obj
 0002:00004194       ??_C@_1M@MFMOBGI@?$AAu?$AAk?$AA?9?$AAU?$AAA?$AA?$AA@ 1003a194     libucrt:lcidtoname_downlevel.obj
 0002:000041a0       ??_C@_1M@OBGLJIPL@?$AAb?$AAe?$AA?9?$AAB?$AAY?$AA?$AA@ 1003a1a0     libucrt:lcidtoname_downlevel.obj
 0002:000041ac       ??_C@_1M@BCFAJEAD@?$AAs?$AAl?$AA?9?$AAS?$AAI?$AA?$AA@ 1003a1ac     libucrt:lcidtoname_downlevel.obj
 0002:000041b8       ??_C@_1M@FKFFEDDN@?$AAe?$AAt?$AA?9?$AAE?$AAE?$AA?$AA@ 1003a1b8     libucrt:lcidtoname_downlevel.obj
 0002:000041c4       ??_C@_1M@KGKKAACI@?$AAl?$AAv?$AA?9?$AAL?$AAV?$AA?$AA@ 1003a1c4     libucrt:lcidtoname_downlevel.obj
 0002:000041d0       ??_C@_1M@IFGBIJO@?$AAl?$AAt?$AA?9?$AAL?$AAT?$AA?$AA@ 1003a1d0     libucrt:lcidtoname_downlevel.obj
 0002:000041dc       ??_C@_1M@FGEAHEDM@?$AAf?$AAa?$AA?9?$AAI?$AAR?$AA?$AA@ 1003a1dc     libucrt:lcidtoname_downlevel.obj
 0002:000041e8       ??_C@_1M@KBMAIBFN@?$AAv?$AAi?$AA?9?$AAV?$AAN?$AA?$AA@ 1003a1e8     libucrt:lcidtoname_downlevel.obj
 0002:000041f4       ??_C@_1M@GPCBKDJK@?$AAh?$AAy?$AA?9?$AAA?$AAM?$AA?$AA@ 1003a1f4     libucrt:lcidtoname_downlevel.obj
 0002:00004200       ??_C@_1BG@BECMDDJB@?$AAa?$AAz?$AA?9?$AAA?$AAZ?$AA?9?$AAL?$AAa?$AAt?$AAn?$AA?$AA@ 1003a200     libucrt:lcidtoname_downlevel.obj
 0002:00004218       ??_C@_1M@MAOFCAEA@?$AAe?$AAu?$AA?9?$AAE?$AAS?$AA?$AA@ 1003a218     libucrt:lcidtoname_downlevel.obj
 0002:00004224       ??_C@_1M@IGHABKPI@?$AAm?$AAk?$AA?9?$AAM?$AAK?$AA?$AA@ 1003a224     libucrt:lcidtoname_downlevel.obj
 0002:00004230       ??_C@_1M@IAIGNEJG@?$AAt?$AAn?$AA?9?$AAZ?$AAA?$AA?$AA@ 1003a230     libucrt:lcidtoname_downlevel.obj
 0002:0000423c       ??_C@_1M@IIJCOJFA@?$AAx?$AAh?$AA?9?$AAZ?$AAA?$AA?$AA@ 1003a23c     libucrt:lcidtoname_downlevel.obj
 0002:00004248       ??_C@_1M@LGPJHNJH@?$AAz?$AAu?$AA?9?$AAZ?$AAA?$AA?$AA@ 1003a248     libucrt:lcidtoname_downlevel.obj
 0002:00004254       ??_C@_1M@HOKAOIO@?$AAa?$AAf?$AA?9?$AAZ?$AAA?$AA?$AA@ 1003a254     libucrt:lcidtoname_downlevel.obj
 0002:00004260       ??_C@_1M@DPCLHLIE@?$AAk?$AAa?$AA?9?$AAG?$AAE?$AA?$AA@ 1003a260     libucrt:lcidtoname_downlevel.obj
 0002:0000426c       ??_C@_1M@BLKMHJBI@?$AAf?$AAo?$AA?9?$AAF?$AAO?$AA?$AA@ 1003a26c     libucrt:lcidtoname_downlevel.obj
 0002:00004278       ??_C@_1M@LGGJAPPB@?$AAh?$AAi?$AA?9?$AAI?$AAN?$AA?$AA@ 1003a278     libucrt:lcidtoname_downlevel.obj
 0002:00004284       ??_C@_1M@FIKPIHFE@?$AAm?$AAt?$AA?9?$AAM?$AAT?$AA?$AA@ 1003a284     libucrt:lcidtoname_downlevel.obj
 0002:00004290       ??_C@_1M@HEGGPBFA@?$AAs?$AAe?$AA?9?$AAN?$AAO?$AA?$AA@ 1003a290     libucrt:lcidtoname_downlevel.obj
 0002:0000429c       ??_C@_1M@EIBJEEPA@?$AAm?$AAs?$AA?9?$AAM?$AAY?$AA?$AA@ 1003a29c     libucrt:lcidtoname_downlevel.obj
 0002:000042a8       ??_C@_1M@FHLBGMPP@?$AAk?$AAk?$AA?9?$AAK?$AAZ?$AA?$AA@ 1003a2a8     libucrt:lcidtoname_downlevel.obj
 0002:000042b4       ??_C@_1M@NGJJLCGI@?$AAk?$AAy?$AA?9?$AAK?$AAG?$AA?$AA@ 1003a2b4     libucrt:lcidtoname_downlevel.obj
 0002:000042c0       ??_C@_1M@GIENNBFC@?$AAs?$AAw?$AA?9?$AAK?$AAE?$AA?$AA@ 1003a2c0     libucrt:lcidtoname_downlevel.obj
 0002:000042cc       ??_C@_1BG@NDGMJIMJ@?$AAu?$AAz?$AA?9?$AAU?$AAZ?$AA?9?$AAL?$AAa?$AAt?$AAn?$AA?$AA@ 1003a2cc     libucrt:lcidtoname_downlevel.obj
 0002:000042e4       ??_C@_1M@IDCCIHBC@?$AAt?$AAt?$AA?9?$AAR?$AAU?$AA?$AA@ 1003a2e4     libucrt:lcidtoname_downlevel.obj
 0002:000042f0       ??_C@_1M@LOICPMOJ@?$AAb?$AAn?$AA?9?$AAI?$AAN?$AA?$AA@ 1003a2f0     libucrt:lcidtoname_downlevel.obj
 0002:000042fc       ??_C@_1M@KPKKNEAH@?$AAp?$AAa?$AA?9?$AAI?$AAN?$AA?$AA@ 1003a2fc     libucrt:lcidtoname_downlevel.obj
 0002:00004308       ??_C@_1M@PJGPPBOG@?$AAg?$AAu?$AA?9?$AAI?$AAN?$AA?$AA@ 1003a308     libucrt:lcidtoname_downlevel.obj
 0002:00004314       ??_C@_1M@KMKMOPHI@?$AAt?$AAa?$AA?9?$AAI?$AAN?$AA?$AA@ 1003a314     libucrt:lcidtoname_downlevel.obj
 0002:00004320       ??_C@_1M@KFEHEPAC@?$AAt?$AAe?$AA?9?$AAI?$AAN?$AA?$AA@ 1003a320     libucrt:lcidtoname_downlevel.obj
 0002:0000432c       ??_C@_1M@CDCLMGHI@?$AAk?$AAn?$AA?9?$AAI?$AAN?$AA?$AA@ 1003a32c     libucrt:lcidtoname_downlevel.obj
 0002:00004338       ??_C@_1M@MIODLDKF@?$AAm?$AAl?$AA?9?$AAI?$AAN?$AA?$AA@ 1003a338     libucrt:lcidtoname_downlevel.obj
 0002:00004344       ??_C@_1M@PBIEACPO@?$AAm?$AAr?$AA?9?$AAI?$AAN?$AA?$AA@ 1003a344     libucrt:lcidtoname_downlevel.obj
 0002:00004350       ??_C@_1M@NIDEAGPH@?$AAs?$AAa?$AA?9?$AAI?$AAN?$AA?$AA@ 1003a350     libucrt:lcidtoname_downlevel.obj
 0002:0000435c       ??_C@_1M@FHIHCBIO@?$AAm?$AAn?$AA?9?$AAM?$AAN?$AA?$AA@ 1003a35c     libucrt:lcidtoname_downlevel.obj
 0002:00004368       ??_C@_1M@JAIJPENP@?$AAc?$AAy?$AA?9?$AAG?$AAB?$AA?$AA@ 1003a368     libucrt:lcidtoname_downlevel.obj
 0002:00004374       ??_C@_1M@PHGFBEPN@?$AAg?$AAl?$AA?9?$AAE?$AAS?$AA?$AA@ 1003a374     libucrt:lcidtoname_downlevel.obj
 0002:00004380       ??_C@_1O@KPIPDNCP@?$AAk?$AAo?$AAk?$AA?9?$AAI?$AAN?$AA?$AA@ 1003a380     libucrt:lcidtoname_downlevel.obj
 0002:00004390       ??_C@_1O@KNHJLDJA@?$AAs?$AAy?$AAr?$AA?9?$AAS?$AAY?$AA?$AA@ 1003a390     libucrt:lcidtoname_downlevel.obj
 0002:000043a0       ??_C@_1O@MKEKBLAH@?$AAd?$AAi?$AAv?$AA?9?$AAM?$AAV?$AA?$AA@ 1003a3a0     libucrt:lcidtoname_downlevel.obj
 0002:000043b0       ??_C@_1O@OHDCKDDF@?$AAq?$AAu?$AAz?$AA?9?$AAB?$AAO?$AA?$AA@ 1003a3b0     libucrt:lcidtoname_downlevel.obj
 0002:000043c0       ??_C@_1M@LEPJNLFD@?$AAn?$AAs?$AA?9?$AAZ?$AAA?$AA?$AA@ 1003a3c0     libucrt:lcidtoname_downlevel.obj
 0002:000043cc       ??_C@_1M@OMLEIIJB@?$AAm?$AAi?$AA?9?$AAN?$AAZ?$AA?$AA@ 1003a3cc     libucrt:lcidtoname_downlevel.obj
 0002:000043d8       ??_C@_1M@PMPEAILG@?$AAa?$AAr?$AA?9?$AAI?$AAQ?$AA?$AA@ 1003a3d8     libucrt:lcidtoname_downlevel.obj
 0002:000043e4       ??_C@_1M@CNKPNOEE@?$AAd?$AAe?$AA?9?$AAC?$AAH?$AA?$AA@ 1003a3e4     libucrt:lcidtoname_downlevel.obj
 0002:000043f0       ??_C@_1M@LKMGMLKO@?$AAe?$AAn?$AA?9?$AAG?$AAB?$AA?$AA@ 1003a3f0     libucrt:lcidtoname_downlevel.obj
 0002:000043fc       ??_C@_1M@PGKJFFGL@?$AAe?$AAs?$AA?9?$AAM?$AAX?$AA?$AA@ 1003a3fc     libucrt:lcidtoname_downlevel.obj
 0002:00004408       ??_C@_1M@DNNANBDC@?$AAf?$AAr?$AA?9?$AAB?$AAE?$AA?$AA@ 1003a408     libucrt:lcidtoname_downlevel.obj
 0002:00004414       ??_C@_1M@HLGMDFHM@?$AAi?$AAt?$AA?9?$AAC?$AAH?$AA?$AA@ 1003a414     libucrt:lcidtoname_downlevel.obj
 0002:00004420       ??_C@_1M@CLLBGJH@?$AAn?$AAl?$AA?9?$AAB?$AAE?$AA?$AA@ 1003a420     libucrt:lcidtoname_downlevel.obj
 0002:0000442c       ??_C@_1M@BODBOGLF@?$AAn?$AAn?$AA?9?$AAN?$AAO?$AA?$AA@ 1003a42c     libucrt:lcidtoname_downlevel.obj
 0002:00004438       ??_C@_1M@HFFAHKAD@?$AAp?$AAt?$AA?9?$AAP?$AAT?$AA?$AA@ 1003a438     libucrt:lcidtoname_downlevel.obj
 0002:00004444       ??_C@_1BG@LNOAKHIE@?$AAs?$AAr?$AA?9?$AAS?$AAP?$AA?9?$AAL?$AAa?$AAt?$AAn?$AA?$AA@ 1003a444     libucrt:lcidtoname_downlevel.obj
 0002:0000445c       ??_C@_1M@HBMHBGAK@?$AAs?$AAv?$AA?9?$AAF?$AAI?$AA?$AA@ 1003a45c     libucrt:lcidtoname_downlevel.obj
 0002:00004468       ??_C@_1BG@DGCJGJBE@?$AAa?$AAz?$AA?9?$AAA?$AAZ?$AA?9?$AAC?$AAy?$AAr?$AAl?$AA?$AA@ 1003a468     libucrt:lcidtoname_downlevel.obj
 0002:00004480       ??_C@_1M@KEJDAAHB@?$AAs?$AAe?$AA?9?$AAS?$AAE?$AA?$AA@ 1003a480     libucrt:lcidtoname_downlevel.obj
 0002:0000448c       ??_C@_1M@HEIBJJAD@?$AAm?$AAs?$AA?9?$AAB?$AAN?$AA?$AA@ 1003a48c     libucrt:lcidtoname_downlevel.obj
 0002:00004498       ??_C@_1BG@PBGJMCEM@?$AAu?$AAz?$AA?9?$AAU?$AAZ?$AA?9?$AAC?$AAy?$AAr?$AAl?$AA?$AA@ 1003a498     libucrt:lcidtoname_downlevel.obj
 0002:000044b0       ??_C@_1O@LAOBCMDF@?$AAq?$AAu?$AAz?$AA?9?$AAE?$AAC?$AA?$AA@ 1003a4b0     libucrt:lcidtoname_downlevel.obj
 0002:000044c0       ??_C@_1M@POEEMAIO@?$AAa?$AAr?$AA?9?$AAE?$AAG?$AA?$AA@ 1003a4c0     libucrt:lcidtoname_downlevel.obj
 0002:000044cc       ??_C@_1M@EFAKDEDL@?$AAz?$AAh?$AA?9?$AAH?$AAK?$AA?$AA@ 1003a4cc     libucrt:lcidtoname_downlevel.obj
 0002:000044d8       ??_C@_1M@HKKIJHGI@?$AAd?$AAe?$AA?9?$AAA?$AAT?$AA?$AA@ 1003a4d8     libucrt:lcidtoname_downlevel.obj
 0002:000044e4       ??_C@_1M@KBFBEHJF@?$AAe?$AAn?$AA?9?$AAA?$AAU?$AA?$AA@ 1003a4e4     libucrt:lcidtoname_downlevel.obj
 0002:000044f0       ??_C@_1M@MNPLFAAH@?$AAe?$AAs?$AA?9?$AAE?$AAS?$AA?$AA@ 1003a4f0     libucrt:lcidtoname_downlevel.obj
 0002:000044fc       ??_C@_1M@HJOOJFMA@?$AAf?$AAr?$AA?9?$AAC?$AAA?$AA?$AA@ 1003a4fc     libucrt:lcidtoname_downlevel.obj
 0002:00004508       ??_C@_1BG@JPOFPNAB@?$AAs?$AAr?$AA?9?$AAS?$AAP?$AA?9?$AAC?$AAy?$AAr?$AAl?$AA?$AA@ 1003a508     libucrt:lcidtoname_downlevel.obj
 0002:00004520       ??_C@_1M@LNFOCMOB@?$AAs?$AAe?$AA?9?$AAF?$AAI?$AA?$AA@ 1003a520     libucrt:lcidtoname_downlevel.obj
 0002:0000452c       ??_C@_1O@MGJBOAMB@?$AAq?$AAu?$AAz?$AA?9?$AAP?$AAE?$AA?$AA@ 1003a52c     libucrt:lcidtoname_downlevel.obj
 0002:0000453c       ??_C@_1M@GJINLBOK@?$AAa?$AAr?$AA?9?$AAL?$AAY?$AA?$AA@ 1003a53c     libucrt:lcidtoname_downlevel.obj
 0002:00004548       ??_C@_1M@GGMNHJNL@?$AAz?$AAh?$AA?9?$AAS?$AAG?$AA?$AA@ 1003a548     libucrt:lcidtoname_downlevel.obj
 0002:00004554       ??_C@_1M@HOIKODND@?$AAd?$AAe?$AA?9?$AAL?$AAU?$AA?$AA@ 1003a554     libucrt:lcidtoname_downlevel.obj
 0002:00004560       ??_C@_1M@DDOCCGFG@?$AAe?$AAn?$AA?9?$AAC?$AAA?$AA?$AA@ 1003a560     libucrt:lcidtoname_downlevel.obj
 0002:0000456c       ??_C@_1M@BNOEMJLF@?$AAe?$AAs?$AA?9?$AAG?$AAT?$AA?$AA@ 1003a56c     libucrt:lcidtoname_downlevel.obj
 0002:00004578       ??_C@_1M@EOGNKEK@?$AAf?$AAr?$AA?9?$AAC?$AAH?$AA?$AA@ 1003a578     libucrt:lcidtoname_downlevel.obj
 0002:00004584       ??_C@_1M@FLIDJFHL@?$AAh?$AAr?$AA?9?$AAB?$AAA?$AA?$AA@ 1003a584     libucrt:lcidtoname_downlevel.obj
 0002:00004590       ??_C@_1O@FMCELNAJ@?$AAs?$AAm?$AAj?$AA?9?$AAN?$AAO?$AA?$AA@ 1003a590     libucrt:lcidtoname_downlevel.obj
 0002:000045a0       ??_C@_1M@JHGLJMGJ@?$AAa?$AAr?$AA?9?$AAD?$AAZ?$AA?$AA@ 1003a5a0     libucrt:lcidtoname_downlevel.obj
 0002:000045ac       ??_C@_1M@JKKFDCNP@?$AAz?$AAh?$AA?9?$AAM?$AAO?$AA?$AA@ 1003a5ac     libucrt:lcidtoname_downlevel.obj
 0002:000045b8       ??_C@_1M@GEEFALPE@?$AAd?$AAe?$AA?9?$AAL?$AAI?$AA?$AA@ 1003a5b8     libucrt:lcidtoname_downlevel.obj
 0002:000045c4       ??_C@_1M@IGEOFBG@?$AAe?$AAn?$AA?9?$AAN?$AAZ?$AA?$AA@ 1003a5c4     libucrt:lcidtoname_downlevel.obj
 0002:000045d0       ??_C@_1M@KDBONEHP@?$AAe?$AAs?$AA?9?$AAC?$AAR?$AA?$AA@ 1003a5d0     libucrt:lcidtoname_downlevel.obj
 0002:000045dc       ??_C@_1M@FHMDOHNN@?$AAf?$AAr?$AA?9?$AAL?$AAU?$AA?$AA@ 1003a5dc     libucrt:lcidtoname_downlevel.obj
 0002:000045e8       ??_C@_1BG@NFKKMAFG@?$AAb?$AAs?$AA?9?$AAB?$AAA?$AA?9?$AAL?$AAa?$AAt?$AAn?$AA?$AA@ 1003a5e8     libucrt:lcidtoname_downlevel.obj
 0002:00004600       ??_C@_1O@IMNBEMCI@?$AAs?$AAm?$AAj?$AA?9?$AAS?$AAE?$AA?$AA@ 1003a600     libucrt:lcidtoname_downlevel.obj
 0002:00004610       ??_C@_1M@DHHMBNDP@?$AAa?$AAr?$AA?9?$AAM?$AAA?$AA?$AA@ 1003a610     libucrt:lcidtoname_downlevel.obj
 0002:0000461c       ??_C@_1M@BNBLJCGH@?$AAe?$AAn?$AA?9?$AAI?$AAE?$AA?$AA@ 1003a61c     libucrt:lcidtoname_downlevel.obj
 0002:00004628       ??_C@_1M@GEPAFMDL@?$AAe?$AAs?$AA?9?$AAP?$AAA?$AA?$AA@ 1003a628     libucrt:lcidtoname_downlevel.obj
 0002:00004634       ??_C@_1M@OJONDMDL@?$AAf?$AAr?$AA?9?$AAM?$AAC?$AA?$AA@ 1003a634     libucrt:lcidtoname_downlevel.obj
 0002:00004640       ??_C@_1BG@OBCNFJB@?$AAs?$AAr?$AA?9?$AAB?$AAA?$AA?9?$AAL?$AAa?$AAt?$AAn?$AA?$AA@ 1003a640     libucrt:lcidtoname_downlevel.obj
 0002:00004658       ??_C@_1O@KEMEEGPO@?$AAs?$AAm?$AAa?$AA?9?$AAN?$AAO?$AA?$AA@ 1003a658     libucrt:lcidtoname_downlevel.obj
 0002:00004668       ??_C@_1M@ELMGFODK@?$AAa?$AAr?$AA?9?$AAT?$AAN?$AA?$AA@ 1003a668     libucrt:lcidtoname_downlevel.obj
 0002:00004674       ??_C@_1M@BHDLHFAF@?$AAe?$AAn?$AA?9?$AAZ?$AAA?$AA?$AA@ 1003a674     libucrt:lcidtoname_downlevel.obj
 0002:00004680       ??_C@_1M@BMGIGLIF@?$AAe?$AAs?$AA?9?$AAD?$AAO?$AA?$AA@ 1003a680     libucrt:lcidtoname_downlevel.obj
 0002:0000468c       ??_C@_1BG@CMBHIPBE@?$AAs?$AAr?$AA?9?$AAB?$AAA?$AA?9?$AAC?$AAy?$AAr?$AAl?$AA?$AA@ 1003a68c     libucrt:lcidtoname_downlevel.obj
 0002:000046a4       ??_C@_1O@HEDBLHNP@?$AAs?$AAm?$AAa?$AA?9?$AAS?$AAE?$AA?$AA@ 1003a6a4     libucrt:lcidtoname_downlevel.obj
 0002:000046b4       ??_C@_1M@DAGCADIM@?$AAa?$AAr?$AA?9?$AAO?$AAM?$AA?$AA@ 1003a6b4     libucrt:lcidtoname_downlevel.obj
 0002:000046c0       ??_C@_1M@FODLMICG@?$AAe?$AAn?$AA?9?$AAJ?$AAM?$AA?$AA@ 1003a6c0     libucrt:lcidtoname_downlevel.obj
 0002:000046cc       ??_C@_1M@DNMLCIHB@?$AAe?$AAs?$AA?9?$AAV?$AAE?$AA?$AA@ 1003a6cc     libucrt:lcidtoname_downlevel.obj
 0002:000046d8       ??_C@_1O@EOKHMKJK@?$AAs?$AAm?$AAs?$AA?9?$AAF?$AAI?$AA?$AA@ 1003a6d8     libucrt:lcidtoname_downlevel.obj
 0002:000046e8       ??_C@_1M@CAFJMKOF@?$AAa?$AAr?$AA?9?$AAY?$AAE?$AA?$AA@ 1003a6e8     libucrt:lcidtoname_downlevel.obj
 0002:000046f4       ??_C@_1M@CBFHIJLI@?$AAe?$AAn?$AA?9?$AAC?$AAB?$AA?$AA@ 1003a6f4     libucrt:lcidtoname_downlevel.obj
 0002:00004700       ??_C@_1M@BGNFLDN@?$AAe?$AAs?$AA?9?$AAC?$AAO?$AA?$AA@ 1003a700     libucrt:lcidtoname_downlevel.obj
 0002:0000470c       ??_C@_1O@JMPHMAMC@?$AAs?$AAm?$AAn?$AA?9?$AAF?$AAI?$AA?$AA@ 1003a70c     libucrt:lcidtoname_downlevel.obj
 0002:0000471c       ??_C@_1M@JLANABKE@?$AAa?$AAr?$AA?9?$AAS?$AAY?$AA?$AA@ 1003a71c     libucrt:lcidtoname_downlevel.obj
 0002:00004728       ??_C@_1M@HPKGCFGN@?$AAe?$AAn?$AA?9?$AAB?$AAZ?$AA?$AA@ 1003a728     libucrt:lcidtoname_downlevel.obj
 0002:00004734       ??_C@_1M@OLJCMLGM@?$AAe?$AAs?$AA?9?$AAP?$AAE?$AA?$AA@ 1003a734     libucrt:lcidtoname_downlevel.obj
 0002:00004740       ??_C@_1M@MKKGFKLE@?$AAa?$AAr?$AA?9?$AAJ?$AAO?$AA?$AA@ 1003a740     libucrt:lcidtoname_downlevel.obj
 0002:0000474c       ??_C@_1M@EKPGLDNI@?$AAe?$AAn?$AA?9?$AAT?$AAT?$AA?$AA@ 1003a74c     libucrt:lcidtoname_downlevel.obj
 0002:00004758       ??_C@_1M@OONGHFHE@?$AAe?$AAs?$AA?9?$AAA?$AAR?$AA?$AA@ 1003a758     libucrt:lcidtoname_downlevel.obj
 0002:00004764       ??_C@_1M@OOJFGBHE@?$AAa?$AAr?$AA?9?$AAL?$AAB?$AA?$AA@ 1003a764     libucrt:lcidtoname_downlevel.obj
 0002:00004770       ??_C@_1M@GCEJHNEG@?$AAe?$AAn?$AA?9?$AAZ?$AAW?$AA?$AA@ 1003a770     libucrt:lcidtoname_downlevel.obj
 0002:0000477c       ??_C@_1M@JNOCAHJI@?$AAe?$AAs?$AA?9?$AAE?$AAC?$AA?$AA@ 1003a77c     libucrt:lcidtoname_downlevel.obj
 0002:00004788       ??_C@_1M@JEFHPGGB@?$AAa?$AAr?$AA?9?$AAK?$AAW?$AA?$AA@ 1003a788     libucrt:lcidtoname_downlevel.obj
 0002:00004794       ??_C@_1M@MLKIBJOJ@?$AAe?$AAn?$AA?9?$AAP?$AAH?$AA?$AA@ 1003a794     libucrt:lcidtoname_downlevel.obj
 0002:000047a0       ??_C@_1M@BDNIPEND@?$AAe?$AAs?$AA?9?$AAC?$AAL?$AA?$AA@ 1003a7a0     libucrt:lcidtoname_downlevel.obj
 0002:000047ac       ??_C@_1M@MPNMEKBD@?$AAa?$AAr?$AA?9?$AAA?$AAE?$AA?$AA@ 1003a7ac     libucrt:lcidtoname_downlevel.obj
 0002:000047b8       ??_C@_1M@KBJALCPI@?$AAe?$AAs?$AA?9?$AAU?$AAY?$AA?$AA@ 1003a7b8     libucrt:lcidtoname_downlevel.obj
 0002:000047c4       ??_C@_1M@LLCCOAGA@?$AAa?$AAr?$AA?9?$AAB?$AAH?$AA?$AA@ 1003a7c4     libucrt:lcidtoname_downlevel.obj
 0002:000047d0       ??_C@_1M@PBFNCDEL@?$AAe?$AAs?$AA?9?$AAP?$AAY?$AA?$AA@ 1003a7d0     libucrt:lcidtoname_downlevel.obj
 0002:000047dc       ??_C@_1M@EDGINPNP@?$AAa?$AAr?$AA?9?$AAQ?$AAA?$AA?$AA@ 1003a7dc     libucrt:lcidtoname_downlevel.obj
 0002:000047e8       ??_C@_1M@MKDBIIJI@?$AAe?$AAs?$AA?9?$AAB?$AAO?$AA?$AA@ 1003a7e8     libucrt:lcidtoname_downlevel.obj
 0002:000047f4       ??_C@_1M@CPKKEBLD@?$AAe?$AAs?$AA?9?$AAS?$AAV?$AA?$AA@ 1003a7f4     libucrt:lcidtoname_downlevel.obj
 0002:00004800       ??_C@_1M@NDBGMMJL@?$AAe?$AAs?$AA?9?$AAH?$AAN?$AA?$AA@ 1003a800     libucrt:lcidtoname_downlevel.obj
 0002:0000480c       ??_C@_1M@JIJIBHDP@?$AAe?$AAs?$AA?9?$AAN?$AAI?$AA?$AA@ 1003a80c     libucrt:lcidtoname_downlevel.obj
 0002:00004818       ??_C@_1M@CGFMKEEK@?$AAe?$AAs?$AA?9?$AAP?$AAR?$AA?$AA@ 1003a818     libucrt:lcidtoname_downlevel.obj
 0002:00004824       ??_C@_1O@ICJHKIIK@?$AAz?$AAh?$AA?9?$AAC?$AAH?$AAT?$AA?$AA@ 1003a824     libucrt:lcidtoname_downlevel.obj
 0002:00004834       ??_C@_15CLNEJCE@?$AAs?$AAr?$AA?$AA@ 1003a834     libucrt:lcidtoname_downlevel.obj
 0002:00004f60       ??_C@_1M@KAHEKEIG@?$AAa?$AAf?$AA?9?$AAz?$AAa?$AA?$AA@ 1003af60     libucrt:lcidtoname_downlevel.obj
 0002:00004f6c       ??_C@_1M@GIECOABL@?$AAa?$AAr?$AA?9?$AAa?$AAe?$AA?$AA@ 1003af6c     libucrt:lcidtoname_downlevel.obj
 0002:00004f78       ??_C@_1M@BMLMEKGI@?$AAa?$AAr?$AA?9?$AAb?$AAh?$AA?$AA@ 1003af78     libucrt:lcidtoname_downlevel.obj
 0002:00004f84       ??_C@_1M@DAPFDGGB@?$AAa?$AAr?$AA?9?$AAd?$AAz?$AA?$AA@ 1003af84     libucrt:lcidtoname_downlevel.obj
 0002:00004f90       ??_C@_1M@FJNKGKIG@?$AAa?$AAr?$AA?9?$AAe?$AAg?$AA?$AA@ 1003af90     libucrt:lcidtoname_downlevel.obj
 0002:00004f9c       ??_C@_1M@FLGKKCLO@?$AAa?$AAr?$AA?9?$AAi?$AAq?$AA?$AA@ 1003af9c     libucrt:lcidtoname_downlevel.obj
 0002:00004fa8       ??_C@_1M@GNDIPALM@?$AAa?$AAr?$AA?9?$AAj?$AAo?$AA?$AA@ 1003afa8     libucrt:lcidtoname_downlevel.obj
 0002:00004fb4       ??_C@_1M@DDMJFMGJ@?$AAa?$AAr?$AA?9?$AAk?$AAw?$AA?$AA@ 1003afb4     libucrt:lcidtoname_downlevel.obj
 0002:00004fc0       ??_C@_1M@EJALMLHM@?$AAa?$AAr?$AA?9?$AAl?$AAb?$AA?$AA@ 1003afc0     libucrt:lcidtoname_downlevel.obj
 0002:00004fcc       ??_C@_1M@MOBDBLOC@?$AAa?$AAr?$AA?9?$AAl?$AAy?$AA?$AA@ 1003afcc     libucrt:lcidtoname_downlevel.obj
 0002:00004fd8       ??_C@_1M@JAOCLHDH@?$AAa?$AAr?$AA?9?$AAm?$AAa?$AA?$AA@ 1003afd8     libucrt:lcidtoname_downlevel.obj
 0002:00004fe4       ??_C@_1M@JHPMKJIE@?$AAa?$AAr?$AA?9?$AAo?$AAm?$AA?$AA@ 1003afe4     libucrt:lcidtoname_downlevel.obj
 0002:00004ff0       ??_C@_1M@OEPGHFNH@?$AAa?$AAr?$AA?9?$AAq?$AAa?$AA?$AA@ 1003aff0     libucrt:lcidtoname_downlevel.obj
 0002:00004ffc       ??_C@_1M@KJDONENM@?$AAa?$AAr?$AA?9?$AAs?$AAa?$AA?$AA@ 1003affc     libucrt:lcidtoname_downlevel.obj
 0002:00005008       ??_C@_1M@DMJDKLKM@?$AAa?$AAr?$AA?9?$AAs?$AAy?$AA?$AA@ 1003b008     libucrt:lcidtoname_downlevel.obj
 0002:00005014       ??_C@_1M@OMFIPEDC@?$AAa?$AAr?$AA?9?$AAt?$AAn?$AA?$AA@ 1003b014     libucrt:lcidtoname_downlevel.obj
 0002:00005020       ??_C@_1M@IHMHGAON@?$AAa?$AAr?$AA?9?$AAy?$AAe?$AA?$AA@ 1003b020     libucrt:lcidtoname_downlevel.obj
 0002:0000502c       ??_C@_1BG@KDCPGJGB@?$AAa?$AAz?$AA?9?$AAa?$AAz?$AA?9?$AAc?$AAy?$AAr?$AAl?$AA?$AA@ 1003b02c     libucrt:lcidtoname_downlevel.obj
 0002:00005044       ??_C@_1BG@IBCKDDOE@?$AAa?$AAz?$AA?9?$AAa?$AAz?$AA?9?$AAl?$AAa?$AAt?$AAn?$AA?$AA@ 1003b044     libucrt:lcidtoname_downlevel.obj
 0002:0000505c       ??_C@_1M@EGPFDCPD@?$AAb?$AAe?$AA?9?$AAb?$AAy?$AA?$AA@ 1003b05c     libucrt:lcidtoname_downlevel.obj
 0002:00005068       ??_C@_1M@PCMGMCGC@?$AAb?$AAg?$AA?9?$AAb?$AAg?$AA?$AA@ 1003b068     libucrt:lcidtoname_downlevel.obj
 0002:00005074       ??_C@_1M@BJBMFGOB@?$AAb?$AAn?$AA?9?$AAi?$AAn?$AA?$AA@ 1003b074     libucrt:lcidtoname_downlevel.obj
 0002:00005080       ??_C@_1BG@EAKMMACD@?$AAb?$AAs?$AA?9?$AAb?$AAa?$AA?9?$AAl?$AAa?$AAt?$AAn?$AA?$AA@ 1003b080     libucrt:lcidtoname_downlevel.obj
 0002:00005098       ??_C@_1M@KGADAODK@?$AAc?$AAa?$AA?9?$AAe?$AAs?$AA?$AA@ 1003b098     libucrt:lcidtoname_downlevel.obj
 0002:000050a4       ??_C@_1M@COAJPDHI@?$AAc?$AAs?$AA?9?$AAc?$AAz?$AA?$AA@ 1003b0a4     libucrt:lcidtoname_downlevel.obj
 0002:000050b0       ??_C@_1M@DHBHFONH@?$AAc?$AAy?$AA?9?$AAg?$AAb?$AA?$AA@ 1003b0b0     libucrt:lcidtoname_downlevel.obj
 0002:000050bc       ??_C@_1M@IMGKELGA@?$AAd?$AAa?$AA?9?$AAd?$AAk?$AA?$AA@ 1003b0bc     libucrt:lcidtoname_downlevel.obj
 0002:000050c8       ??_C@_1M@NNDGDNGA@?$AAd?$AAe?$AA?9?$AAa?$AAt?$AA?$AA@ 1003b0c8     libucrt:lcidtoname_downlevel.obj
 0002:000050d4       ??_C@_1M@IKDBHEEM@?$AAd?$AAe?$AA?9?$AAc?$AAh?$AA?$AA@ 1003b0d4     libucrt:lcidtoname_downlevel.obj
 0002:000050e0       ??_C@_1M@GFFOJMCJ@?$AAd?$AAe?$AA?9?$AAd?$AAe?$AA?$AA@ 1003b0e0     libucrt:lcidtoname_downlevel.obj
 0002:000050ec       ??_C@_1M@MDNLKBPM@?$AAd?$AAe?$AA?9?$AAl?$AAi?$AA?$AA@ 1003b0ec     libucrt:lcidtoname_downlevel.obj
 0002:000050f8       ??_C@_1M@NJBEEJNL@?$AAd?$AAe?$AA?9?$AAl?$AAu?$AA?$AA@ 1003b0f8     libucrt:lcidtoname_downlevel.obj
 0002:00005104       ??_C@_1O@GNNELBAP@?$AAd?$AAi?$AAv?$AA?9?$AAm?$AAv?$AA?$AA@ 1003b104     libucrt:lcidtoname_downlevel.obj
 0002:00005114       ??_C@_1M@EJLEOGAE@?$AAe?$AAl?$AA?9?$AAg?$AAr?$AA?$AA@ 1003b114     libucrt:lcidtoname_downlevel.obj
 0002:00005120       ??_C@_1M@GMPONJN@?$AAe?$AAn?$AA?9?$AAa?$AAu?$AA?$AA@ 1003b120     libucrt:lcidtoname_downlevel.obj
 0002:0000512c       ??_C@_1M@NIDIIPGF@?$AAe?$AAn?$AA?9?$AAb?$AAz?$AA?$AA@ 1003b12c     libucrt:lcidtoname_downlevel.obj
 0002:00005138       ??_C@_1M@JEHMIMFO@?$AAe?$AAn?$AA?9?$AAc?$AAa?$AA?$AA@ 1003b138     libucrt:lcidtoname_downlevel.obj
 0002:00005144       ??_C@_1M@IGMJCDLA@?$AAe?$AAn?$AA?9?$AAc?$AAb?$AA?$AA@ 1003b144     libucrt:lcidtoname_downlevel.obj
 0002:00005150       ??_C@_1M@BNFIGBKG@?$AAe?$AAn?$AA?9?$AAg?$AAb?$AA?$AA@ 1003b150     libucrt:lcidtoname_downlevel.obj
 0002:0000515c       ??_C@_1M@LKIFDIGP@?$AAe?$AAn?$AA?9?$AAi?$AAe?$AA?$AA@ 1003b15c     libucrt:lcidtoname_downlevel.obj
 0002:00005168       ??_C@_1M@PJKFGCCO@?$AAe?$AAn?$AA?9?$AAj?$AAm?$AA?$AA@ 1003b168     libucrt:lcidtoname_downlevel.obj
 0002:00005174       ??_C@_1M@KPPKEPBO@?$AAe?$AAn?$AA?9?$AAn?$AAz?$AA?$AA@ 1003b174     libucrt:lcidtoname_downlevel.obj
 0002:00005180       ??_C@_1M@GMDGLDOB@?$AAe?$AAn?$AA?9?$AAp?$AAh?$AA?$AA@ 1003b180     libucrt:lcidtoname_downlevel.obj
 0002:0000518c       ??_C@_1M@ONGIBJNA@?$AAe?$AAn?$AA?9?$AAt?$AAt?$AA?$AA@ 1003b18c     libucrt:lcidtoname_downlevel.obj
 0002:00005198       ??_C@_1M@LLODPCMM@?$AAe?$AAn?$AA?9?$AAu?$AAs?$AA?$AA@ 1003b198     libucrt:lcidtoname_downlevel.obj
 0002:000051a4       ??_C@_1M@LAKFNPAN@?$AAe?$AAn?$AA?9?$AAz?$AAa?$AA?$AA@ 1003b1a4     libucrt:lcidtoname_downlevel.obj
 0002:000051b0       ??_C@_1M@MFNHNHEO@?$AAe?$AAn?$AA?9?$AAz?$AAw?$AA?$AA@ 1003b1b0     libucrt:lcidtoname_downlevel.obj
 0002:000051bc       ??_C@_1M@EJEINPHM@?$AAe?$AAs?$AA?9?$AAa?$AAr?$AA?$AA@ 1003b1bc     libucrt:lcidtoname_downlevel.obj
 0002:000051c8       ??_C@_1M@GNKPCCJA@?$AAe?$AAs?$AA?9?$AAb?$AAo?$AA?$AA@ 1003b1c8     libucrt:lcidtoname_downlevel.obj
 0002:000051d4       ??_C@_1M@LEEGFONL@?$AAe?$AAs?$AA?9?$AAc?$AAl?$AA?$AA@ 1003b1d4     libucrt:lcidtoname_downlevel.obj
 0002:000051e0       ??_C@_1M@KGPDPBDF@?$AAe?$AAs?$AA?9?$AAc?$AAo?$AA?$AA@ 1003b1e0     libucrt:lcidtoname_downlevel.obj
 0002:000051ec       ??_C@_1M@EIAHOHH@?$AAe?$AAs?$AA?9?$AAc?$AAr?$AA?$AA@ 1003b1ec     libucrt:lcidtoname_downlevel.obj
 0002:000051f8       ??_C@_1M@LLPGMBIN@?$AAe?$AAs?$AA?9?$AAd?$AAo?$AA?$AA@ 1003b1f8     libucrt:lcidtoname_downlevel.obj
 0002:00005204       ??_C@_1M@DKHMKNJA@?$AAe?$AAs?$AA?9?$AAe?$AAc?$AA?$AA@ 1003b204     libucrt:lcidtoname_downlevel.obj
 0002:00005210       ??_C@_1M@GKGFPKAP@?$AAe?$AAs?$AA?9?$AAe?$AAs?$AA?$AA@ 1003b210     libucrt:lcidtoname_downlevel.obj
 0002:0000521c       ??_C@_1M@LKHKGDLN@?$AAe?$AAs?$AA?9?$AAg?$AAt?$AA?$AA@ 1003b21c     libucrt:lcidtoname_downlevel.obj
 0002:00005228       ??_C@_1M@HEIIGGJD@?$AAe?$AAs?$AA?9?$AAh?$AAn?$AA?$AA@ 1003b228     libucrt:lcidtoname_downlevel.obj
 0002:00005234       ??_C@_1M@FBDHPPGD@?$AAe?$AAs?$AA?9?$AAm?$AAx?$AA?$AA@ 1003b234     libucrt:lcidtoname_downlevel.obj
 0002:00005240       ??_C@_1M@DPAGLNDH@?$AAe?$AAs?$AA?9?$AAn?$AAi?$AA?$AA@ 1003b240     libucrt:lcidtoname_downlevel.obj
 0002:0000524c       ??_C@_1M@MDGOPGDD@?$AAe?$AAs?$AA?9?$AAp?$AAa?$AA?$AA@ 1003b24c     libucrt:lcidtoname_downlevel.obj
 0002:00005258       ??_C@_1M@EMAMGBGE@?$AAe?$AAs?$AA?9?$AAp?$AAe?$AA?$AA@ 1003b258     libucrt:lcidtoname_downlevel.obj
 0002:00005264       ??_C@_1M@IBMCAOEC@?$AAe?$AAs?$AA?9?$AAp?$AAr?$AA?$AA@ 1003b264     libucrt:lcidtoname_downlevel.obj
 0002:00005270       ??_C@_1M@FGMDIJED@?$AAe?$AAs?$AA?9?$AAp?$AAy?$AA?$AA@ 1003b270     libucrt:lcidtoname_downlevel.obj
 0002:0000527c       ??_C@_1M@IIDEOLLL@?$AAe?$AAs?$AA?9?$AAs?$AAv?$AA?$AA@ 1003b27c     libucrt:lcidtoname_downlevel.obj
 0002:00005288       ??_C@_1M@GAOBIPA@?$AAe?$AAs?$AA?9?$AAu?$AAy?$AA?$AA@ 1003b288     libucrt:lcidtoname_downlevel.obj
 0002:00005294       ??_C@_1M@JKFFICHJ@?$AAe?$AAs?$AA?9?$AAv?$AAe?$AA?$AA@ 1003b294     libucrt:lcidtoname_downlevel.obj
 0002:000052a0       ??_C@_1M@PNMLOJDF@?$AAe?$AAt?$AA?9?$AAe?$AAe?$AA?$AA@ 1003b2a0     libucrt:lcidtoname_downlevel.obj
 0002:000052ac       ??_C@_1M@GHHLIKEI@?$AAe?$AAu?$AA?9?$AAe?$AAs?$AA?$AA@ 1003b2ac     libucrt:lcidtoname_downlevel.obj
 0002:000052b8       ??_C@_1M@PBNONODE@?$AAf?$AAa?$AA?9?$AAi?$AAr?$AA?$AA@ 1003b2b8     libucrt:lcidtoname_downlevel.obj
 0002:000052c4       ??_C@_1M@JEEHPMIL@?$AAf?$AAi?$AA?9?$AAf?$AAi?$AA?$AA@ 1003b2c4     libucrt:lcidtoname_downlevel.obj
 0002:000052d0       ??_C@_1M@LMDCNDBA@?$AAf?$AAo?$AA?9?$AAf?$AAo?$AA?$AA@ 1003b2d0     libucrt:lcidtoname_downlevel.obj
 0002:000052dc       ??_C@_1M@JKEOHLDK@?$AAf?$AAr?$AA?9?$AAb?$AAe?$AA?$AA@ 1003b2dc     libucrt:lcidtoname_downlevel.obj
 0002:000052e8       ??_C@_1M@NOHADPMI@?$AAf?$AAr?$AA?9?$AAc?$AAa?$AA?$AA@ 1003b2e8     libucrt:lcidtoname_downlevel.obj
 0002:000052f4       ??_C@_1M@KDHIHAEC@?$AAf?$AAr?$AA?9?$AAc?$AAh?$AA?$AA@ 1003b2f4     libucrt:lcidtoname_downlevel.obj
 0002:00005300       ??_C@_1M@MMBBFGAK@?$AAf?$AAr?$AA?9?$AAf?$AAr?$AA?$AA@ 1003b300     libucrt:lcidtoname_downlevel.obj
 0002:0000530c       ??_C@_1M@PAFNENNF@?$AAf?$AAr?$AA?9?$AAl?$AAu?$AA?$AA@ 1003b30c     libucrt:lcidtoname_downlevel.obj
 0002:00005318       ??_C@_1M@EOHDJGDD@?$AAf?$AAr?$AA?9?$AAm?$AAc?$AA?$AA@ 1003b318     libucrt:lcidtoname_downlevel.obj
 0002:00005324       ??_C@_1M@FAPLLOPF@?$AAg?$AAl?$AA?9?$AAe?$AAs?$AA?$AA@ 1003b324     libucrt:lcidtoname_downlevel.obj
 0002:00005330       ??_C@_1M@FOPBFLOO@?$AAg?$AAu?$AA?9?$AAi?$AAn?$AA?$AA@ 1003b330     libucrt:lcidtoname_downlevel.obj
 0002:0000533c       ??_C@_1M@KBMCINPM@?$AAh?$AAe?$AA?9?$AAi?$AAl?$AA?$AA@ 1003b33c     libucrt:lcidtoname_downlevel.obj
 0002:00005348       ??_C@_1M@BBPHKFPJ@?$AAh?$AAi?$AA?9?$AAi?$AAn?$AA?$AA@ 1003b348     libucrt:lcidtoname_downlevel.obj
 0002:00005354       ??_C@_1M@PMBNDPHD@?$AAh?$AAr?$AA?9?$AAb?$AAa?$AA?$AA@ 1003b354     libucrt:lcidtoname_downlevel.obj
 0002:00005360       ??_C@_1M@BPCKOEGE@?$AAh?$AAr?$AA?9?$AAh?$AAr?$AA?$AA@ 1003b360     libucrt:lcidtoname_downlevel.obj
 0002:0000536c       ??_C@_1M@GACBMHKE@?$AAh?$AAu?$AA?9?$AAh?$AAu?$AA?$AA@ 1003b36c     libucrt:lcidtoname_downlevel.obj
 0002:00005378       ??_C@_1M@MILPAJJC@?$AAh?$AAy?$AA?9?$AAa?$AAm?$AA?$AA@ 1003b378     libucrt:lcidtoname_downlevel.obj
 0002:00005384       ??_C@_1M@BABBICEC@?$AAi?$AAd?$AA?9?$AAi?$AAd?$AA?$AA@ 1003b384     libucrt:lcidtoname_downlevel.obj
 0002:00005390       ??_C@_1M@BIKNHHPF@?$AAi?$AAs?$AA?9?$AAi?$AAs?$AA?$AA@ 1003b390     libucrt:lcidtoname_downlevel.obj
 0002:0000539c       ??_C@_1M@NMPCJPHE@?$AAi?$AAt?$AA?9?$AAc?$AAh?$AA?$AA@ 1003b39c     libucrt:lcidtoname_downlevel.obj
 0002:000053a8       ??_C@_1M@GHKGFEDF@?$AAi?$AAt?$AA?9?$AAi?$AAt?$AA?$AA@ 1003b3a8     libucrt:lcidtoname_downlevel.obj
 0002:000053b4       ??_C@_1M@NIEJCJJA@?$AAj?$AAa?$AA?9?$AAj?$AAp?$AA?$AA@ 1003b3b4     libucrt:lcidtoname_downlevel.obj
 0002:000053c0       ??_C@_1M@JILFNBIM@?$AAk?$AAa?$AA?9?$AAg?$AAe?$AA?$AA@ 1003b3c0     libucrt:lcidtoname_downlevel.obj
 0002:000053cc       ??_C@_1M@PACPMGPH@?$AAk?$AAk?$AA?9?$AAk?$AAz?$AA?$AA@ 1003b3cc     libucrt:lcidtoname_downlevel.obj
 0002:000053d8       ??_C@_1M@IELFGMHA@?$AAk?$AAn?$AA?9?$AAi?$AAn?$AA?$AA@ 1003b3d8     libucrt:lcidtoname_downlevel.obj
 0002:000053e4       ??_C@_1O@IBBJHCH@?$AAk?$AAo?$AAk?$AA?9?$AAi?$AAn?$AA?$AA@ 1003b3e4     libucrt:lcidtoname_downlevel.obj
 0002:000053f4       ??_C@_1M@DMHAEOGC@?$AAk?$AAo?$AA?9?$AAk?$AAr?$AA?$AA@ 1003b3f4     libucrt:lcidtoname_downlevel.obj
 0002:00005400       ??_C@_1M@HBAHBIGA@?$AAk?$AAy?$AA?9?$AAk?$AAg?$AA?$AA@ 1003b400     libucrt:lcidtoname_downlevel.obj
 0002:0000540c       ??_C@_1M@KPMILCJG@?$AAl?$AAt?$AA?9?$AAl?$AAt?$AA?$AA@ 1003b40c     libucrt:lcidtoname_downlevel.obj
 0002:00005418       ??_C@_1M@BDEKKCA@?$AAl?$AAv?$AA?9?$AAl?$AAv?$AA?$AA@ 1003b418     libucrt:lcidtoname_downlevel.obj
 0002:00005424       ??_C@_1M@ELCKCCJJ@?$AAm?$AAi?$AA?9?$AAn?$AAz?$AA?$AA@ 1003b424     libucrt:lcidtoname_downlevel.obj
 0002:00005430       ??_C@_1M@CBOOLAPA@?$AAm?$AAk?$AA?9?$AAm?$AAk?$AA?$AA@ 1003b430     libucrt:lcidtoname_downlevel.obj
 0002:0000543c       ??_C@_1M@GPHNBJKN@?$AAm?$AAl?$AA?9?$AAi?$AAn?$AA?$AA@ 1003b43c     libucrt:lcidtoname_downlevel.obj
 0002:00005448       ??_C@_1M@PABJILIG@?$AAm?$AAn?$AA?9?$AAm?$AAn?$AA?$AA@ 1003b448     libucrt:lcidtoname_downlevel.obj
 0002:00005454       ??_C@_1M@FGBKKIPG@?$AAm?$AAr?$AA?9?$AAi?$AAn?$AA?$AA@ 1003b454     libucrt:lcidtoname_downlevel.obj
 0002:00005460       ??_C@_1M@NDBPDDAL@?$AAm?$AAs?$AA?9?$AAb?$AAn?$AA?$AA@ 1003b460     libucrt:lcidtoname_downlevel.obj
 0002:0000546c       ??_C@_1M@OPIHOOPI@?$AAm?$AAs?$AA?9?$AAm?$AAy?$AA?$AA@ 1003b46c     libucrt:lcidtoname_downlevel.obj
 0002:00005478       ??_C@_1M@PPDBCNFM@?$AAm?$AAt?$AA?9?$AAm?$AAt?$AA?$AA@ 1003b478     libucrt:lcidtoname_downlevel.obj
 0002:00005484       ??_C@_1M@KDJDKMDD@?$AAn?$AAb?$AA?9?$AAn?$AAo?$AA?$AA@ 1003b484     libucrt:lcidtoname_downlevel.obj
 0002:00005490       ??_C@_1M@KFCFLMJP@?$AAn?$AAl?$AA?9?$AAb?$AAe?$AA?$AA@ 1003b490     libucrt:lcidtoname_downlevel.obj
 0002:0000549c       ??_C@_1M@KPOPDDGO@?$AAn?$AAl?$AA?9?$AAn?$AAl?$AA?$AA@ 1003b49c     libucrt:lcidtoname_downlevel.obj
 0002:000054a8       ??_C@_1M@LJKPEMLN@?$AAn?$AAn?$AA?9?$AAn?$AAo?$AA?$AA@ 1003b4a8     libucrt:lcidtoname_downlevel.obj
 0002:000054b4       ??_C@_1M@BDGHHBFL@?$AAn?$AAs?$AA?9?$AAz?$AAa?$AA?$AA@ 1003b4b4     libucrt:lcidtoname_downlevel.obj
 0002:000054c0       ??_C@_1M@IDEHOAP@?$AAp?$AAa?$AA?9?$AAi?$AAn?$AA?$AA@ 1003b4c0     libucrt:lcidtoname_downlevel.obj
 0002:000054cc       ??_C@_1M@HDBKGOGH@?$AAp?$AAl?$AA?9?$AAp?$AAl?$AA?$AA@ 1003b4cc     libucrt:lcidtoname_downlevel.obj
 0002:000054d8       ??_C@_1M@LJLLCMEH@?$AAp?$AAt?$AA?9?$AAb?$AAr?$AA?$AA@ 1003b4d8     libucrt:lcidtoname_downlevel.obj
 0002:000054e4       ??_C@_1M@NCMONAAL@?$AAp?$AAt?$AA?9?$AAp?$AAt?$AA?$AA@ 1003b4e4     libucrt:lcidtoname_downlevel.obj
 0002:000054f0       ??_C@_1O@EAKMAJDN@?$AAq?$AAu?$AAz?$AA?9?$AAb?$AAo?$AA?$AA@ 1003b4f0     libucrt:lcidtoname_downlevel.obj
 0002:00005500       ??_C@_1O@BHHPIGDN@?$AAq?$AAu?$AAz?$AA?9?$AAe?$AAc?$AA?$AA@ 1003b500     libucrt:lcidtoname_downlevel.obj
 0002:00005510       ??_C@_1O@GBAPEKMJ@?$AAq?$AAu?$AAz?$AA?9?$AAp?$AAe?$AA?$AA@ 1003b510     libucrt:lcidtoname_downlevel.obj
 0002:00005520       ??_C@_1M@CLGLEFBO@?$AAr?$AAo?$AA?9?$AAr?$AAo?$AA?$AA@ 1003b520     libucrt:lcidtoname_downlevel.obj
 0002:0000552c       ??_C@_1M@CEEDODME@?$AAr?$AAu?$AA?9?$AAr?$AAu?$AA?$AA@ 1003b52c     libucrt:lcidtoname_downlevel.obj
 0002:00005538       ??_C@_1M@HPKKKMPP@?$AAs?$AAa?$AA?9?$AAi?$AAn?$AA?$AA@ 1003b538     libucrt:lcidtoname_downlevel.obj
 0002:00005544       ??_C@_1M@BKMAIGOJ@?$AAs?$AAe?$AA?9?$AAf?$AAi?$AA?$AA@ 1003b544     libucrt:lcidtoname_downlevel.obj
 0002:00005550       ??_C@_1M@NDPIFLFI@?$AAs?$AAe?$AA?9?$AAn?$AAo?$AA?$AA@ 1003b550     libucrt:lcidtoname_downlevel.obj
 0002:0000555c       ??_C@_1M@DANKKHJ@?$AAs?$AAe?$AA?9?$AAs?$AAe?$AA?$AA@ 1003b55c     libucrt:lcidtoname_downlevel.obj
 0002:00005568       ??_C@_1M@PNBLONPJ@?$AAs?$AAk?$AA?9?$AAs?$AAk?$AA?$AA@ 1003b568     libucrt:lcidtoname_downlevel.obj
 0002:00005574       ??_C@_1M@LFMODOAL@?$AAs?$AAl?$AA?9?$AAs?$AAi?$AA?$AA@ 1003b574     libucrt:lcidtoname_downlevel.obj
 0002:00005580       ??_C@_1O@DFKOMPG@?$AAs?$AAm?$AAa?$AA?9?$AAn?$AAo?$AA?$AA@ 1003b580     libucrt:lcidtoname_downlevel.obj
 0002:00005590       ??_C@_1O@NDKPBNNH@?$AAs?$AAm?$AAa?$AA?9?$AAs?$AAe?$AA?$AA@ 1003b590     libucrt:lcidtoname_downlevel.obj
 0002:000055a0       ??_C@_1O@PLLKBHAB@?$AAs?$AAm?$AAj?$AA?9?$AAn?$AAo?$AA?$AA@ 1003b5a0     libucrt:lcidtoname_downlevel.obj
 0002:000055b0       ??_C@_1O@CLEPOGCA@?$AAs?$AAm?$AAj?$AA?9?$AAs?$AAe?$AA?$AA@ 1003b5b0     libucrt:lcidtoname_downlevel.obj
 0002:000055c0       ??_C@_1O@DLGJGKMK@?$AAs?$AAm?$AAn?$AA?9?$AAf?$AAi?$AA?$AA@ 1003b5c0     libucrt:lcidtoname_downlevel.obj
 0002:000055d0       ??_C@_1O@OJDJGAJC@?$AAs?$AAm?$AAs?$AA?9?$AAf?$AAi?$AA?$AA@ 1003b5d0     libucrt:lcidtoname_downlevel.obj
 0002:000055e0       ??_C@_1M@BOFOGHPB@?$AAs?$AAq?$AA?9?$AAa?$AAl?$AA?$AA@ 1003b5e0     libucrt:lcidtoname_downlevel.obj
 0002:000055ec       ??_C@_1BG@LJBBIPGB@?$AAs?$AAr?$AA?9?$AAb?$AAa?$AA?9?$AAc?$AAy?$AAr?$AAl?$AA?$AA@ 1003b5ec     libucrt:lcidtoname_downlevel.obj
 0002:00005604       ??_C@_1BG@JLBENFOE@?$AAs?$AAr?$AA?9?$AAb?$AAa?$AA?9?$AAl?$AAa?$AAt?$AAn?$AA?$AA@ 1003b604     libucrt:lcidtoname_downlevel.obj
 0002:0000561c       ??_C@_1BG@KODPNHE@?$AAs?$AAr?$AA?9?$AAs?$AAp?$AA?9?$AAc?$AAy?$AAr?$AAl?$AA?$AA@ 1003b61c     libucrt:lcidtoname_downlevel.obj
 0002:00005634       ??_C@_1BG@CIOGKHPB@?$AAs?$AAr?$AA?9?$AAs?$AAp?$AA?9?$AAl?$AAa?$AAt?$AAn?$AA?$AA@ 1003b634     libucrt:lcidtoname_downlevel.obj
 0002:0000564c       ??_C@_1M@NGFJLMAC@?$AAs?$AAv?$AA?9?$AAf?$AAi?$AA?$AA@ 1003b64c     libucrt:lcidtoname_downlevel.obj
 0002:00005658       ??_C@_1M@MPJEJAJC@?$AAs?$AAv?$AA?9?$AAs?$AAe?$AA?$AA@ 1003b658     libucrt:lcidtoname_downlevel.obj
 0002:00005664       ??_C@_1M@MPNDHLFK@?$AAs?$AAw?$AA?9?$AAk?$AAe?$AA?$AA@ 1003b664     libucrt:lcidtoname_downlevel.obj
 0002:00005670       ??_C@_1O@KOHBJJI@?$AAs?$AAy?$AAr?$AA?9?$AAs?$AAy?$AA?$AA@ 1003b670     libucrt:lcidtoname_downlevel.obj
 0002:00005680       ??_C@_1M@LDCEFHA@?$AAt?$AAa?$AA?9?$AAi?$AAn?$AA?$AA@ 1003b680     libucrt:lcidtoname_downlevel.obj
 0002:0000568c       ??_C@_1M@CNJOFAK@?$AAt?$AAe?$AA?9?$AAi?$AAn?$AA?$AA@ 1003b68c     libucrt:lcidtoname_downlevel.obj
 0002:00005698       ??_C@_1M@GNAECACD@?$AAt?$AAh?$AA?9?$AAt?$AAh?$AA?$AA@ 1003b698     libucrt:lcidtoname_downlevel.obj
 0002:000056a4       ??_C@_1M@CHBIHOJO@?$AAt?$AAn?$AA?9?$AAz?$AAa?$AA?$AA@ 1003b6a4     libucrt:lcidtoname_downlevel.obj
 0002:000056b0       ??_C@_1M@GCCMIGPJ@?$AAt?$AAr?$AA?9?$AAt?$AAr?$AA?$AA@ 1003b6b0     libucrt:lcidtoname_downlevel.obj
 0002:000056bc       ??_C@_1M@CELMCNBK@?$AAt?$AAt?$AA?9?$AAr?$AAu?$AA?$AA@ 1003b6bc     libucrt:lcidtoname_downlevel.obj
 0002:000056c8       ??_C@_1M@KLMCELGA@?$AAu?$AAk?$AA?9?$AAu?$AAa?$AA?$AA@ 1003b6c8     libucrt:lcidtoname_downlevel.obj
 0002:000056d4       ??_C@_1M@EPAJJAJF@?$AAu?$AAr?$AA?9?$AAp?$AAk?$AA?$AA@ 1003b6d4     libucrt:lcidtoname_downlevel.obj
 0002:000056e0       ??_C@_1BG@GEGPMCDJ@?$AAu?$AAz?$AA?9?$AAu?$AAz?$AA?9?$AAc?$AAy?$AAr?$AAl?$AA?$AA@ 1003b6e0     libucrt:lcidtoname_downlevel.obj
 0002:000056f8       ??_C@_1BG@EGGKJILM@?$AAu?$AAz?$AA?9?$AAu?$AAz?$AA?9?$AAl?$AAa?$AAt?$AAn?$AA?$AA@ 1003b6f8     libucrt:lcidtoname_downlevel.obj
 0002:00005710       ??_C@_1M@GFOCLFF@?$AAv?$AAi?$AA?9?$AAv?$AAn?$AA?$AA@ 1003b710     libucrt:lcidtoname_downlevel.obj
 0002:0000571c       ??_C@_1M@CPAMEDFI@?$AAx?$AAh?$AA?9?$AAz?$AAa?$AA?$AA@ 1003b71c     libucrt:lcidtoname_downlevel.obj
 0002:00005728       ??_C@_1O@EBKIFIGN@?$AAz?$AAh?$AA?9?$AAc?$AAh?$AAs?$AA?$AA@ 1003b728     libucrt:lcidtoname_downlevel.obj
 0002:00005738       ??_C@_1O@NMHPGANE@?$AAz?$AAh?$AA?9?$AAc?$AAh?$AAt?$AA?$AA@ 1003b738     libucrt:lcidtoname_downlevel.obj
 0002:00005748       ??_C@_1M@LPINJOMC@?$AAz?$AAh?$AA?9?$AAc?$AAn?$AA?$AA@ 1003b748     libucrt:lcidtoname_downlevel.obj
 0002:00005754       ??_C@_1M@OCJEJODD@?$AAz?$AAh?$AA?9?$AAh?$AAk?$AA?$AA@ 1003b754     libucrt:lcidtoname_downlevel.obj
 0002:00005760       ??_C@_1M@DNDLJINH@?$AAz?$AAh?$AA?9?$AAm?$AAo?$AA?$AA@ 1003b760     libucrt:lcidtoname_downlevel.obj
 0002:0000576c       ??_C@_1M@MBFDNDND@?$AAz?$AAh?$AA?9?$AAs?$AAg?$AA?$AA@ 1003b76c     libucrt:lcidtoname_downlevel.obj
 0002:00005778       ??_C@_1M@IMEPLEPE@?$AAz?$AAh?$AA?9?$AAt?$AAw?$AA?$AA@ 1003b778     libucrt:lcidtoname_downlevel.obj
 0002:00005784       ??_C@_1M@BBGHNHJP@?$AAz?$AAu?$AA?9?$AAz?$AAa?$AA?$AA@ 1003b784     libucrt:lcidtoname_downlevel.obj
 0002:000058f0       __infinity                 1003b8f0     libucrt:87tran.obj
 0002:000058fa       __minfinity                1003b8fa     libucrt:87tran.obj
 0002:00005904       __logemax                  1003b904     libucrt:87tran.obj
 0002:0000592a       __OP_EXPjmptab             1003b92a     libucrt:87tran.obj
 0002:00005950       __indefinite               1003b950     libucrt:87disp.obj
 0002:0000595a       __piby2                    1003b95a     libucrt:87disp.obj
 0002:00005964       __piby4                    1003b964     libucrt:87disp.obj
 0002:00005998       __DEFAULT_CW_in_mem        1003b998     libucrt:common.obj
 0002:0000599a       __pi_by_2_to_61            1003b99a     libucrt:common.obj
 0002:000059d4       ??_C@_03MGHMBJCF@log?$AA@  1003b9d4     libucrt:libm_error.obj
 0002:000059d8       ??_C@_05HGHHAHAP@log10?$AA@ 1003b9d8     libucrt:libm_error.obj
 0002:000059e0       ??_C@_03KHJOGHMM@exp?$AA@  1003b9e0     libucrt:libm_error.obj
 0002:000059e4       ??_C@_03JGHBODFD@pow?$AA@  1003b9e4     libucrt:libm_error.obj
 0002:000059e8       ??_C@_04FIHNOPOL@asin?$AA@ 1003b9e8     libucrt:libm_error.obj
 0002:000059f0       ??_C@_04PDIFKINK@acos?$AA@ 1003b9f0     libucrt:libm_error.obj
 0002:000059f8       ??_C@_04EIAKFFMI@sqrt?$AA@ 1003b9f8     libucrt:libm_error.obj
 0002:00005a00       ??_C@_1BA@BALFACEM@?$AAC?$AAO?$AAN?$AAO?$AAU?$AAT?$AA$?$AA?$AA@ 1003ba00     libucrt:initcon.obj
 0002:00005a30       ___acrt_log10_table_t      1003ba30     libucrt:log10_tables.obj
 0002:00005e40       ___acrt_log10_table_cb     1003be40     libucrt:log10_tables.obj
 0002:00006250       __real@3fe0000000000000    1003c250     libucrt:powhlp.obj
 0002:00006258       ??_C@_04FJHINJAO@tanh?$AA@ 1003c258     libucrt:fpexcept.obj
 0002:00006260       ??_C@_04MLLJIGOK@atan?$AA@ 1003c260     libucrt:fpexcept.obj
 0002:00006268       ??_C@_05KNGEOGJB@atan2?$AA@ 1003c268     libucrt:fpexcept.obj
 0002:00006270       ??_C@_03BLEJJJBH@sin?$AA@  1003c270     libucrt:fpexcept.obj
 0002:00006274       ??_C@_03LALBNOCG@cos?$AA@  1003c274     libucrt:fpexcept.obj
 0002:00006278       ??_C@_03IIINPABG@tan?$AA@  1003c278     libucrt:fpexcept.obj
 0002:0000627c       ??_C@_04GFPJNGEK@ceil?$AA@ 1003c27c     libucrt:fpexcept.obj
 0002:00006284       ??_C@_05PBJFFIGL@floor?$AA@ 1003c284     libucrt:fpexcept.obj
 0002:0000628c       ??_C@_04ODHECPBC@fabs?$AA@ 1003c28c     libucrt:fpexcept.obj
 0002:00006294       ??_C@_04EHEDPDJG@modf?$AA@ 1003c294     libucrt:fpexcept.obj
 0002:0000629c       ??_C@_05CEJMAHNP@ldexp?$AA@ 1003c29c     libucrt:fpexcept.obj
 0002:000062a4       ??_C@_05KBKMEMPO@_cabs?$AA@ 1003c2a4     libucrt:fpexcept.obj
 0002:000062ac       ??_C@_06MEIMCGCF@_hypot?$AA@ 1003c2ac     libucrt:fpexcept.obj
 0002:000062b4       ??_C@_04KEPJIHGP@fmod?$AA@ 1003c2b4     libucrt:fpexcept.obj
 0002:000062bc       ??_C@_05GKKHEGJL@frexp?$AA@ 1003c2bc     libucrt:fpexcept.obj
 0002:000062c4       ??_C@_03MJLDFKDL@_y0?$AA@  1003c2c4     libucrt:fpexcept.obj
 0002:000062c8       ??_C@_03NAKIGLHK@_y1?$AA@  1003c2c8     libucrt:fpexcept.obj
 0002:000062cc       ??_C@_03ONILCKOB@_yn?$AA@  1003c2cc     libucrt:fpexcept.obj
 0002:000062d0       ??_C@_05JGDBENOH@_logb?$AA@ 1003c2d0     libucrt:fpexcept.obj
 0002:000062d8       ??_C@_0L@KDOEJCKC@_nextafter?$AA@ 1003c2d8     libucrt:fpexcept.obj
 0002:000063d0       ??_C@_04COOMCNPB@sinh?$AA@ 1003c3d0     libucrt:fpexcept.obj
 0002:000063d8       ??_C@_04HPJJNFIM@cosh?$AA@ 1003c3d8     libucrt:fpexcept.obj
 0002:000063e0       __d_inf                    1003c3e0     libucrt:util.obj
 0002:000063e8       __d_max                    1003c3e8     libucrt:util.obj
 0002:000063f0       __d_mzero                  1003c3f0     libucrt:util.obj
 0002:000063f8       ??_C@_1BK@MGMFAEKH@?$AAk?$AAe?$AAr?$AAn?$AAe?$AAl?$AA3?$AA2?$AA?4?$AAd?$AAl?$AAl?$AA?$AA@ 1003c3f8     LIBCMT:thread_safe_statics.obj
 0002:00006414       ??_C@_0BM@HLJJNPAH@InitializeConditionVariable?$AA@ 1003c414     LIBCMT:thread_safe_statics.obj
 0002:00006430       ??_C@_0BJ@JEBJOJFJ@SleepConditionVariableCS?$AA@ 1003c430     LIBCMT:thread_safe_statics.obj
 0002:0000644c       ??_C@_0BJ@PGPPEPCC@WakeAllConditionVariable?$AA@ 1003c44c     LIBCMT:thread_safe_statics.obj
 0002:0000746c       ??_C@_0BE@JONHPENG@map?1set?$DMT?$DO?5too?5long?$AA@ 1003d46c     ILuaModuleManager.obj
 0002:00007480       ??_C@_0BC@EOODALEL@Unknown?5exception?$AA@ 1003d480     main.obj
 0002:00007494       ??_C@_0CM@DGIADEHE@could?5not?5convert?5calendar?5time?5@ 1003d494     main.obj
 0002:000074c0       ??_C@_0CJ@PIMMHAJE@Day?5of?5month?5value?5is?5out?5of?5ran@ 1003d4c0     main.obj
 0002:000074ec       ??_C@_0CI@JOBANGKK@Year?5is?5out?5of?5valid?5range?3?51400@ 1003d4ec     main.obj
 0002:00007514       ??_C@_0CD@FBNLMBFL@Month?5number?5is?5out?5of?5range?51?4?4@ 1003d514     main.obj
 0002:00007538       ??_C@_0CD@EKHKOMOM@Day?5of?5month?5is?5not?5valid?5for?5ye@ 1003d538     main.obj
 0002:0000755c       ??_C@_0P@CDHHOHKP@GetTickCount64?$AA@ 1003d55c     main.obj
 0002:0000756c       ??_C@_0N@NHGLKGEC@KERNEL32?4DLL?$AA@ 1003d56c     main.obj
 0002:0000757c       ??_C@_0BA@JFNIOLAK@string?5too?5long?$AA@ 1003d57c     main.obj
 0002:0000758c       ??_C@_0BI@CFPLBAOH@invalid?5string?5position?$AA@ 1003d58c     main.obj
 0002:000075a4       ??_8?$clone_impl@U?$error_info_injector@Ubad_month@gregorian@boost@@@exception_detail@boost@@@exception_detail@boost@@7B@ 1003d5a4     main.obj
 0002:000075a4       ??_8?$clone_impl@U?$error_info_injector@Vbad_alloc@std@@@exception_detail@boost@@@exception_detail@boost@@7B@ 1003d5a4     nav.obj
 0002:000075a4       ??_8?$clone_impl@U?$error_info_injector@Ubad_year@gregorian@boost@@@exception_detail@boost@@@exception_detail@boost@@7B@ 1003d5a4     main.obj
 0002:000075a4       ??_8?$clone_impl@U?$error_info_injector@Ubad_day_of_month@gregorian@boost@@@exception_detail@boost@@@exception_detail@boost@@7B@ 1003d5a4     main.obj
 0002:000075a4       ??_8?$clone_impl@U?$error_info_injector@Vruntime_error@std@@@exception_detail@boost@@@exception_detail@boost@@7B@ 1003d5a4     main.obj
 0002:000075ac       ??_8?$clone_impl@U?$error_info_injector@Vthread_resource_error@boost@@@exception_detail@boost@@@exception_detail@boost@@7B@ 1003d5ac     nav.obj
 0002:000075b8       ??_7GMOD_TraceFilter@@6B@  1003d5b8     nav.obj
 0002:000075c4       ??_7?$thread_data@V?$bind_t@XV?$mf1@XVNav@@PA_N@_mfi@boost@@V?$list2@V?$value@PAVNav@@@_bi@boost@@V?$value@PA_N@23@@_bi@3@@_bi@boost@@@detail@boost@@6B@ 1003d5c4     nav.obj
 0002:000075d0       ?npos@?$basic_string@DU?$char_traits@D@std@@V?$allocator@D@2@@std@@2IB 1003d5d0     nav.obj
 0002:000075d8       ??_7CTraceFilter@@6B@      1003d5d8     nav.obj
 0002:000075e4       ??_7?$thread_data@V?$bind_t@XV?$mf3@XVNav@@PAUJobInfo_t@@PAVNode@@PAV3@@_mfi@boost@@V?$list4@V?$value@PAVNav@@@_bi@boost@@V?$value@PAUJobInfo_t@@@23@V?$value@PAVNode@@@23@V523@@_bi@3@@_bi@boost@@@detail@boost@@6B@ 1003d5e4     nav.obj
 0002:000075f4       ??_7ITraceFilter@@6B@      1003d5f4     nav.obj
 0002:000075fc       ??_C@_0P@GHFPNOJB@bad?5allocation?$AA@ 1003d5fc     nav.obj
 0002:0000760c       ??_C@_02LMMGGCAJ@?3?5?$AA@ 1003d60c     nav.obj
 0002:00007610       ??_C@_0BN@BEPNICCK@boost?3?3thread_resource_error?$AA@ 1003d610     nav.obj
 0002:00007630       ??_C@_0BD@OLBABOEK@vector?$DMT?$DO?5too?5long?$AA@ 1003d630     nav.obj
 0002:00007644       __real@00000000            1003d644     nav.obj
 0002:00007648       __real@0000000000000000    1003d648     kdtree.obj
 0002:00007650       __real@3c23d70a            1003d650     nav.obj
 0002:00007654       __real@3dcccccd            1003d654     nav.obj
 0002:00007658       __real@3eb0c6f7a0b5ed8d    1003d658     nav.obj
 0002:00007660       __real@3ee66666            1003d660     nav.obj
 0002:00007664       __real@3f000000            1003d664     nav.obj
 0002:00007668       __real@3f800000            1003d668     nav.obj
 0002:00007670       __real@3fe4cccccccccccd    1003d670     nav.obj
 0002:00007678       __real@3ff0000000000000    1003d678     main.obj
 0002:00007680       __real@40000000            1003d680     nav.obj
 0002:00007688       __real@4000000000000000    1003d688     main.obj
 0002:00007690       __real@4008000000000000    1003d690     main.obj
 0002:00007698       __real@4010000000000000    1003d698     main.obj
 0002:000076a0       __real@4014000000000000    1003d6a0     main.obj
 0002:000076a8       __real@4018000000000000    1003d6a8     main.obj
 0002:000076b0       __real@401c000000000000    1003d6b0     main.obj
 0002:000076b8       __real@4020000000000000    1003d6b8     main.obj
 0002:000076c0       __real@4022000000000000    1003d6c0     main.obj
 0002:000076c8       __real@4024000000000000    1003d6c8     main.obj
 0002:000076d0       __real@4026000000000000    1003d6d0     main.obj
 0002:000076d8       __real@4028000000000000    1003d6d8     main.obj
 0002:000076e0       __real@402a000000000000    1003d6e0     main.obj
 0002:000076e8       __real@402c000000000000    1003d6e8     main.obj
 0002:000076f0       __real@41200000            1003d6f0     nav.obj
 0002:000076f4       __real@41f00000            1003d6f4     nav.obj
 0002:000076f8       __real@42900000            1003d6f8     nav.obj
 0002:000076fc       __real@42c80000            1003d6fc     nav.obj
 0002:00007700       __real@461c3f9a            1003d700     nav.obj
 0002:00007704       __real@7f7fffff            1003d704     ILuaInterface.obj
 0002:00007708       __real@bf800000            1003d708     nav.obj
 0002:00007710       __real@bff0000000000000    1003d710     kdtree.obj
 0002:00007720       __xmm@7fffffffffffffff7fffffffffffffff 1003d720     ILuaInterface.obj
 0002:00007730       __xmm@80000000800000008000000080000000 1003d730     nav.obj
 0002:00007804       __half                     1003d804     libucrt:pow.obj
 0002:00007810       ___acrt_pow_rcp_t1         1003d810     libucrt:pow_tables.obj
 0002:00007c20       ___acrt_pow_log2_t1        1003dc20     libucrt:pow_tables.obj
 0002:00008430       ___acrt_pow_rcp_t2         1003e430     libucrt:pow_tables.obj
 0002:00008840       ___acrt_pow_log2_t2        1003e840     libucrt:pow_tables.obj
 0002:00009050       ___acrt_pow_rcp_t3         1003f050     libucrt:pow_tables.obj
 0002:00009860       ___acrt_pow_log2_t3        1003f860     libucrt:pow_tables.obj
 0002:0000a870       ___acrt_pow_clv            10040870     libucrt:pow_tables.obj
 0002:0000a890       ___acrt_pow_exp2_tbl       10040890     libucrt:pow_tables.obj
 0002:0000b1d0       __load_config_used         100411d0     LIBCMT:loadcfg.obj
 0002:0000b22c       __tls_used                 1004122c     LIBCMT:tlssup.obj
 0002:0000b244       ??_R4length_error@std@@6B@ 10041244     libcpmt:xthrow.obj
 0002:0000b258       ??_R3length_error@std@@8   10041258     libcpmt:xthrow.obj
 0002:0000b268       ??_R2length_error@std@@8   10041268     libcpmt:xthrow.obj
 0002:0000b278       ??_R1A@?0A@EA@length_error@std@@8 10041278     libcpmt:xthrow.obj
 0002:0000b294       ??_R4type_info@@6B@        10041294     LIBCMT:std_type_info_static.obj
 0002:0000b2a8       ??_R3type_info@@8          100412a8     LIBCMT:std_type_info_static.obj
 0002:0000b2b8       ??_R2type_info@@8          100412b8     LIBCMT:std_type_info_static.obj
 0002:0000b2c0       ??_R1A@?0A@EA@type_info@@8 100412c0     LIBCMT:std_type_info_static.obj
 0002:0000b2dc       ??_R4bad_array_new_length@std@@6B@ 100412dc     LIBCMT:throw_bad_alloc.obj
 0002:0000b2f0       ??_R3bad_array_new_length@std@@8 100412f0     LIBCMT:throw_bad_alloc.obj
 0002:0000b300       ??_R2bad_array_new_length@std@@8 10041300     LIBCMT:throw_bad_alloc.obj
 0002:0000b310       ??_R1A@?0A@EA@bad_array_new_length@std@@8 10041310     LIBCMT:throw_bad_alloc.obj
 0002:0000b32c       ??_R4bad_exception@std@@6B@ 1004132c     libboost_thread-vc140-mt-s-1_60:thread.obj
 0002:0000b340       ??_R3bad_exception@std@@8  10041340     libboost_thread-vc140-mt-s-1_60:thread.obj
 0002:0000b350       ??_R2bad_exception@std@@8  10041350     libboost_thread-vc140-mt-s-1_60:thread.obj
 0002:0000b35c       ??_R1A@?0A@EA@bad_exception@std@@8 1004135c     libboost_thread-vc140-mt-s-1_60:thread.obj
 0002:0000b378       ??_R4sp_counted_base@detail@boost@@6B@ 10041378     libboost_thread-vc140-mt-s-1_60:thread.obj
 0002:0000b38c       ??_R3sp_counted_base@detail@boost@@8 1004138c     libboost_thread-vc140-mt-s-1_60:thread.obj
 0002:0000b39c       ??_R2sp_counted_base@detail@boost@@8 1004139c     libboost_thread-vc140-mt-s-1_60:thread.obj
 0002:0000b3a4       ??_R1A@?0A@EA@sp_counted_base@detail@boost@@8 100413a4     libboost_thread-vc140-mt-s-1_60:thread.obj
 0002:0000b3c0       ??_R4lock_error@boost@@6B@ 100413c0     libboost_thread-vc140-mt-s-1_60:thread.obj
 0002:0000b3d4       ??_R3lock_error@boost@@8   100413d4     libboost_thread-vc140-mt-s-1_60:thread.obj
 0002:0000b3e4       ??_R2lock_error@boost@@8   100413e4     libboost_thread-vc140-mt-s-1_60:thread.obj
 0002:0000b3fc       ??_R1A@?0A@EA@lock_error@boost@@8 100413fc     libboost_thread-vc140-mt-s-1_60:thread.obj
 0002:0000b418       ??_R4bad_alloc_@exception_detail@boost@@6Bexception@2@@ 10041418     libboost_thread-vc140-mt-s-1_60:thread.obj
 0002:0000b42c       ??_R3bad_alloc_@exception_detail@boost@@8 1004142c     libboost_thread-vc140-mt-s-1_60:thread.obj
 0002:0000b43c       ??_R2bad_alloc_@exception_detail@boost@@8 1004143c     libboost_thread-vc140-mt-s-1_60:thread.obj
 0002:0000b450       ??_R1A@?0A@EA@bad_alloc_@exception_detail@boost@@8 10041450     libboost_thread-vc140-mt-s-1_60:thread.obj
 0002:0000b46c       ??_R1BE@?0A@EA@bad_alloc@std@@8 1004146c     libboost_thread-vc140-mt-s-1_60:thread.obj
 0002:0000b488       ??_R1BE@?0A@EA@exception@std@@8 10041488     libboost_thread-vc140-mt-s-1_60:thread.obj
 0002:0000b4a4       ??_R4bad_alloc_@exception_detail@boost@@6Bbad_alloc@std@@@ 100414a4     libboost_thread-vc140-mt-s-1_60:thread.obj
 0002:0000b4b8       ??_R4bad_exception_@exception_detail@boost@@6Bexception@2@@ 100414b8     libboost_thread-vc140-mt-s-1_60:thread.obj
 0002:0000b4cc       ??_R3bad_exception_@exception_detail@boost@@8 100414cc     libboost_thread-vc140-mt-s-1_60:thread.obj
 0002:0000b4dc       ??_R2bad_exception_@exception_detail@boost@@8 100414dc     libboost_thread-vc140-mt-s-1_60:thread.obj
 0002:0000b4f0       ??_R1A@?0A@EA@bad_exception_@exception_detail@boost@@8 100414f0     libboost_thread-vc140-mt-s-1_60:thread.obj
 0002:0000b50c       ??_R1BE@?0A@EA@bad_exception@std@@8 1004150c     libboost_thread-vc140-mt-s-1_60:thread.obj
 0002:0000b528       ??_R4bad_exception_@exception_detail@boost@@6Bbad_exception@std@@@ 10041528     libboost_thread-vc140-mt-s-1_60:thread.obj
 0002:0000b53c       ??_R4?$error_info_injector@Vlock_error@boost@@@exception_detail@boost@@6Block_error@2@@ 1004153c     libboost_thread-vc140-mt-s-1_60:thread.obj
 0002:0000b550       ??_R3?$error_info_injector@Vlock_error@boost@@@exception_detail@boost@@8 10041550     libboost_thread-vc140-mt-s-1_60:thread.obj
 0002:0000b560       ??_R2?$error_info_injector@Vlock_error@boost@@@exception_detail@boost@@8 10041560     libboost_thread-vc140-mt-s-1_60:thread.obj
 0002:0000b580       ??_R1A@?0A@EA@?$error_info_injector@Vlock_error@boost@@@exception_detail@boost@@8 10041580     libboost_thread-vc140-mt-s-1_60:thread.obj
 0002:0000b59c       ??_R4?$error_info_injector@Vlock_error@boost@@@exception_detail@boost@@6Bexception@2@@ 1004159c     libboost_thread-vc140-mt-s-1_60:thread.obj
 0002:0000b5b0       ??_R4?$clone_impl@U?$error_info_injector@Vlock_error@boost@@@exception_detail@boost@@@exception_detail@boost@@6Block_error@2@@ 100415b0     libboost_thread-vc140-mt-s-1_60:thread.obj
 0002:0000b5c4       ??_R3?$clone_impl@U?$error_info_injector@Vlock_error@boost@@@exception_detail@boost@@@exception_detail@boost@@8 100415c4     libboost_thread-vc140-mt-s-1_60:thread.obj
 0002:0000b5d4       ??_R2?$clone_impl@U?$error_info_injector@Vlock_error@boost@@@exception_detail@boost@@@exception_detail@boost@@8 100415d4     libboost_thread-vc140-mt-s-1_60:thread.obj
 0002:0000b5fc       ??_R1A@?0A@EA@?$clone_impl@U?$error_info_injector@Vlock_error@boost@@@exception_detail@boost@@@exception_detail@boost@@8 100415fc     libboost_thread-vc140-mt-s-1_60:thread.obj
 0002:0000b618       ??_R4?$clone_impl@U?$error_info_injector@Vlock_error@boost@@@exception_detail@boost@@@exception_detail@boost@@6Bexception@2@@ 10041618     libboost_thread-vc140-mt-s-1_60:thread.obj
 0002:0000b62c       ??_R4?$clone_impl@U?$error_info_injector@Vlock_error@boost@@@exception_detail@boost@@@exception_detail@boost@@6B@ 1004162c     libboost_thread-vc140-mt-s-1_60:thread.obj
 0002:0000b640       ??_R4?$clone_impl@Ubad_alloc_@exception_detail@boost@@@exception_detail@boost@@6Bexception@2@@ 10041640     libboost_thread-vc140-mt-s-1_60:thread.obj
 0002:0000b654       ??_R3?$clone_impl@Ubad_alloc_@exception_detail@boost@@@exception_detail@boost@@8 10041654     libboost_thread-vc140-mt-s-1_60:thread.obj
 0002:0000b664       ??_R2?$clone_impl@Ubad_alloc_@exception_detail@boost@@@exception_detail@boost@@8 10041664     libboost_thread-vc140-mt-s-1_60:thread.obj
 0002:0000b680       ??_R1A@?0A@EA@?$clone_impl@Ubad_alloc_@exception_detail@boost@@@exception_detail@boost@@8 10041680     libboost_thread-vc140-mt-s-1_60:thread.obj
 0002:0000b69c       ??_R4?$clone_impl@Ubad_alloc_@exception_detail@boost@@@exception_detail@boost@@6Bbad_alloc@std@@@ 1004169c     libboost_thread-vc140-mt-s-1_60:thread.obj
 0002:0000b6b0       ??_R4?$clone_impl@Ubad_alloc_@exception_detail@boost@@@exception_detail@boost@@6B@ 100416b0     libboost_thread-vc140-mt-s-1_60:thread.obj
 0002:0000b6c4       ??_R4?$clone_impl@Ubad_exception_@exception_detail@boost@@@exception_detail@boost@@6Bexception@2@@ 100416c4     libboost_thread-vc140-mt-s-1_60:thread.obj
 0002:0000b6d8       ??_R3?$clone_impl@Ubad_exception_@exception_detail@boost@@@exception_detail@boost@@8 100416d8     libboost_thread-vc140-mt-s-1_60:thread.obj
 0002:0000b6e8       ??_R2?$clone_impl@Ubad_exception_@exception_detail@boost@@@exception_detail@boost@@8 100416e8     libboost_thread-vc140-mt-s-1_60:thread.obj
 0002:0000b704       ??_R1A@?0A@EA@?$clone_impl@Ubad_exception_@exception_detail@boost@@@exception_detail@boost@@8 10041704     libboost_thread-vc140-mt-s-1_60:thread.obj
 0002:0000b720       ??_R4?$clone_impl@Ubad_exception_@exception_detail@boost@@@exception_detail@boost@@6Bbad_exception@std@@@ 10041720     libboost_thread-vc140-mt-s-1_60:thread.obj
 0002:0000b734       ??_R4?$clone_impl@Ubad_exception_@exception_detail@boost@@@exception_detail@boost@@6B@ 10041734     libboost_thread-vc140-mt-s-1_60:thread.obj
 0002:0000b748       ??_R4?$sp_counted_impl_p@V?$clone_impl@Ubad_alloc_@exception_detail@boost@@@exception_detail@boost@@@detail@boost@@6B@ 10041748     libboost_thread-vc140-mt-s-1_60:thread.obj
 0002:0000b75c       ??_R3?$sp_counted_impl_p@V?$clone_impl@Ubad_alloc_@exception_detail@boost@@@exception_detail@boost@@@detail@boost@@8 1004175c     libboost_thread-vc140-mt-s-1_60:thread.obj
 0002:0000b76c       ??_R2?$sp_counted_impl_p@V?$clone_impl@Ubad_alloc_@exception_detail@boost@@@exception_detail@boost@@@detail@boost@@8 1004176c     libboost_thread-vc140-mt-s-1_60:thread.obj
 0002:0000b778       ??_R1A@?0A@EA@?$sp_counted_impl_p@V?$clone_impl@Ubad_alloc_@exception_detail@boost@@@exception_detail@boost@@@detail@boost@@8 10041778     libboost_thread-vc140-mt-s-1_60:thread.obj
 0002:0000b794       ??_R4?$sp_counted_impl_p@V?$clone_impl@Ubad_exception_@exception_detail@boost@@@exception_detail@boost@@@detail@boost@@6B@ 10041794     libboost_thread-vc140-mt-s-1_60:thread.obj
 0002:0000b7a8       ??_R3?$sp_counted_impl_p@V?$clone_impl@Ubad_exception_@exception_detail@boost@@@exception_detail@boost@@@detail@boost@@8 100417a8     libboost_thread-vc140-mt-s-1_60:thread.obj
 0002:0000b7b8       ??_R2?$sp_counted_impl_p@V?$clone_impl@Ubad_exception_@exception_detail@boost@@@exception_detail@boost@@@detail@boost@@8 100417b8     libboost_thread-vc140-mt-s-1_60:thread.obj
 0002:0000b7c4       ??_R1A@?0A@EA@?$sp_counted_impl_p@V?$clone_impl@Ubad_exception_@exception_detail@boost@@@exception_detail@boost@@@detail@boost@@8 100417c4     libboost_thread-vc140-mt-s-1_60:thread.obj
 0002:0000b7e0       ??_R4error_category@system@boost@@6B@ 100417e0     libboost_system-vc140-mt-s-1_60:error_code.obj
 0002:0000b7f4       ??_R3error_category@system@boost@@8 100417f4     libboost_system-vc140-mt-s-1_60:error_code.obj
 0002:0000b804       ??_R2error_category@system@boost@@8 10041804     libboost_system-vc140-mt-s-1_60:error_code.obj
 0002:0000b810       ??_R1A@?0A@EA@error_category@system@boost@@8 10041810     libboost_system-vc140-mt-s-1_60:error_code.obj
 0002:0000b82c       ??_R13?0A@EA@noncopyable@noncopyable_@boost@@8 1004182c     libboost_system-vc140-mt-s-1_60:error_code.obj
 0002:0000b848       ??_R3noncopyable@noncopyable_@boost@@8 10041848     libboost_system-vc140-mt-s-1_60:error_code.obj
 0002:0000b858       ??_R2noncopyable@noncopyable_@boost@@8 10041858     libboost_system-vc140-mt-s-1_60:error_code.obj
 0002:0000b860       ??_R1A@?0A@EA@noncopyable@noncopyable_@boost@@8 10041860     libboost_system-vc140-mt-s-1_60:error_code.obj
 0002:0000b87c       ??_R4generic_error_category@?A0x5c0157ab@system@boost@@6B@ 1004187c     libboost_system-vc140-mt-s-1_60:error_code.obj
 0002:0000b890       ??_R3generic_error_category@?A0x5c0157ab@system@boost@@8 10041890     libboost_system-vc140-mt-s-1_60:error_code.obj
 0002:0000b8a0       ??_R2generic_error_category@?A0x5c0157ab@system@boost@@8 100418a0     libboost_system-vc140-mt-s-1_60:error_code.obj
 0002:0000b8b0       ??_R1A@?0A@EA@generic_error_category@?A0x5c0157ab@system@boost@@8 100418b0     libboost_system-vc140-mt-s-1_60:error_code.obj
 0002:0000b8cc       ??_R4system_error_category@?A0x5c0157ab@system@boost@@6B@ 100418cc     libboost_system-vc140-mt-s-1_60:error_code.obj
 0002:0000b8e0       ??_R3system_error_category@?A0x5c0157ab@system@boost@@8 100418e0     libboost_system-vc140-mt-s-1_60:error_code.obj
 0002:0000b8f0       ??_R2system_error_category@?A0x5c0157ab@system@boost@@8 100418f0     libboost_system-vc140-mt-s-1_60:error_code.obj
 0002:0000b900       ??_R1A@?0A@EA@system_error_category@?A0x5c0157ab@system@boost@@8 10041900     libboost_system-vc140-mt-s-1_60:error_code.obj
 0002:0000b91c       ??_R3?$clone_impl@U?$error_info_injector@Ubad_month@gregorian@boost@@@exception_detail@boost@@@exception_detail@boost@@8 1004191c     main.obj
 0002:0000b92c       ??_R1A@?0A@EA@logic_error@std@@8 1004192c     main.obj
 0002:0000b948       ??_R3bad_month@gregorian@boost@@8 10041948     main.obj
 0002:0000b958       ??_R1A@?0A@EA@exception@boost@@8 10041958     main.obj
 0002:0000b974       ??_R1A@?0A@EA@?$clone_impl@U?$error_info_injector@Vruntime_error@std@@@exception_detail@boost@@@exception_detail@boost@@8 10041974     main.obj
 0002:0000b990       ??_R4?$error_info_injector@Ubad_month@gregorian@boost@@@exception_detail@boost@@6Bexception@2@@ 10041990     main.obj
 0002:0000b9a4       ??_R4exception@std@@6B@    100419a4     main.obj
 0002:0000b9b8       ??_R1A@?0A@EA@?$error_info_injector@Ubad_month@gregorian@boost@@@exception_detail@boost@@8 100419b8     main.obj
 0002:0000b9d4       ??_R4?$clone_impl@U?$error_info_injector@Ubad_day_of_month@gregorian@boost@@@exception_detail@boost@@@exception_detail@boost@@6Bexception@2@@ 100419d4     main.obj
 0002:0000b9e8       ??_R4?$error_info_injector@Ubad_year@gregorian@boost@@@exception_detail@boost@@6Bbad_year@gregorian@2@@ 100419e8     main.obj
 0002:0000b9fc       ??_R4?$clone_impl@U?$error_info_injector@Ubad_year@gregorian@boost@@@exception_detail@boost@@@exception_detail@boost@@6Bbad_year@gregorian@2@@ 100419fc     main.obj
 0002:0000ba10       ??_R4clone_base@exception_detail@boost@@6B@ 10041a10     main.obj
 0002:0000ba24       ??_R4runtime_error@std@@6B@ 10041a24     main.obj
 0002:0000ba38       ??_R4?$clone_impl@U?$error_info_injector@Vruntime_error@std@@@exception_detail@boost@@@exception_detail@boost@@6Bexception@2@@ 10041a38     main.obj
 0002:0000ba4c       ??_R2?$error_info_injector@Vruntime_error@std@@@exception_detail@boost@@8 10041a4c     main.obj
 0002:0000ba60       ??_R3clone_base@exception_detail@boost@@8 10041a60     main.obj
 0002:0000ba70       ??_R1A@?0A@EA@runtime_error@std@@8 10041a70     main.obj
 0002:0000ba8c       ??_R1A@?0A@EA@?$error_info_injector@Ubad_day_of_month@gregorian@boost@@@exception_detail@boost@@8 10041a8c     main.obj
 0002:0000baa8       ??_R4?$clone_impl@U?$error_info_injector@Vruntime_error@std@@@exception_detail@boost@@@exception_detail@boost@@6B@ 10041aa8     main.obj
 0002:0000babc       ??_R1A@?0A@EA@bad_day_of_month@gregorian@boost@@8 10041abc     main.obj
 0002:0000bad8       ??_R2?$clone_impl@U?$error_info_injector@Vruntime_error@std@@@exception_detail@boost@@@exception_detail@boost@@8 10041ad8     main.obj
 0002:0000baf4       ??_R2exception@boost@@8    10041af4     main.obj
 0002:0000bafc       ??_R1A@?0A@EA@exception@std@@8 10041afc     main.obj
 0002:0000bb18       ??_R3bad_year@gregorian@boost@@8 10041b18     main.obj
 0002:0000bb28       ??_R1A@?0A@EA@clone_base@exception_detail@boost@@8 10041b28     main.obj
 0002:0000bb44       ??_R1A@?0A@EA@?$error_info_injector@Ubad_year@gregorian@boost@@@exception_detail@boost@@8 10041b44     main.obj
 0002:0000bb60       ??_R1A@?0A@EA@bad_year@gregorian@boost@@8 10041b60     main.obj
 0002:0000bb7c       ??_R3bad_day_of_month@gregorian@boost@@8 10041b7c     main.obj
 0002:0000bb8c       ??_R4bad_day_of_month@gregorian@boost@@6B@ 10041b8c     main.obj
 0002:0000bba0       ??_R4?$error_info_injector@Vruntime_error@std@@@exception_detail@boost@@6Bruntime_error@std@@@ 10041ba0     main.obj
 0002:0000bbb4       ??_R2logic_error@std@@8    10041bb4     main.obj
 0002:0000bbc0       ??_R2?$error_info_injector@Ubad_month@gregorian@boost@@@exception_detail@boost@@8 10041bc0     main.obj
 0002:0000bbdc       ??_R1A@?0A@EA@?$error_info_injector@Vruntime_error@std@@@exception_detail@boost@@8 10041bdc     main.obj
 0002:0000bbf8       ??_R1A@?0A@EA@?$clone_impl@U?$error_info_injector@Ubad_month@gregorian@boost@@@exception_detail@boost@@@exception_detail@boost@@8 10041bf8     main.obj
 0002:0000bc14       ??_R2exception@std@@8      10041c14     main.obj
 0002:0000bc1c       ??_R2?$clone_impl@U?$error_info_injector@Ubad_day_of_month@gregorian@boost@@@exception_detail@boost@@@exception_detail@boost@@8 10041c1c     main.obj
 0002:0000bc40       ??_R4?$error_info_injector@Ubad_day_of_month@gregorian@boost@@@exception_detail@boost@@6Bexception@2@@ 10041c40     main.obj
 0002:0000bc54       ??_R4?$error_info_injector@Vruntime_error@std@@@exception_detail@boost@@6Bexception@2@@ 10041c54     main.obj
 0002:0000bc68       ??_R1A@?0A@EA@out_of_range@std@@8 10041c68     main.obj
 0002:0000bc84       ??_R4?$clone_impl@U?$error_info_injector@Ubad_month@gregorian@boost@@@exception_detail@boost@@@exception_detail@boost@@6B@ 10041c84     main.obj
 0002:0000bc98       ??_R4?$clone_impl@U?$error_info_injector@Ubad_month@gregorian@boost@@@exception_detail@boost@@@exception_detail@boost@@6Bbad_month@gregorian@2@@ 10041c98     main.obj
 0002:0000bcac       ??_R1A@?0A@EA@bad_month@gregorian@boost@@8 10041cac     main.obj
 0002:0000bcc8       ??_R3?$error_info_injector@Vruntime_error@std@@@exception_detail@boost@@8 10041cc8     main.obj
 0002:0000bcd8       ??_R2?$clone_impl@U?$error_info_injector@Ubad_year@gregorian@boost@@@exception_detail@boost@@@exception_detail@boost@@8 10041cd8     main.obj
 0002:0000bcfc       ??_R4?$error_info_injector@Ubad_year@gregorian@boost@@@exception_detail@boost@@6Bexception@2@@ 10041cfc     main.obj
 0002:0000bd10       ??_R4out_of_range@std@@6B@ 10041d10     main.obj
 0002:0000bd24       ??_R1A@CA@3FA@clone_base@exception_detail@boost@@8 10041d24     main.obj
 0002:0000bd40       ??_R1M@?0A@EA@exception@boost@@8 10041d40     main.obj
 0002:0000bd5c       ??_R4?$clone_impl@U?$error_info_injector@Ubad_day_of_month@gregorian@boost@@@exception_detail@boost@@@exception_detail@boost@@6Bbad_day_of_month@gregorian@2@@ 10041d5c     main.obj
 0002:0000bd70       ??_R2bad_year@gregorian@boost@@8 10041d70     main.obj
 0002:0000bd84       ??_R3logic_error@std@@8    10041d84     main.obj
 0002:0000bd94       ??_R3exception@std@@8      10041d94     main.obj
 0002:0000bda4       ??_R4bad_month@gregorian@boost@@6B@ 10041da4     main.obj
 0002:0000bdb8       ??_R2bad_day_of_month@gregorian@boost@@8 10041db8     main.obj
 0002:0000bdcc       ??_R4logic_error@std@@6B@  10041dcc     main.obj
 0002:0000bde0       ??_R4?$error_info_injector@Ubad_day_of_month@gregorian@boost@@@exception_detail@boost@@6Bbad_day_of_month@gregorian@2@@ 10041de0     main.obj
 0002:0000bdf4       ??_R2clone_base@exception_detail@boost@@8 10041df4     main.obj
 0002:0000bdfc       ??_R2out_of_range@std@@8   10041dfc     main.obj
 0002:0000be0c       ??_R4?$clone_impl@U?$error_info_injector@Ubad_month@gregorian@boost@@@exception_detail@boost@@@exception_detail@boost@@6Bexception@2@@ 10041e0c     main.obj
 0002:0000be20       ??_R2?$error_info_injector@Ubad_day_of_month@gregorian@boost@@@exception_detail@boost@@8 10041e20     main.obj
 0002:0000be3c       ??_R3?$error_info_injector@Ubad_year@gregorian@boost@@@exception_detail@boost@@8 10041e3c     main.obj
 0002:0000be4c       ??_R2?$error_info_injector@Ubad_year@gregorian@boost@@@exception_detail@boost@@8 10041e4c     main.obj
 0002:0000be68       ??_R4?$clone_impl@U?$error_info_injector@Ubad_day_of_month@gregorian@boost@@@exception_detail@boost@@@exception_detail@boost@@6B@ 10041e68     main.obj
 0002:0000be7c       ??_R3out_of_range@std@@8   10041e7c     main.obj
 0002:0000be8c       ??_R3exception@boost@@8    10041e8c     main.obj
 0002:0000be9c       ??_R4exception@boost@@6B@  10041e9c     main.obj
 0002:0000beb0       ??_R1A@?0A@EA@?$clone_impl@U?$error_info_injector@Ubad_day_of_month@gregorian@boost@@@exception_detail@boost@@@exception_detail@boost@@8 10041eb0     main.obj
 0002:0000becc       ??_R2runtime_error@std@@8  10041ecc     main.obj
 0002:0000bed8       ??_R4?$error_info_injector@Ubad_month@gregorian@boost@@@exception_detail@boost@@6Bbad_month@gregorian@2@@ 10041ed8     main.obj
 0002:0000beec       ??_R3?$error_info_injector@Ubad_day_of_month@gregorian@boost@@@exception_detail@boost@@8 10041eec     main.obj
 0002:0000befc       ??_R4?$clone_impl@U?$error_info_injector@Ubad_year@gregorian@boost@@@exception_detail@boost@@@exception_detail@boost@@6Bexception@2@@ 10041efc     main.obj
 0002:0000bf10       ??_R4bad_year@gregorian@boost@@6B@ 10041f10     main.obj
 0002:0000bf24       ??_R3?$clone_impl@U?$error_info_injector@Vruntime_error@std@@@exception_detail@boost@@@exception_detail@boost@@8 10041f24     main.obj
 0002:0000bf34       ??_R1A@?0A@EA@?$clone_impl@U?$error_info_injector@Ubad_year@gregorian@boost@@@exception_detail@boost@@@exception_detail@boost@@8 10041f34     main.obj
 0002:0000bf50       ??_R4?$clone_impl@U?$error_info_injector@Ubad_year@gregorian@boost@@@exception_detail@boost@@@exception_detail@boost@@6B@ 10041f50     main.obj
 0002:0000bf64       ??_R3?$error_info_injector@Ubad_month@gregorian@boost@@@exception_detail@boost@@8 10041f64     main.obj
 0002:0000bf74       ??_R3?$clone_impl@U?$error_info_injector@Ubad_year@gregorian@boost@@@exception_detail@boost@@@exception_detail@boost@@8 10041f74     main.obj
 0002:0000bf84       ??_R2bad_month@gregorian@boost@@8 10041f84     main.obj
 0002:0000bf98       ??_R2?$clone_impl@U?$error_info_injector@Ubad_month@gregorian@boost@@@exception_detail@boost@@@exception_detail@boost@@8 10041f98     main.obj
 0002:0000bfbc       ??_R4?$clone_impl@U?$error_info_injector@Vruntime_error@std@@@exception_detail@boost@@@exception_detail@boost@@6Bruntime_error@std@@@ 10041fbc     main.obj
 0002:0000bfd0       ??_R3runtime_error@std@@8  10041fd0     main.obj
 0002:0000bfe0       ??_R3?$clone_impl@U?$error_info_injector@Ubad_day_of_month@gregorian@boost@@@exception_detail@boost@@@exception_detail@boost@@8 10041fe0     main.obj
 0002:0000bff0       ??_R1A@?0A@EA@?$thread_data@V?$bind_t@XV?$mf3@XVNav@@PAUJobInfo_t@@PAVNode@@PAV3@@_mfi@boost@@V?$list4@V?$value@PAVNav@@@_bi@boost@@V?$value@PAUJobInfo_t@@@23@V?$value@PAVNode@@@23@V523@@_bi@3@@_bi@boost@@@detail@boost@@8 10041ff0     nav.obj
 0002:0000c00c       ??_R4?$error_info_injector@Vbad_alloc@std@@@exception_detail@boost@@6Bbad_alloc@std@@@ 1004200c     nav.obj
 0002:0000c020       ??_R3thread_exception@boost@@8 10042020     nav.obj
 0002:0000c030       ??_R1A@?0A@EA@thread_resource_error@boost@@8 10042030     nav.obj
 0002:0000c04c       ??_R4?$clone_impl@U?$error_info_injector@Vbad_alloc@std@@@exception_detail@boost@@@exception_detail@boost@@6Bbad_alloc@std@@@ 1004204c     nav.obj
 0002:0000c060       ??_R3thread_resource_error@boost@@8 10042060     nav.obj
 0002:0000c070       ??_R1CM@?0A@EA@exception@boost@@8 10042070     nav.obj
 0002:0000c08c       ??_R1A@?0A@EA@thread_data_base@detail@boost@@8 1004208c     nav.obj
 0002:0000c0a8       ??_R2bad_alloc@std@@8      100420a8     nav.obj
 0002:0000c0b4       ??_R4?$clone_impl@U?$error_info_injector@Vthread_resource_error@boost@@@exception_detail@boost@@@exception_detail@boost@@6B@ 100420b4     nav.obj
 0002:0000c0c8       ??_R2thread_data_base@detail@boost@@8 100420c8     nav.obj
 0002:0000c0d0       ??_R2?$thread_data@V?$bind_t@XV?$mf1@XVNav@@PA_N@_mfi@boost@@V?$list2@V?$value@PAVNav@@@_bi@boost@@V?$value@PA_N@23@@_bi@3@@_bi@boost@@@detail@boost@@8 100420d0     nav.obj
 0002:0000c0dc       ??_R4thread_data_base@detail@boost@@6B@ 100420dc     nav.obj
 0002:0000c0f0       ??_R4?$thread_data@V?$bind_t@XV?$mf1@XVNav@@PA_N@_mfi@boost@@V?$list2@V?$value@PAVNav@@@_bi@boost@@V?$value@PA_N@23@@_bi@3@@_bi@boost@@@detail@boost@@6B@ 100420f0     nav.obj
 0002:0000c104       ??_R3thread_data_base@detail@boost@@8 10042104     nav.obj
 0002:0000c114       ??_R2?$error_info_injector@Vbad_alloc@std@@@exception_detail@boost@@8 10042114     nav.obj
 0002:0000c128       ??_R1A@?0A@EA@bad_alloc@std@@8 10042128     nav.obj
 0002:0000c144       ??_R2thread_exception@boost@@8 10042144     nav.obj
 0002:0000c158       ??_R3?$clone_impl@U?$error_info_injector@Vthread_resource_error@boost@@@exception_detail@boost@@@exception_detail@boost@@8 10042158     nav.obj
 0002:0000c168       ??_R3?$error_info_injector@Vthread_resource_error@boost@@@exception_detail@boost@@8 10042168     nav.obj
 0002:0000c178       ??_R4?$error_info_injector@Vbad_alloc@std@@@exception_detail@boost@@6Bexception@2@@ 10042178     nav.obj
 0002:0000c18c       ??_R1A@?0A@EA@?$error_info_injector@Vbad_alloc@std@@@exception_detail@boost@@8 1004218c     nav.obj
 0002:0000c1a8       ??_R3?$error_info_injector@Vbad_alloc@std@@@exception_detail@boost@@8 100421a8     nav.obj
 0002:0000c1b8       ??_R4CTraceFilter@@6B@     100421b8     nav.obj
 0002:0000c1cc       ??_R4?$clone_impl@U?$error_info_injector@Vbad_alloc@std@@@exception_detail@boost@@@exception_detail@boost@@6Bexception@2@@ 100421cc     nav.obj
 0002:0000c1e0       ??_R1A@?0A@EA@CTraceFilter@@8 100421e0     nav.obj
 0002:0000c1fc       ??_R3?$thread_data@V?$bind_t@XV?$mf1@XVNav@@PA_N@_mfi@boost@@V?$list2@V?$value@PAVNav@@@_bi@boost@@V?$value@PA_N@23@@_bi@3@@_bi@boost@@@detail@boost@@8 100421fc     nav.obj
 0002:0000c20c       ??_R2?$thread_data@V?$bind_t@XV?$mf3@XVNav@@PAUJobInfo_t@@PAVNode@@PAV3@@_mfi@boost@@V?$list4@V?$value@PAVNav@@@_bi@boost@@V?$value@PAUJobInfo_t@@@23@V?$value@PAVNode@@@23@V523@@_bi@3@@_bi@boost@@@detail@boost@@8 1004220c     nav.obj
 0002:0000c218       ??_R3ITraceFilter@@8       10042218     nav.obj
 0002:0000c228       ??_R2thread_resource_error@boost@@8 10042228     nav.obj
 0002:0000c240       ??_R2CTraceFilter@@8       10042240     nav.obj
 0002:0000c24c       ??_R4thread_resource_error@boost@@6B@ 1004224c     nav.obj
 0002:0000c260       ??_R4thread_exception@boost@@6B@ 10042260     nav.obj
 0002:0000c274       ??_R1A@EA@3FA@clone_base@exception_detail@boost@@8 10042274     nav.obj
 0002:0000c290       ??_R3?$clone_impl@U?$error_info_injector@Vbad_alloc@std@@@exception_detail@boost@@@exception_detail@boost@@8 10042290     nav.obj
 0002:0000c2a0       ??_R4?$thread_data@V?$bind_t@XV?$mf3@XVNav@@PAUJobInfo_t@@PAVNode@@PAV3@@_mfi@boost@@V?$list4@V?$value@PAVNav@@@_bi@boost@@V?$value@PAUJobInfo_t@@@23@V?$value@PAVNode@@@23@V523@@_bi@3@@_bi@boost@@@detail@boost@@6B@ 100422a0     nav.obj
 0002:0000c2b4       ??_R3GMOD_TraceFilter@@8   100422b4     nav.obj
 0002:0000c2c4       ??_R1A@?0A@EA@GMOD_TraceFilter@@8 100422c4     nav.obj
 0002:0000c2e0       ??_R4system_error@system@boost@@6B@ 100422e0     nav.obj
 0002:0000c2f4       ??_R4?$error_info_injector@Vthread_resource_error@boost@@@exception_detail@boost@@6Bthread_resource_error@2@@ 100422f4     nav.obj
 0002:0000c308       ??_R1A@?0A@EA@thread_exception@boost@@8 10042308     nav.obj
 0002:0000c324       ??_R4bad_alloc@std@@6B@    10042324     nav.obj
 0002:0000c338       ??_R1A@?0A@EA@?$clone_impl@U?$error_info_injector@Vbad_alloc@std@@@exception_detail@boost@@@exception_detail@boost@@8 10042338     nav.obj
 0002:0000c354       ??_R2?$clone_impl@U?$error_info_injector@Vbad_alloc@std@@@exception_detail@boost@@@exception_detail@boost@@8 10042354     nav.obj
 0002:0000c370       ??_R4?$clone_impl@U?$error_info_injector@Vbad_alloc@std@@@exception_detail@boost@@@exception_detail@boost@@6B@ 10042370     nav.obj
 0002:0000c384       ??_R2?$error_info_injector@Vthread_resource_error@boost@@@exception_detail@boost@@8 10042384     nav.obj
 0002:0000c3a4       ??_R1A@?0A@EA@?$thread_data@V?$bind_t@XV?$mf1@XVNav@@PA_N@_mfi@boost@@V?$list2@V?$value@PAVNav@@@_bi@boost@@V?$value@PA_N@23@@_bi@3@@_bi@boost@@@detail@boost@@8 100423a4     nav.obj
 0002:0000c3c0       ??_R3bad_alloc@std@@8      100423c0     nav.obj
 0002:0000c3d0       ??_R2system_error@system@boost@@8 100423d0     nav.obj
 0002:0000c3e0       ??_R4GMOD_TraceFilter@@6B@ 100423e0     nav.obj
 0002:0000c3f4       ??_R2?$clone_impl@U?$error_info_injector@Vthread_resource_error@boost@@@exception_detail@boost@@@exception_detail@boost@@8 100423f4     nav.obj
 0002:0000c41c       ??_R4?$clone_impl@U?$error_info_injector@Vthread_resource_error@boost@@@exception_detail@boost@@@exception_detail@boost@@6Bthread_resource_error@2@@ 1004241c     nav.obj
 0002:0000c430       ??_R1A@?0A@EA@?$clone_impl@U?$error_info_injector@Vthread_resource_error@boost@@@exception_detail@boost@@@exception_detail@boost@@8 10042430     nav.obj
 0002:0000c44c       ??_R2GMOD_TraceFilter@@8   1004244c     nav.obj
 0002:0000c45c       ??_R4?$error_info_injector@Vthread_resource_error@boost@@@exception_detail@boost@@6Bexception@2@@ 1004245c     nav.obj
 0002:0000c470       ??_R4?$clone_impl@U?$error_info_injector@Vthread_resource_error@boost@@@exception_detail@boost@@@exception_detail@boost@@6Bexception@2@@ 10042470     nav.obj
 0002:0000c484       ??_R1A@?0A@EA@ITraceFilter@@8 10042484     nav.obj
 0002:0000c4a0       ??_R3CTraceFilter@@8       100424a0     nav.obj
 0002:0000c4b0       ??_R4ITraceFilter@@6B@     100424b0     nav.obj
 0002:0000c4c4       ??_R3system_error@system@boost@@8 100424c4     nav.obj
 0002:0000c4d4       ??_R2ITraceFilter@@8       100424d4     nav.obj
 0002:0000c4dc       ??_R3?$thread_data@V?$bind_t@XV?$mf3@XVNav@@PAUJobInfo_t@@PAVNode@@PAV3@@_mfi@boost@@V?$list4@V?$value@PAVNav@@@_bi@boost@@V?$value@PAUJobInfo_t@@@23@V?$value@PAVNode@@@23@V523@@_bi@3@@_bi@boost@@@detail@boost@@8 100424dc     nav.obj
 0002:0000c4ec       ??_R1A@?0A@EA@system_error@system@boost@@8 100424ec     nav.obj
 0002:0000c508       ??_R1A@?0A@EA@?$error_info_injector@Vthread_resource_error@boost@@@exception_detail@boost@@8 10042508     nav.obj
 0002:0000c530       ___safe_se_handler_table   10042530     <linker-defined>
 0002:0000c6e0       ?_TraceLoggingMetadata@?1??_TlgWrite@__vcrt_trace_logging_provider@@YAJPBU_TlgProvider_t@2@PBXPBU_GUID@@2IPAU_EVENT_DATA_DESCRIPTOR@@@Z@4U_TraceLoggingMetadata_t@2@B 100426e0     libvcruntime:telemetry.obj
 0002:0000c793       ?_TraceLoggingMetadataEnd@?1??_TlgWrite@__vcrt_trace_logging_provider@@YAJPBU_TlgProvider_t@2@PBXPBU_GUID@@2IPAU_EVENT_DATA_DESCRIPTOR@@@Z@4EB 10042793     libvcruntime:telemetry.obj
 0002:0000cc40       ___rtc_iaa                 10042c40     LIBCMT:_initsect_.obj
 0002:0000cc44       ___rtc_izz                 10042c44     LIBCMT:_initsect_.obj
 0002:0000cc48       ___rtc_taa                 10042c48     LIBCMT:_initsect_.obj
 0002:0000cc4c       ___rtc_tzz                 10042c4c     LIBCMT:_initsect_.obj
 0002:0000d984       __TI2?AVbad_alloc@std@@    10043984     libcpmt:xthrow.obj
 0002:0000d994       __CTA2?AVbad_alloc@std@@   10043994     libcpmt:xthrow.obj
 0002:0000d9a0       __TI3?AVlength_error@std@@ 100439a0     libcpmt:xthrow.obj
 0002:0000d9b0       __CTA3?AVlength_error@std@@ 100439b0     libcpmt:xthrow.obj
 0002:0000d9c0       __CT??_R0?AVlength_error@std@@@8??0length_error@std@@QAE@ABV01@@Z12 100439c0     libcpmt:xthrow.obj
 0002:0000d9dc       __TI3?AVout_of_range@std@@ 100439dc     libcpmt:xthrow.obj
 0002:0000d9ec       __CTA3?AVout_of_range@std@@ 100439ec     libcpmt:xthrow.obj
 0002:0000da7c       __TI3?AVbad_array_new_length@std@@ 10043a7c     LIBCMT:throw_bad_alloc.obj
 0002:0000da8c       __CTA3?AVbad_array_new_length@std@@ 10043a8c     LIBCMT:throw_bad_alloc.obj
 0002:0000da9c       __CT??_R0?AVbad_array_new_length@std@@@8??0bad_array_new_length@std@@QAE@ABV01@@Z12 10043a9c     LIBCMT:throw_bad_alloc.obj
 0002:0000e2b8       __TI1?AVthread_interrupted@boost@@ 100442b8     libboost_thread-vc140-mt-s-1_60:thread.obj
 0002:0000e2c8       __CTA1?AVthread_interrupted@boost@@ 100442c8     libboost_thread-vc140-mt-s-1_60:thread.obj
 0002:0000e2d0       __CT??_R0?AVthread_interrupted@boost@@@81 100442d0     libboost_thread-vc140-mt-s-1_60:thread.obj
 0002:0000e2ec       __CT??_R0?AVexception@boost@@@8??0exception@boost@@QAE@ABV01@@Z20 100442ec     libboost_thread-vc140-mt-s-1_60:thread.obj
 0002:0000e308       __CT??_R0?AVexception@std@@@8??0exception@std@@QAE@ABV01@@Z1220 10044308     libboost_thread-vc140-mt-s-1_60:thread.obj
 0002:0000e324       __TI9?AV?$clone_impl@U?$error_info_injector@Vlock_error@boost@@@exception_detail@boost@@@exception_detail@boost@@ 10044324     libboost_thread-vc140-mt-s-1_60:thread.obj
 0002:0000e334       __CTA9?AV?$clone_impl@U?$error_info_injector@Vlock_error@boost@@@exception_detail@boost@@@exception_detail@boost@@ 10044334     libboost_thread-vc140-mt-s-1_60:thread.obj
 0002:0000e35c       __CT??_R0?AV?$clone_impl@U?$error_info_injector@Vlock_error@boost@@@exception_detail@boost@@@exception_detail@boost@@@8??0?$clone_impl@U?$error_info_injector@Vlock_error@boost@@@exception_detail@boost@@@exception_detail@boost@@QAE@ABV012@@Z76 1004435c     libboost_thread-vc140-mt-s-1_60:thread.obj
 0002:0000e378       __CT??_R0?AU?$error_info_injector@Vlock_error@boost@@@exception_detail@boost@@@8??0?$error_info_injector@Vlock_error@boost@@@exception_detail@boost@@QAE@ABU012@@Z64 10044378     libboost_thread-vc140-mt-s-1_60:thread.obj
 0002:0000e394       __CT??_R0?AVlock_error@boost@@@8??0lock_error@boost@@QAE@ABV01@@Z44 10044394     libboost_thread-vc140-mt-s-1_60:thread.obj
 0002:0000e3b0       __TI6?AV?$clone_impl@Ubad_exception_@exception_detail@boost@@@exception_detail@boost@@ 100443b0     libboost_thread-vc140-mt-s-1_60:thread.obj
 0002:0000e3c0       __CTA6?AV?$clone_impl@Ubad_exception_@exception_detail@boost@@@exception_detail@boost@@ 100443c0     libboost_thread-vc140-mt-s-1_60:thread.obj
 0002:0000e3dc       __CT??_R0?AV?$clone_impl@Ubad_exception_@exception_detail@boost@@@exception_detail@boost@@@8??0?$clone_impl@Ubad_exception_@exception_detail@boost@@@exception_detail@boost@@QAE@ABV012@@Z44 100443dc     libboost_thread-vc140-mt-s-1_60:thread.obj
 0002:0000e3f8       __CT??_R0?AUbad_exception_@exception_detail@boost@@@8??0bad_exception_@exception_detail@boost@@QAE@ABU012@@Z32 100443f8     libboost_thread-vc140-mt-s-1_60:thread.obj
 0002:0000e414       __CT??_R0?AVbad_exception@std@@@8??0bad_exception@std@@QAE@ABV01@@Z1220 10044414     libboost_thread-vc140-mt-s-1_60:thread.obj
 0002:0000e430       __TI6?AV?$clone_impl@Ubad_alloc_@exception_detail@boost@@@exception_detail@boost@@ 10044430     libboost_thread-vc140-mt-s-1_60:thread.obj
 0002:0000e440       __CTA6?AV?$clone_impl@Ubad_alloc_@exception_detail@boost@@@exception_detail@boost@@ 10044440     libboost_thread-vc140-mt-s-1_60:thread.obj
 0002:0000e45c       __CT??_R0?AV?$clone_impl@Ubad_alloc_@exception_detail@boost@@@exception_detail@boost@@@8??0?$clone_impl@Ubad_alloc_@exception_detail@boost@@@exception_detail@boost@@QAE@ABV012@@Z44 1004445c     libboost_thread-vc140-mt-s-1_60:thread.obj
 0002:0000e478       __CT??_R0?AUbad_alloc_@exception_detail@boost@@@8??0bad_alloc_@exception_detail@boost@@QAE@ABU012@@Z32 10044478     libboost_thread-vc140-mt-s-1_60:thread.obj
 0002:0000e494       __CT??_R0?AVbad_alloc@std@@@8??0bad_alloc@std@@QAE@ABV01@@Z1220 10044494     libboost_thread-vc140-mt-s-1_60:thread.obj
 0002:0000e6dc       __TI2?AVbad_exception@std@@ 100446dc     libvcruntime:frame.obj
 0002:0000e6ec       __CTA2?AVbad_exception@std@@ 100446ec     libvcruntime:frame.obj
 0002:0000e6f8       __CT??_R0?AVbad_exception@std@@@8??0bad_exception@std@@QAE@ABV01@@Z12 100446f8     libvcruntime:frame.obj
 0002:0000eb44       __TI8?AV?$clone_impl@U?$error_info_injector@Ubad_day_of_month@gregorian@boost@@@exception_detail@boost@@@exception_detail@boost@@ 10044b44     main.obj
 0002:0000eb54       __CTA8?AV?$clone_impl@U?$error_info_injector@Ubad_day_of_month@gregorian@boost@@@exception_detail@boost@@@exception_detail@boost@@ 10044b54     main.obj
 0002:0000eb78       __CT??_R0?AVclone_base@exception_detail@boost@@@8??0clone_base@exception_detail@boost@@QAE@ABV012@@Z40324 10044b78     main.obj
 0002:0000eb94       __CTA6?AV?$clone_impl@U?$error_info_injector@Vruntime_error@std@@@exception_detail@boost@@@exception_detail@boost@@ 10044b94     main.obj
 0002:0000ebb0       __CT??_R0?AUbad_year@gregorian@boost@@@8??0bad_year@gregorian@boost@@QAE@ABU012@@Z12 10044bb0     main.obj
 0002:0000ebcc       __TI8?AV?$clone_impl@U?$error_info_injector@Ubad_year@gregorian@boost@@@exception_detail@boost@@@exception_detail@boost@@ 10044bcc     main.obj
 0002:0000ebdc       __CT??_R0?AV?$clone_impl@U?$error_info_injector@Ubad_day_of_month@gregorian@boost@@@exception_detail@boost@@@exception_detail@boost@@@8??0?$clone_impl@U?$error_info_injector@Ubad_day_of_month@gregorian@boost@@@exception_detail@boost@@@exception_detail@boost@@QAE@ABV012@@Z44 10044bdc     main.obj
 0002:0000ebf8       __TI8?AV?$clone_impl@U?$error_info_injector@Ubad_month@gregorian@boost@@@exception_detail@boost@@@exception_detail@boost@@ 10044bf8     main.obj
 0002:0000ec08       __TI6?AV?$clone_impl@U?$error_info_injector@Vruntime_error@std@@@exception_detail@boost@@@exception_detail@boost@@ 10044c08     main.obj
 0002:0000ec18       __CT??_R0?AUbad_month@gregorian@boost@@@8??0bad_month@gregorian@boost@@QAE@ABU012@@Z12 10044c18     main.obj
 0002:0000ec34       __CT??_R0?AU?$error_info_injector@Vruntime_error@std@@@exception_detail@boost@@@8??0?$error_info_injector@Vruntime_error@std@@@exception_detail@boost@@QAE@ABU012@@Z32 10044c34     main.obj
 0002:0000ec50       __CT??_R0?AVruntime_error@std@@@8??0runtime_error@std@@QAE@ABV01@@Z12 10044c50     main.obj
 0002:0000ec6c       __CT??_R0?AUbad_day_of_month@gregorian@boost@@@8??0bad_day_of_month@gregorian@boost@@QAE@ABU012@@Z12 10044c6c     main.obj
 0002:0000ec88       __CTA8?AV?$clone_impl@U?$error_info_injector@Ubad_year@gregorian@boost@@@exception_detail@boost@@@exception_detail@boost@@ 10044c88     main.obj
 0002:0000ecac       __CT??_R0?AU?$error_info_injector@Ubad_day_of_month@gregorian@boost@@@exception_detail@boost@@@8??0?$error_info_injector@Ubad_day_of_month@gregorian@boost@@@exception_detail@boost@@QAE@ABU012@@Z32 10044cac     main.obj
 0002:0000ecc8       __CT??_R0?AVout_of_range@std@@@8??0out_of_range@std@@QAE@ABV01@@Z12 10044cc8     main.obj
 0002:0000ece4       __CT??_R0?AV?$clone_impl@U?$error_info_injector@Ubad_month@gregorian@boost@@@exception_detail@boost@@@exception_detail@boost@@@8??0?$clone_impl@U?$error_info_injector@Ubad_month@gregorian@boost@@@exception_detail@boost@@@exception_detail@boost@@QAE@ABV012@@Z44 10044ce4     main.obj
 0002:0000ed00       __CT??_R0?AVexception@std@@@8??0exception@std@@QAE@ABV01@@Z12 10044d00     main.obj
 0002:0000ed1c       __CT??_R0?AU?$error_info_injector@Ubad_month@gregorian@boost@@@exception_detail@boost@@@8??0?$error_info_injector@Ubad_month@gregorian@boost@@@exception_detail@boost@@QAE@ABU012@@Z32 10044d1c     main.obj
 0002:0000ed38       __CT??_R0?AVlogic_error@std@@@8??0logic_error@std@@QAE@ABV01@@Z12 10044d38     main.obj
 0002:0000ed54       __CTA8?AV?$clone_impl@U?$error_info_injector@Ubad_month@gregorian@boost@@@exception_detail@boost@@@exception_detail@boost@@ 10044d54     main.obj
 0002:0000ed78       __CT??_R0?AV?$clone_impl@U?$error_info_injector@Vruntime_error@std@@@exception_detail@boost@@@exception_detail@boost@@@8??0?$clone_impl@U?$error_info_injector@Vruntime_error@std@@@exception_detail@boost@@@exception_detail@boost@@QAE@ABV012@@Z44 10044d78     main.obj
 0002:0000ed94       __CT??_R0?AU?$error_info_injector@Ubad_year@gregorian@boost@@@exception_detail@boost@@@8??0?$error_info_injector@Ubad_year@gregorian@boost@@@exception_detail@boost@@QAE@ABU012@@Z32 10044d94     main.obj
 0002:0000edb0       __CT??_R0?AVexception@boost@@@8??0exception@boost@@QAE@ABV01@@Z2012 10044db0     main.obj
 0002:0000edcc       __CT??_R0?AV?$clone_impl@U?$error_info_injector@Ubad_year@gregorian@boost@@@exception_detail@boost@@@exception_detail@boost@@@8??0?$clone_impl@U?$error_info_injector@Ubad_year@gregorian@boost@@@exception_detail@boost@@@exception_detail@boost@@QAE@ABV012@@Z44 10044dcc     main.obj
 0002:0000ede8       __CT??_R0?AU?$error_info_injector@Vthread_resource_error@boost@@@exception_detail@boost@@@8??0?$error_info_injector@Vthread_resource_error@boost@@@exception_detail@boost@@QAE@ABU012@@Z64 10044de8     nav.obj
 0002:0000ee04       __TI6?AV?$clone_impl@U?$error_info_injector@Vbad_alloc@std@@@exception_detail@boost@@@exception_detail@boost@@ 10044e04     nav.obj
 0002:0000ee14       __CTA6?AV?$clone_impl@U?$error_info_injector@Vbad_alloc@std@@@exception_detail@boost@@@exception_detail@boost@@ 10044e14     nav.obj
 0002:0000ee30       __CTA9?AV?$clone_impl@U?$error_info_injector@Vthread_resource_error@boost@@@exception_detail@boost@@@exception_detail@boost@@ 10044e30     nav.obj
 0002:0000ee58       __CT??_R0?AVbad_alloc@std@@@8??0bad_alloc@std@@QAE@ABV01@@Z12 10044e58     nav.obj
 0002:0000ee74       __CT??_R0?AVthread_resource_error@boost@@@8??0thread_resource_error@boost@@QAE@ABV01@@Z44 10044e74     nav.obj
 0002:0000ee90       __CT??_R0?AVexception@boost@@@8??0exception@boost@@QAE@ABV01@@Z2044 10044e90     nav.obj
 0002:0000eeac       __CT??_R0?AVclone_base@exception_detail@boost@@@8??0clone_base@exception_detail@boost@@QAE@ABV012@@Z40644 10044eac     nav.obj
 0002:0000eec8       __CT??_R0?AV?$clone_impl@U?$error_info_injector@Vthread_resource_error@boost@@@exception_detail@boost@@@exception_detail@boost@@@8??0?$clone_impl@U?$error_info_injector@Vthread_resource_error@boost@@@exception_detail@boost@@@exception_detail@boost@@QAE@ABV012@@Z76 10044ec8     nav.obj
 0002:0000eee4       __CT??_R0?AVsystem_error@system@boost@@@8??0system_error@system@boost@@QAE@ABV012@@Z44 10044ee4     nav.obj
 0002:0000ef00       __CT??_R0?AV?$clone_impl@U?$error_info_injector@Vbad_alloc@std@@@exception_detail@boost@@@exception_detail@boost@@@8??0?$clone_impl@U?$error_info_injector@Vbad_alloc@std@@@exception_detail@boost@@@exception_detail@boost@@QAE@ABV012@@Z44 10044f00     nav.obj
 0002:0000ef1c       __TI9?AV?$clone_impl@U?$error_info_injector@Vthread_resource_error@boost@@@exception_detail@boost@@@exception_detail@boost@@ 10044f1c     nav.obj
 0002:0000ef2c       __CT??_R0?AVthread_exception@boost@@@8??0thread_exception@boost@@QAE@ABV01@@Z44 10044f2c     nav.obj
 0002:0000ef48       __CT??_R0?AU?$error_info_injector@Vbad_alloc@std@@@exception_detail@boost@@@8??0?$error_info_injector@Vbad_alloc@std@@@exception_detail@boost@@QAE@ABU012@@Z32 10044f48     nav.obj
 0002:0000effc       __IMPORT_DESCRIPTOR_tier0  10044ffc     tier0:tier0.dll
 0002:0000f010       __IMPORT_DESCRIPTOR_KERNEL32 10045010     kernel32:KERNEL32.dll
 0002:0000f024       __IMPORT_DESCRIPTOR_ADVAPI32 10045024     advapi32:ADVAPI32.dll
 0002:0000f038       __NULL_IMPORT_DESCRIPTOR   10045038     tier0:tier0.dll
 0003:00000000       ___scrt_native_dllmain_reason 10046000     LIBCMT:utility.obj
 0003:00000004       ___security_cookie_complement 10046004     LIBCMT:gs_cookie.obj
 0003:00000008       ___security_cookie         10046008     LIBCMT:gs_cookie.obj
 0003:0000000c       __fltused                  1004600c     LIBCMT:fltused.obj
 0003:00000010       ___isa_enabled             10046010     LIBCMT:_cpu_disp_.obj
 0003:00000020       ?current_thread_tls_key@?A0x7667f72f@boost@@3KA 10046020     libboost_thread-vc140-mt-s-1_60:thread.obj
 0003:00000080       __NLG_Destination          10046080     libvcruntime:_exsup_.obj
 0003:00000090       __iob                      10046090     libucrt:_file.obj
 0003:00000138       ___abort_behavior          10046138     libucrt:abort.obj
 0003:00000148       ___acrt_initial_locale_data 10046148     libucrt:nlsdata.obj
 0003:00000200       ___acrt_initial_locale_pointers 10046200     libucrt:nlsdata.obj
 0003:00000208       ___acrt_wide_c_locale_string 10046208     libucrt:nlsdata.obj
 0003:00000210       ___badioinfo               10046210     libucrt:ioinit.obj
 0003:00000338       __mbctype                  10046338     libucrt:mbctype.obj
 0003:00000440       __mbcasemap                10046440     libucrt:mbctype.obj
 0003:00000540       ___acrt_initial_multibyte_data 10046540     libucrt:mbctype.obj
 0003:00000760       ___acrt_current_multibyte_data 10046760     libucrt:mbctype.obj
 0003:00000770       ___globallocalestatus      10046770     libucrt:glstatus.obj
 0003:00000774       ___acrt_lconv_static_decimal 10046774     libucrt:localeconv.obj
 0003:00000778       ___acrt_lconv_static_W_decimal 10046778     libucrt:localeconv.obj
 0003:00000780       ___acrt_lconv_c            10046780     libucrt:localeconv.obj
 0003:000007d0       __lookuptrailbytes         100467d0     libucrt:read.obj
 0003:000008d0       ___dcrt_lowio_console_output_handle 100468d0     libucrt:initcon.obj
 0003:000008d4       __Init_global_epoch        100468d4     LIBCMT:thread_safe_statics.obj
 0003:000008e0       ?count@?1??GetTickCount64emulation@win32@detail@boost@@YG_KXZ@4JC 100468e0     main.obj
 0003:000008f0       ??_R0?AVlength_error@std@@@8 100468f0     libcpmt:xthrow.obj
 0003:00000910       ??_R0?AVtype_info@@@8      10046910     LIBCMT:std_type_info_static.obj
 0003:00000928       ??_R0?AVbad_array_new_length@std@@@8 10046928     LIBCMT:throw_bad_alloc.obj
 0003:00000950       ??_R0?AVbad_exception@std@@@8 10046950     libboost_thread-vc140-mt-s-1_60:thread.obj
 0003:00000970       ??_R0?AVthread_interrupted@boost@@@8 10046970     libboost_thread-vc140-mt-s-1_60:thread.obj
 0003:00000998       ??_R0?AV?$clone_impl@U?$error_info_injector@Vlock_error@boost@@@exception_detail@boost@@@exception_detail@boost@@@8 10046998     libboost_thread-vc140-mt-s-1_60:thread.obj
 0003:00000a10       ??_R0?AU?$error_info_injector@Vlock_error@boost@@@exception_detail@boost@@@8 10046a10     libboost_thread-vc140-mt-s-1_60:thread.obj
 0003:00000a60       ??_R0?AVlock_error@boost@@@8 10046a60     libboost_thread-vc140-mt-s-1_60:thread.obj
 0003:00000a80       ??_R0?AV?$clone_impl@Ubad_exception_@exception_detail@boost@@@exception_detail@boost@@@8 10046a80     libboost_thread-vc140-mt-s-1_60:thread.obj
 0003:00000adc       ??_R0?AUbad_exception_@exception_detail@boost@@@8 10046adc     libboost_thread-vc140-mt-s-1_60:thread.obj
 0003:00000b10       ??_R0?AV?$clone_impl@Ubad_alloc_@exception_detail@boost@@@exception_detail@boost@@@8 10046b10     libboost_thread-vc140-mt-s-1_60:thread.obj
 0003:00000b68       ??_R0?AUbad_alloc_@exception_detail@boost@@@8 10046b68     libboost_thread-vc140-mt-s-1_60:thread.obj
 0003:00000b98       ??_R0?AVsp_counted_base@detail@boost@@@8 10046b98     libboost_thread-vc140-mt-s-1_60:thread.obj
 0003:00000bc8       ??_R0?AV?$sp_counted_impl_p@V?$clone_impl@Ubad_alloc_@exception_detail@boost@@@exception_detail@boost@@@detail@boost@@@8 10046bc8     libboost_thread-vc140-mt-s-1_60:thread.obj
 0003:00000c48       ??_R0?AV?$sp_counted_impl_p@V?$clone_impl@Ubad_exception_@exception_detail@boost@@@exception_detail@boost@@@detail@boost@@@8 10046c48     libboost_thread-vc140-mt-s-1_60:thread.obj
 0003:00000cc8       ??_R0?AVerror_category@system@boost@@@8 10046cc8     libboost_system-vc140-mt-s-1_60:error_code.obj
 0003:00000cf4       ??_R0?AVnoncopyable@noncopyable_@boost@@@8 10046cf4     libboost_system-vc140-mt-s-1_60:error_code.obj
 0003:00000d24       ??_R0?AVgeneric_error_category@?A0x5c0157ab@system@boost@@@8 10046d24     libboost_system-vc140-mt-s-1_60:error_code.obj
 0003:00000d64       ??_R0?AVsystem_error_category@?A0x5c0157ab@system@boost@@@8 10046d64     libboost_system-vc140-mt-s-1_60:error_code.obj
 0003:00000da8       ??_R0?AU?$error_info_injector@Vruntime_error@std@@@exception_detail@boost@@@8 10046da8     main.obj
 0003:00000df8       ??_R0?AVruntime_error@std@@@8 10046df8     main.obj
 0003:00000e18       ??_R0?AUbad_month@gregorian@boost@@@8 10046e18     main.obj
 0003:00000e40       ??_R0?AVexception@boost@@@8 10046e40     main.obj
 0003:00000e60       ??_R0?AU?$error_info_injector@Ubad_month@gregorian@boost@@@exception_detail@boost@@@8 10046e60     main.obj
 0003:00000eb8       ??_R0?AUbad_day_of_month@gregorian@boost@@@8 10046eb8     main.obj
 0003:00000ee8       ??_R0?AVclone_base@exception_detail@boost@@@8 10046ee8     main.obj
 0003:00000f18       ??_R0?AV?$clone_impl@U?$error_info_injector@Ubad_day_of_month@gregorian@boost@@@exception_detail@boost@@@exception_detail@boost@@@8 10046f18     main.obj
 0003:00000fa0       ??_R0?AVlogic_error@std@@@8 10046fa0     main.obj
 0003:00000fc0       ??_R0?AU?$error_info_injector@Ubad_year@gregorian@boost@@@exception_detail@boost@@@8 10046fc0     main.obj
 0003:00001018       ??_R0?AV?$clone_impl@U?$error_info_injector@Ubad_month@gregorian@boost@@@exception_detail@boost@@@exception_detail@boost@@@8 10047018     main.obj
 0003:00001098       ??_R0?AVout_of_range@std@@@8 10047098     main.obj
 0003:000010b8       ??_R0?AU?$error_info_injector@Ubad_day_of_month@gregorian@boost@@@exception_detail@boost@@@8 100470b8     main.obj
 0003:00001118       ??_R0?AV?$clone_impl@U?$error_info_injector@Vruntime_error@std@@@exception_detail@boost@@@exception_detail@boost@@@8 10047118     main.obj
 0003:00001190       ??_R0?AV?$clone_impl@U?$error_info_injector@Ubad_year@gregorian@boost@@@exception_detail@boost@@@exception_detail@boost@@@8 10047190     main.obj
 0003:00001210       ??_R0?AUbad_year@gregorian@boost@@@8 10047210     main.obj
 0003:00001238       ??_R0?AVexception@std@@@8  10047238     main.obj
 0003:00001254       ??_R0?AVbad_alloc@std@@@8  10047254     nav.obj
 0003:00001270       ??_R0?AV?$thread_data@V?$bind_t@XV?$mf3@XVNav@@PAUJobInfo_t@@PAVNode@@PAV3@@_mfi@boost@@V?$list4@V?$value@PAVNav@@@_bi@boost@@V?$value@PAUJobInfo_t@@@23@V?$value@PAVNode@@@23@V523@@_bi@3@@_bi@boost@@@detail@boost@@@8 10047270     nav.obj
 0003:0000134c       ??_R0?AUthread_data_base@detail@boost@@@8 1004734c     nav.obj
 0003:00001378       ??_R0?AVITraceFilter@@@8   10047378     nav.obj
 0003:00001394       ??_R0?AVthread_exception@boost@@@8 10047394     nav.obj
 0003:000013c0       ??_R0?AV?$clone_impl@U?$error_info_injector@Vbad_alloc@std@@@exception_detail@boost@@@exception_detail@boost@@@8 100473c0     nav.obj
 0003:00001434       ??_R0?AVCTraceFilter@@@8   10047434     nav.obj
 0003:00001450       ??_R0?AVsystem_error@system@boost@@@8 10047450     nav.obj
 0003:00001478       ??_R0?AU?$error_info_injector@Vthread_resource_error@boost@@@exception_detail@boost@@@8 10047478     nav.obj
 0003:000014d4       ??_R0?AVGMOD_TraceFilter@@@8 100474d4     nav.obj
 0003:000014f4       ??_R0?AVthread_resource_error@boost@@@8 100474f4     nav.obj
 0003:00001520       ??_R0?AU?$error_info_injector@Vbad_alloc@std@@@exception_detail@boost@@@8 10047520     nav.obj
 0003:00001570       ??_R0?AV?$thread_data@V?$bind_t@XV?$mf1@XVNav@@PA_N@_mfi@boost@@V?$list2@V?$value@PAVNav@@@_bi@boost@@V?$value@PA_N@23@@_bi@3@@_bi@boost@@@detail@boost@@@8 10047570     nav.obj
 0003:00001610       ??_R0?AV?$clone_impl@U?$error_info_injector@Vthread_resource_error@boost@@@exception_detail@boost@@@exception_detail@boost@@@8 10047610     nav.obj
 0003:00001698       ?s_pInterfaceRegs@InterfaceReg@@2PAV1@A 10047698     tier1:interface.obj
 0003:0000169c       ___scrt_current_native_startup_state 1004769c     LIBCMT:utility.obj
 0003:000016a0       ___scrt_native_startup_lock 100476a0     LIBCMT:utility.obj
 0003:000019e4       ___isa_available           100479e4     LIBCMT:_cpu_disp_.obj
 0003:000019e8       ___favor                   100479e8     LIBCMT:_cpu_disp_.obj
 0003:000019ec       ___scrt_debugger_hook_flag 100479ec     LIBCMT:utility_desktop.obj
 0003:000019f0       ?__type_info_root_node@@3U__type_info_node@@A 100479f0     LIBCMT:tncleanup.obj
 0003:000019f8       ?current_thread_tls_init_flag@?A0x7667f72f@boost@@3Uonce_flag@2@A 100479f8     libboost_thread-vc140-mt-s-1_60:thread.obj
 0003:00001a0c       ?e@?$exception_ptr_static_exception_object@Ubad_alloc_@exception_detail@boost@@@exception_detail@boost@@2Vexception_ptr@3@B 10047a0c     libboost_thread-vc140-mt-s-1_60:thread.obj
 0003:00001a14       ?e@?$exception_ptr_static_exception_object@Ubad_exception_@exception_detail@boost@@@exception_detail@boost@@2Vexception_ptr@3@B 10047a14     libboost_thread-vc140-mt-s-1_60:thread.obj
 0003:00001a20       ?id@?$num_put@DV?$ostreambuf_iterator@DU?$char_traits@D@std@@@std@@@std@@2V0locale@2@A 10047a20     libboost_thread-vc140-mt-s-1_60:thread.obj
 0003:00001a24       ?id@?$numpunct@D@std@@2V0locale@2@A 10047a24     libboost_thread-vc140-mt-s-1_60:thread.obj
 0003:00001a28       ?ep@?1???$get_static_exception_object@Ubad_alloc_@exception_detail@boost@@@exception_detail@boost@@YA?AVexception_ptr@2@XZ@4V32@A 10047a28     libboost_thread-vc140-mt-s-1_60:thread.obj
 0003:00001a30       ?$TSS0@?1???$get_static_exception_object@Ubad_alloc_@exception_detail@boost@@@exception_detail@boost@@YA?AVexception_ptr@2@XZ@4HA 10047a30     libboost_thread-vc140-mt-s-1_60:thread.obj
 0003:00001a34       ?ep@?1???$get_static_exception_object@Ubad_exception_@exception_detail@boost@@@exception_detail@boost@@YA?AVexception_ptr@2@XZ@4V32@A 10047a34     libboost_thread-vc140-mt-s-1_60:thread.obj
 0003:00001a3c       ?$TSS0@?1???$get_static_exception_object@Ubad_exception_@exception_detail@boost@@@exception_detail@boost@@YA?AVexception_ptr@2@XZ@4HA 10047a3c     libboost_thread-vc140-mt-s-1_60:thread.obj
 0003:00001a44       ?throws@system@boost@@3Verror_code@12@A 10047a44     libboost_system-vc140-mt-s-1_60:error_code.obj
 0003:00001a78       ?g_OutOfMemoryExceptionCallback@@3P6GPAXXZA 10047a78     libvcruntime:frame.obj
 0003:00001aa4       ___pPurecall               10047aa4     libvcruntime:purevirt_data.obj
 0003:00001af8       ?pArgList@UnDecorator@@0PAVReplicator@@A 10047af8     libvcruntime:undname.obj
 0003:00001afc       ?pZNameList@UnDecorator@@0PAVReplicator@@A 10047afc     libvcruntime:undname.obj
 0003:00001b00       ?pTemplateArgList@UnDecorator@@0PAVReplicator@@A 10047b00     libvcruntime:undname.obj
 0003:00001b04       ?gName@UnDecorator@@0PBDB  10047b04     libvcruntime:undname.obj
 0003:00001b08       ?name@UnDecorator@@0PBDB   10047b08     libvcruntime:undname.obj
 0003:00001b0c       ?outputString@UnDecorator@@0PADA 10047b0c     libvcruntime:undname.obj
 0003:00001b10       ?maxStringLength@UnDecorator@@0HA 10047b10     libvcruntime:undname.obj
 0003:00001b14       ?disableFlags@UnDecorator@@0KA 10047b14     libvcruntime:undname.obj
 0003:00001b18       ?fExplicitTemplateParams@UnDecorator@@0_NA 10047b18     libvcruntime:undname.obj
 0003:00001b19       ?fGetTemplateArgumentList@UnDecorator@@0_NA 10047b19     libvcruntime:undname.obj
 0003:00001b1c       ?m_pGetParameter@UnDecorator@@0P6APADJ@ZA 10047b1c     libvcruntime:undname.obj
 0003:00001b38       __nstream                  10047b38     libucrt:_file.obj
 0003:00001b3c       ___piob                    10047b3c     libucrt:_file.obj
 0003:00001b40       __cflush                   10047b40     libucrt:_file.obj
 0003:00001c60       __environ_table            10047c60     libucrt:environment_initialization.obj
 0003:00001c64       __wenviron_table           10047c64     libucrt:environment_initialization.obj
 0003:00001c68       ___dcrt_initial_wide_environment 10047c68     libucrt:environment_initialization.obj
 0003:00001c6c       ___dcrt_initial_narrow_environment 10047c6c     libucrt:environment_initialization.obj
 0003:00001c70       ___acrt_atexit_table       10047c70     libucrt:onexit.obj
 0003:00001c7c       ___acrt_at_quick_exit_table 10047c7c     libucrt:onexit.obj
 0003:00001c8c       ___acrt_stdout_buffer      10047c8c     libucrt:_sftbuf.obj
 0003:00001c90       ___acrt_stderr_buffer      10047c90     libucrt:_sftbuf.obj
 0003:00001c94       ___acrt_locale_changed_data 10047c94     libucrt:wsetlocale.obj
 0003:00001c98       ___acrt_current_locale_data 10047c98     libucrt:nlsdata.obj
 0003:00001ca0       ___pioinfo                 10047ca0     libucrt:ioinit.obj
 0003:00001ea0       __nhandle                  10047ea0     libucrt:ioinit.obj
 0003:000020bc       ___mblocalename            100480bc     libucrt:mbctype.obj
 0003:000020c0       ___mbcodepage              100480c0     libucrt:mbctype.obj
 0003:000020c4       ___ismbcodepage            100480c4     libucrt:mbctype.obj
 0003:000020c8       ___mbulinfo                100480c8     libucrt:mbctype.obj
 0003:000020dc       ___argc                    100480dc     libucrt:argv_data.obj
 0003:000020e0       ___argv                    100480e0     libucrt:argv_data.obj
 0003:000020e4       ___wargv                   100480e4     libucrt:argv_data.obj
 0003:000020e8       __acmdln                   100480e8     libucrt:argv_data.obj
 0003:000020ec       __wcmdln                   100480ec     libucrt:argv_data.obj
 0003:000020f0       __pgmptr                   100480f0     libucrt:argv_data.obj
 0003:000020f4       ___acrt_heap               100480f4     libucrt:heap_handle.obj
 0003:00002110       ___acrt_lconv_static_null  10048110     libucrt:localeconv.obj
 0003:00002114       ___acrt_lconv_static_W_null 10048114     libucrt:localeconv.obj
 0003:00002118       __commode                  10048118     libucrt:ncommode.obj
 0003:00002120       __umaskval                 10048120     libucrt:umask.obj
 0003:00002124       ___fastflag                10048124     libucrt:fp_flags.obj
 0003:0000212c       __fmode                    1004812c     libucrt:txtmode.obj
 0003:00002158       __tls_index                10048158     LIBCMT:tlssup.obj
 0003:00002160       ?_OptionsStorage@?1??__local_stdio_printf_options@@9@4_KA 10048160     ILuaInterface.obj
 0003:00002168       ?enginetrace@@3PAVIEngineTrace@@A 10048168     main.obj
 0003:0000216c       ?objVector@@3PAVILuaObject@@A 1004816c     main.obj
 0003:00002170       ?engine@@3PAVIVEngineServer@@A 10048170     main.obj
 0003:00002184       ?modulemanager@@3PAVILuaModuleManager@@A 10048184     ILuaModuleManager.obj
 0003:000021d0       ?sleep_time@@3Vtime_duration@posix_time@boost@@A 100481d0     main.obj
 0003:000021d8       ?JobQueue@@3V?$CUtlVector@PAUJobInfo_t@@V?$CUtlMemory@PAUJobInfo_t@@H@@@@A 100481d8     main.obj
 0003:00002218       ?timeout@@3Vtime_duration@posix_time@boost@@A 10048218     main.obj
 0003:00002294       ?gettickcount64impl@?1??GetTickCount64_@win32@detail@boost@@YAP6G_KXZXZ@4P6G_KXZA 10048294     main.obj
 0003:00002298       ?_OptionsStorage@?1??__local_stdio_scanf_options@@9@4_KA 10048298     nav.obj
 0003:000022a0       ___dyn_tls_init_callback   100482a0     <common>
 0003:000022a4       ___scrt_ucrt_dll_is_in_use 100482a4     <common>
 0003:000022a8       __pmatherr                 100482a8     <common>
 0003:000022ac       ___use_sse2_mathfcns       100482ac     <common>
 0005:00000000       __tls_start                1004a000     LIBCMT:tlssup.obj
 0005:00000004       __Init_thread_epoch        1004a004     LIBCMT:thread_safe_statics.obj
 0005:00000008       __tls_end                  1004a008     LIBCMT:tlssup.obj

 entry point at        0001:00014dab

 Static symbols

 0000:fffb0000       .debug$S                   10000000     kernel32:KERNEL32.dll
 0000:fffb0000       .debug$S                   10000000     kernel32:KERNEL32.dll
 0000:fffb0000       .debug$S                   10000000     advapi32:ADVAPI32.dll
 0000:fffb0000       .debug$S                   10000000     kernel32:KERNEL32.dll
 0000:fffb0000       .debug$S                   10000000     kernel32:KERNEL32.dll
 0000:fffb0000       .debug$S                   10000000     kernel32:KERNEL32.dll
 0000:fffb0000       .debug$S                   10000000     kernel32:KERNEL32.dll
 0000:fffb0000       .debug$S                   10000000     kernel32:KERNEL32.dll
 0000:fffb0000       .debug$S                   10000000     kernel32:KERNEL32.dll
 0000:fffb0000       .debug$S                   10000000     kernel32:KERNEL32.dll
 0000:fffb0000       .debug$S                   10000000     kernel32:KERNEL32.dll
 0000:fffb0000       .debug$S                   10000000     kernel32:KERNEL32.dll
 0000:fffb0000       .debug$S                   10000000     kernel32:KERNEL32.dll
 0000:fffb0000       .debug$S                   10000000     kernel32:KERNEL32.dll
 0000:fffb0000       .debug$S                   10000000     gmsv_navigation_win32.exp
 0000:fffb0000       .debug$S                   10000000     tier0:tier0.dll
 0000:fffb0000       .debug$S                   10000000     tier0:tier0.dll
 0000:fffb0000       .debug$S                   10000000     tier0:tier0.dll
 0000:fffb0000       .debug$S                   10000000     tier0:tier0.dll
 0000:fffb0000       .debug$S                   10000000     tier0:tier0.dll
 0000:fffb0000       .debug$S                   10000000     tier0:tier0.dll
 0000:fffb0000       .debug$S                   10000000     tier0:tier0.dll
 0000:fffb0000       .debug$S                   10000000     tier0:tier0.dll
 0000:fffb0000       .debug$S                   10000000     tier0:tier0.dll
 0000:fffb0000       .debug$S                   10000000     tier0:tier0.dll
 0000:fffb0000       .debug$S                   10000000     tier0:tier0.dll
 0000:fffb0000       .debug$S                   10000000     tier0:tier0.dll
 0000:fffb0000       .debug$S                   10000000     tier0:tier0.dll
 0000:fffb0000       .debug$S                   10000000     tier0:tier0.dll
 0000:fffb0000       .debug$S                   10000000     tier0:tier0.dll
 0000:fffb0000       .debug$S                   10000000     kernel32:KERNEL32.dll
 0000:fffb0000       .debug$S                   10000000     kernel32:KERNEL32.dll
 0000:fffb0000       .debug$S                   10000000     kernel32:KERNEL32.dll
 0000:fffb0000       .debug$S                   10000000     kernel32:KERNEL32.dll
 0000:fffb0000       .debug$S                   10000000     kernel32:KERNEL32.dll
 0000:fffb0000       .debug$S                   10000000     kernel32:KERNEL32.dll
 0000:fffb0000       .debug$S                   10000000     kernel32:KERNEL32.dll
 0000:fffb0000       .debug$S                   10000000     kernel32:KERNEL32.dll
 0000:fffb0000       .debug$S                   10000000     kernel32:KERNEL32.dll
 0000:fffb0000       .debug$S                   10000000     kernel32:KERNEL32.dll
 0000:fffb0000       .debug$S                   10000000     kernel32:KERNEL32.dll
 0000:fffb0000       .debug$S                   10000000     kernel32:KERNEL32.dll
 0000:fffb0000       .debug$S                   10000000     kernel32:KERNEL32.dll
 0000:fffb0000       .debug$S                   10000000     kernel32:KERNEL32.dll
 0000:fffb0000       .debug$S                   10000000     kernel32:KERNEL32.dll
 0000:fffb0000       .debug$S                   10000000     kernel32:KERNEL32.dll
 0000:fffb0000       .debug$S                   10000000     kernel32:KERNEL32.dll
 0000:fffb0000       .debug$S                   10000000     kernel32:KERNEL32.dll
 0000:fffb0000       .debug$S                   10000000     kernel32:KERNEL32.dll
 0000:fffb0000       .debug$S                   10000000     kernel32:KERNEL32.dll
 0000:fffb0000       .debug$S                   10000000     kernel32:KERNEL32.dll
 0000:fffb0000       .debug$S                   10000000     kernel32:KERNEL32.dll
 0000:fffb0000       .debug$S                   10000000     kernel32:KERNEL32.dll
 0000:fffb0000       .debug$S                   10000000     kernel32:KERNEL32.dll
 0000:fffb0000       .debug$S                   10000000     kernel32:KERNEL32.dll
 0000:fffb0000       .debug$S                   10000000     kernel32:KERNEL32.dll
 0000:fffb0000       .debug$S                   10000000     kernel32:KERNEL32.dll
 0000:fffb0000       .debug$S                   10000000     kernel32:KERNEL32.dll
 0000:fffb0000       .debug$S                   10000000     kernel32:KERNEL32.dll
 0000:fffb0000       .debug$S                   10000000     kernel32:KERNEL32.dll
 0000:fffb0000       .debug$S                   10000000     kernel32:KERNEL32.dll
 0000:fffb0000       .debug$S                   10000000     kernel32:KERNEL32.dll
 0000:fffb0000       .debug$S                   10000000     kernel32:KERNEL32.dll
 0000:fffb0000       .debug$S                   10000000     kernel32:KERNEL32.dll
 0000:fffb0000       .debug$S                   10000000     kernel32:KERNEL32.dll
 0000:fffb0000       .debug$S                   10000000     kernel32:KERNEL32.dll
 0000:fffb0000       .debug$S                   10000000     kernel32:KERNEL32.dll
 0000:fffb0000       .debug$S                   10000000     kernel32:KERNEL32.dll
 0000:fffb0000       .debug$S                   10000000     kernel32:KERNEL32.dll
 0000:fffb0000       .debug$S                   10000000     kernel32:KERNEL32.dll
 0000:fffb0000       .debug$S                   10000000     kernel32:KERNEL32.dll
 0000:fffb0000       .debug$S                   10000000     kernel32:KERNEL32.dll
 0000:fffb0000       .debug$S                   10000000     kernel32:KERNEL32.dll
 0000:fffb0000       .debug$S                   10000000     kernel32:KERNEL32.dll
 0000:fffb0000       .debug$S                   10000000     kernel32:KERNEL32.dll
 0000:fffb0000       .debug$S                   10000000     kernel32:KERNEL32.dll
 0000:fffb0000       .debug$S                   10000000     kernel32:KERNEL32.dll
 0000:fffb0000       .debug$S                   10000000     kernel32:KERNEL32.dll
 0000:fffb0000       .debug$S                   10000000     kernel32:KERNEL32.dll
 0000:fffb0000       .debug$S                   10000000     kernel32:KERNEL32.dll
 0000:fffb0000       .debug$S                   10000000     kernel32:KERNEL32.dll
 0000:fffb0000       .debug$S                   10000000     kernel32:KERNEL32.dll
 0000:fffb0000       .debug$S                   10000000     kernel32:KERNEL32.dll
 0000:fffb0000       .debug$S                   10000000     kernel32:KERNEL32.dll
 0000:fffb0000       .debug$S                   10000000     kernel32:KERNEL32.dll
 0000:fffb0000       .debug$S                   10000000     kernel32:KERNEL32.dll
 0000:fffb0000       .debug$S                   10000000     kernel32:KERNEL32.dll
 0000:fffb0000       .debug$S                   10000000     kernel32:KERNEL32.dll
 0000:fffb0000       .debug$S                   10000000     kernel32:KERNEL32.dll
 0000:fffb0000       .debug$S                   10000000     kernel32:KERNEL32.dll
 0000:fffb0000       .debug$S                   10000000     kernel32:KERNEL32.dll
 0000:fffb0000       .debug$S                   10000000     kernel32:KERNEL32.dll
 0000:fffb0000       .debug$S                   10000000     kernel32:KERNEL32.dll
 0000:fffb0000       .debug$S                   10000000     kernel32:KERNEL32.dll
 0000:fffb0000       .debug$S                   10000000     kernel32:KERNEL32.dll
 0000:fffb0000       .debug$S                   10000000     kernel32:KERNEL32.dll
 0000:fffb0000       .debug$S                   10000000     kernel32:KERNEL32.dll
 0000:fffb0000       .debug$S                   10000000     kernel32:KERNEL32.dll
 0000:fffb0000       .debug$S                   10000000     kernel32:KERNEL32.dll
 0000:fffb0000       .debug$S                   10000000     kernel32:KERNEL32.dll
 0000:fffb0000       .debug$S                   10000000     kernel32:KERNEL32.dll
 0000:fffb0000       .debug$S                   10000000     kernel32:KERNEL32.dll
 0000:fffb0000       .debug$S                   10000000     kernel32:KERNEL32.dll
 0000:fffb0000       .debug$S                   10000000     kernel32:KERNEL32.dll
 0000:fffb0000       .debug$S                   10000000     kernel32:KERNEL32.dll
 0000:fffb0000       .debug$S                   10000000     kernel32:KERNEL32.dll
 0000:fffb0000       .debug$S                   10000000     kernel32:KERNEL32.dll
 0000:fffb0000       .debug$S                   10000000     kernel32:KERNEL32.dll
 0000:fffb0000       .debug$S                   10000000     kernel32:KERNEL32.dll
 0000:fffb0000       .debug$S                   10000000     kernel32:KERNEL32.dll
 0000:fffb0000       .debug$S                   10000000     kernel32:KERNEL32.dll
 0000:fffb0000       .debug$S                   10000000     kernel32:KERNEL32.dll
 0000:fffb0000       .debug$S                   10000000     kernel32:KERNEL32.dll
 0000:fffb0000       .debug$S                   10000000     kernel32:KERNEL32.dll
 0000:fffb0000       .debug$S                   10000000     kernel32:KERNEL32.dll
 0000:fffb0000       .debug$S                   10000000     kernel32:KERNEL32.dll
 0000:fffb0000       .debug$S                   10000000     kernel32:KERNEL32.dll
 0000:fffb0000       .debug$S                   10000000     kernel32:KERNEL32.dll
 0000:fffb0000       .debug$S                   10000000     kernel32:KERNEL32.dll
 0000:fffb0000       .debug$S                   10000000     kernel32:KERNEL32.dll
 0000:fffb0000       .debug$S                   10000000     kernel32:KERNEL32.dll
 0000:fffb0000       .debug$S                   10000000     kernel32:KERNEL32.dll
 0000:fffb0000       .debug$S                   10000000     kernel32:KERNEL32.dll
 0000:fffb0000       .debug$S                   10000000     kernel32:KERNEL32.dll
 0000:fffb0000       .debug$S                   10000000     kernel32:KERNEL32.dll
 0000:fffb0000       .debug$S                   10000000     kernel32:KERNEL32.dll
 0000:fffb0000       .debug$S                   10000000     kernel32:KERNEL32.dll
 0000:fffb0000       .debug$S                   10000000     kernel32:KERNEL32.dll
 0000:fffb0000       .debug$S                   10000000     kernel32:KERNEL32.dll
 0000:fffb0000       .debug$S                   10000000     kernel32:KERNEL32.dll
 0000:fffb0000       .debug$S                   10000000     kernel32:KERNEL32.dll
 0001:00000260       ??__Evec2_origin@@YAXXZ    10001260 f   ILuaInterface.obj
 0001:0000028b       ??__Evec2_invalid@@YAXXZ   1000128b f   ILuaInterface.obj
 0001:000002b6       ??__Evec2_origin@@YAXXZ    100012b6 f   ILuaModuleManager.obj
 0001:000002e1       ??__Evec2_invalid@@YAXXZ   100012e1 f   ILuaModuleManager.obj
 0001:0000030c       ??__Emodulemanager@@YAXXZ  1000130c f   ILuaModuleManager.obj
 0001:0000037c       ??__Evec2_origin@@YAXXZ    1000137c f   ILuaObject.obj
 0001:000003a7       ??__Evec2_invalid@@YAXXZ   100013a7 f   ILuaObject.obj
 0001:000003d2       ??__Evec2_origin@@YAXXZ    100013d2 f   main.obj
 0001:000003fd       ??__Evec2_invalid@@YAXXZ   100013fd f   main.obj
 0001:00000428       ??__Evec4_origin@@YAXXZ    10001428 f   main.obj
 0001:0000046f       ??__Evec4_invalid@@YAXXZ   1000146f f   main.obj
 0001:000004b6       ??__Eposix_category@system@boost@@YAXXZ 100014b6 f   main.obj
 0001:000004c5       ??__Eerrno_ecat@system@boost@@YAXXZ 100014c5 f   main.obj
 0001:000004d4       ??__Enative_ecat@system@boost@@YAXXZ 100014d4 f   main.obj
 0001:000004e3       ??__E_1@placeholders@boost@@YAXXZ 100014e3 f   main.obj
 0001:000004f2       ??__E_2@placeholders@boost@@YAXXZ 100014f2 f   main.obj
 0001:00000501       ??__E_3@placeholders@boost@@YAXXZ 10001501 f   main.obj
 0001:00000510       ??__E_4@placeholders@boost@@YAXXZ 10001510 f   main.obj
 0001:0000051f       ??__E_5@placeholders@boost@@YAXXZ 1000151f f   main.obj
 0001:0000052e       ??__E_6@placeholders@boost@@YAXXZ 1000152e f   main.obj
 0001:0000053d       ??__E_7@placeholders@boost@@YAXXZ 1000153d f   main.obj
 0001:0000054c       ??__E_8@placeholders@boost@@YAXXZ 1000154c f   main.obj
 0001:0000055b       ??__E_9@placeholders@boost@@YAXXZ 1000155b f   main.obj
 0001:0000056a       ??__Evector_origin@@YAXXZ  1000156a f   main.obj
 0001:000005a3       ??__EJobQueue@@YAXXZ       100015a3 f   main.obj
 0001:000005c1       ??__Etimeout@@YAXXZ        100015c1 f   main.obj
 0001:000005e1       ??__Esleep_time@@YAXXZ     100015e1 f   main.obj
 0001:00000601       ??__Evec2_origin@@YAXXZ    10001601 f   nav.obj
 0001:0000062c       ??__Evec2_invalid@@YAXXZ   1000162c f   nav.obj
 0001:00000657       ??__Eposix_category@system@boost@@YAXXZ 10001657 f   nav.obj
 0001:00000666       ??__Eerrno_ecat@system@boost@@YAXXZ 10001666 f   nav.obj
 0001:00000675       ??__Enative_ecat@system@boost@@YAXXZ 10001675 f   nav.obj
 0001:00000684       ??__E_1@placeholders@boost@@YAXXZ 10001684 f   nav.obj
 0001:00000693       ??__E_2@placeholders@boost@@YAXXZ 10001693 f   nav.obj
 0001:000006a2       ??__E_3@placeholders@boost@@YAXXZ 100016a2 f   nav.obj
 0001:000006b1       ??__E_4@placeholders@boost@@YAXXZ 100016b1 f   nav.obj
 0001:000006c0       ??__E_5@placeholders@boost@@YAXXZ 100016c0 f   nav.obj
 0001:000006cf       ??__E_6@placeholders@boost@@YAXXZ 100016cf f   nav.obj
 0001:000006de       ??__E_7@placeholders@boost@@YAXXZ 100016de f   nav.obj
 0001:000006ed       ??__E_8@placeholders@boost@@YAXXZ 100016ed f   nav.obj
 0001:000006fc       ??__E_9@placeholders@boost@@YAXXZ 100016fc f   nav.obj
 0001:0000070b       ??__Evec4_origin@@YAXXZ    1000170b f   nav.obj
 0001:00000752       ??__Evec4_invalid@@YAXXZ   10001752 f   nav.obj
 0001:00000799       ??__Evector_origin@@YAXXZ  10001799 f   nav.obj
 0001:000007d2       ??__Evec2_origin@@YAXXZ    100017d2 f   node.obj
 0001:000007fd       ??__Evec2_invalid@@YAXXZ   100017fd f   node.obj
 0001:00000828       ??__Eposix_category@system@boost@@YAXXZ 10001828 f   node.obj
 0001:00000837       ??__Eerrno_ecat@system@boost@@YAXXZ 10001837 f   node.obj
 0001:00000846       ??__Enative_ecat@system@boost@@YAXXZ 10001846 f   node.obj
 0001:00000855       ??__E_1@placeholders@boost@@YAXXZ 10001855 f   node.obj
 0001:00000864       ??__E_2@placeholders@boost@@YAXXZ 10001864 f   node.obj
 0001:00000873       ??__E_3@placeholders@boost@@YAXXZ 10001873 f   node.obj
 0001:00000882       ??__E_4@placeholders@boost@@YAXXZ 10001882 f   node.obj
 0001:00000891       ??__E_5@placeholders@boost@@YAXXZ 10001891 f   node.obj
 0001:000008a0       ??__E_6@placeholders@boost@@YAXXZ 100018a0 f   node.obj
 0001:000008af       ??__E_7@placeholders@boost@@YAXXZ 100018af f   node.obj
 0001:000008be       ??__E_8@placeholders@boost@@YAXXZ 100018be f   node.obj
 0001:000008cd       ??__E_9@placeholders@boost@@YAXXZ 100018cd f   node.obj
 0001:000008e0       ??__E?e@?$exception_ptr_static_exception_object@Ubad_alloc_@exception_detail@boost@@@exception_detail@boost@@2Vexception_ptr@3@B@@YAXXZ 100018e0 f   libboost_thread-vc140-mt-s-1_60:thread.obj
 0001:00000900       ??__E?e@?$exception_ptr_static_exception_object@Ubad_exception_@exception_detail@boost@@@exception_detail@boost@@2Vexception_ptr@3@B@@YAXXZ 10001900 f   libboost_thread-vc140-mt-s-1_60:thread.obj
 0001:00000920       ??__Eerrno_ecat@system@boost@@YAXXZ 10001920 f   libboost_system-vc140-mt-s-1_60:error_code.obj
 0001:000009c0       ??__Enative_ecat@system@boost@@YAXXZ 100019c0 f   libboost_system-vc140-mt-s-1_60:error_code.obj
 0001:00000a60       ??__Eposix_category@system@boost@@YAXXZ 10001a60 f   libboost_system-vc140-mt-s-1_60:error_code.obj
 0001:00000b00       ??__Ethrows@system@boost@@YAXXZ 10001b00 f   libboost_system-vc140-mt-s-1_60:error_code.obj
 0001:000027a0       __catch$?_Buyheadnode@?$_Tree_comp_alloc@V?$_Tmap_traits@PAUlua_State@@PAVILuaInterface@@U?$less@PAUlua_State@@@std@@V?$allocator@U?$pair@QAUlua_State@@PAVILuaInterface@@@std@@@4@$0A@@std@@@std@@QAEPAU?$_Tree_node@U?$pair@QAUlua_State@@PAVILuaInterface@@@std@@PAX@2@XZ$0 100037a0 f i ILuaModuleManager.obj
 0001:0000301d       __catch$??$_Buynode@ABUpiecewise_construct_t@std@@V?$tuple@ABQAUlua_State@@@2@V?$tuple@$$V@2@@?$_Tree_comp_alloc@V?$_Tmap_traits@PAUlua_State@@PAVILuaInterface@@U?$less@PAUlua_State@@@std@@V?$allocator@U?$pair@QAUlua_State@@PAVILuaInterface@@@std@@@4@$0A@@std@@@std@@QAEPAU?$_Tree_node@U?$pair@QAUlua_State@@PAVILuaInterface@@@std@@PAX@1@ABUpiecewise_construct_t@1@$$QAV?$tuple@ABQAUlua_State@@@1@$$QAV?$tuple@$$V@1@@Z$0 1000401d f i ILuaModuleManager.obj
 0001:000039b9       __catch$??$_Insert_hint@AAU?$pair@QAUlua_State@@PAVILuaInterface@@@std@@PAU?$_Tree_node@U?$pair@QAUlua_State@@PAVILuaInterface@@@std@@PAX@2@@?$_Tree@V?$_Tmap_traits@PAUlua_State@@PAVILuaInterface@@U?$less@PAUlua_State@@@std@@V?$allocator@U?$pair@QAUlua_State@@PAVILuaInterface@@@std@@@4@$0A@@std@@@std@@IAE?AV?$_Tree_iterator@V?$_Tree_val@U?$_Tree_simple_types@U?$pair@QAUlua_State@@PAVILuaInterface@@@std@@@std@@@std@@@1@V?$_Tree_const_iterator@V?$_Tree_val@U?$_Tree_simple_types@U?$pair@QAUlua_State@@PAVILuaInterface@@@std@@@std@@@std@@@1@AAU?$pair@QAUlua_State@@PAVILuaInterface@@@1@PAU?$_Tree_node@U?$pair@QAUlua_State@@PAVILuaInterface@@@std@@PAX@1@@Z$0 100049b9 f i ILuaModuleManager.obj
 0001:00003b9a       __catch$?_Buynode0@?$_Tree_comp_alloc@V?$_Tmap_traits@PAUlua_State@@PAVILuaInterface@@U?$less@PAUlua_State@@@std@@V?$allocator@U?$pair@QAUlua_State@@PAVILuaInterface@@@std@@@4@$0A@@std@@@std@@QAEPAU?$_Tree_node@U?$pair@QAUlua_State@@PAVILuaInterface@@@std@@PAX@2@XZ$0 10004b9a f i ILuaModuleManager.obj
 0001:000043a5       __catch$??$_Insert_nohint@AAU?$pair@QAUlua_State@@PAVILuaInterface@@@std@@PAU?$_Tree_node@U?$pair@QAUlua_State@@PAVILuaInterface@@@std@@PAX@2@@?$_Tree@V?$_Tmap_traits@PAUlua_State@@PAVILuaInterface@@U?$less@PAUlua_State@@@std@@V?$allocator@U?$pair@QAUlua_State@@PAVILuaInterface@@@std@@@4@$0A@@std@@@std@@IAE?AU?$pair@V?$_Tree_iterator@V?$_Tree_val@U?$_Tree_simple_types@U?$pair@QAUlua_State@@PAVILuaInterface@@@std@@@std@@@std@@@std@@_N@1@_NAAU?$pair@QAUlua_State@@PAVILuaInterface@@@1@PAU?$_Tree_node@U?$pair@QAUlua_State@@PAVILuaInterface@@@std@@PAX@1@@Z$0 100053a5 f i ILuaModuleManager.obj
 0001:00004956       _clear_rec                 10005956 f   kdtree.obj
 0001:000049e2       _insert_rec                100059e2 f   kdtree.obj
 0001:00004bb9       _find_nearest              10005bb9 f   kdtree.obj
 0001:00004d88       _kd_nearest_i              10005d88 f   kdtree.obj
 0001:000052dc       _hyperrect_create          100062dc f   kdtree.obj
 0001:0000539a       _hyperrect_free            1000639a f   kdtree.obj
 0001:000053c0       _hyperrect_duplicate       100063c0 f   kdtree.obj
 0001:000053de       _hyperrect_extend          100063de f   kdtree.obj
 0001:00005469       _hyperrect_dist_sq         10006469 f   kdtree.obj
 0001:0000555d       _rlist_insert              1000655d f   kdtree.obj
 0001:000055dc       _clear_results             100065dc f   kdtree.obj
 0001:000057bc       _difftime                  100067bc f   main.obj
 0001:000057d5       _gmtime                    100067d5 f   main.obj
 0001:000057e3       _time                      100067e3 f   main.obj
 0001:0000a379       __catch$?_Copy@?$basic_string@DU?$char_traits@D@std@@V?$allocator@D@2@@std@@QAEXII@Z$0 1000b379 f i main.obj
 0001:0000a3a5       __catch$?_Copy@?$basic_string@DU?$char_traits@D@std@@V?$allocator@D@2@@std@@QAEXII@Z$1 1000b3a5 f i main.obj
 0001:0000d527       __catch$?what@system_error@system@boost@@UBEPBDXZ$0 1000e527 f i nav.obj
 0001:0000de9b       $LN19                      1000ee9b     nav.obj
 0001:0000e710       ??0GroundLayerInfo@?1??GetGroundHeight@Nav@@QAE_NABVVector@@PAMPAV3@@Z@QAE@XZ 1000f710 f   nav.obj
 0001:0000f4bb       $LN53                      100104bb     nav.obj
 0001:00010c89       __catch$?_Reallocate@?$vector@U?$pair@PAVcondition_variable@boost@@PAVmutex@2@@std@@V?$allocator@U?$pair@PAVcondition_variable@boost@@PAVmutex@2@@std@@@2@@std@@IAEXI@Z$0 10011c89 f i nav.obj
 0001:0001186a       __catch$?_Buyheadnode@?$_Tree_comp_alloc@V?$_Tmap_traits@PBXUtss_data_node@detail@boost@@U?$less@PBX@std@@V?$allocator@U?$pair@QBXUtss_data_node@detail@boost@@@std@@@5@$0A@@std@@@std@@QAEPAU?$_Tree_node@U?$pair@QBXUtss_data_node@detail@boost@@@std@@PAX@2@XZ$0 1001286a f i nav.obj
 0001:000139ea       __catch$??$heap_new@V?$thread_data@V?$bind_t@XV?$mf1@XVNav@@PA_N@_mfi@boost@@V?$list2@V?$value@PAVNav@@@_bi@boost@@V?$value@PA_N@23@@_bi@3@@_bi@boost@@@detail@boost@@V?$bind_t@XV?$mf1@XVNav@@PA_N@_mfi@boost@@V?$list2@V?$value@PAVNav@@@_bi@boost@@V?$value@PA_N@23@@_bi@3@@_bi@3@@detail@boost@@YAPAV?$thread_data@V?$bind_t@XV?$mf1@XVNav@@PA_N@_mfi@boost@@V?$list2@V?$value@PAVNav@@@_bi@boost@@V?$value@PA_N@23@@_bi@3@@_bi@boost@@@01@$$QAV?$bind_t@XV?$mf1@XVNav@@PA_N@_mfi@boost@@V?$list2@V?$value@PAVNav@@@_bi@boost@@V?$value@PA_N@23@@_bi@3@@_bi@1@@Z$0 100149ea f i nav.obj
 0001:00013aa1       __catch$??$heap_new@V?$thread_data@V?$bind_t@XV?$mf3@XVNav@@PAUJobInfo_t@@PAVNode@@PAV3@@_mfi@boost@@V?$list4@V?$value@PAVNav@@@_bi@boost@@V?$value@PAUJobInfo_t@@@23@V?$value@PAVNode@@@23@V523@@_bi@3@@_bi@boost@@@detail@boost@@V?$bind_t@XV?$mf3@XVNav@@PAUJobInfo_t@@PAVNode@@PAV3@@_mfi@boost@@V?$list4@V?$value@PAVNav@@@_bi@boost@@V?$value@PAUJobInfo_t@@@23@V?$value@PAVNode@@@23@V523@@_bi@3@@_bi@3@@detail@boost@@YAPAV?$thread_data@V?$bind_t@XV?$mf3@XVNav@@PAUJobInfo_t@@PAVNode@@PAV3@@_mfi@boost@@V?$list4@V?$value@PAVNav@@@_bi@boost@@V?$value@PAUJobInfo_t@@@23@V?$value@PAVNode@@@23@V523@@_bi@3@@_bi@boost@@@01@$$QAV?$bind_t@XV?$mf3@XVNav@@PAUJobInfo_t@@PAVNode@@PAV3@@_mfi@boost@@V?$list4@V?$value@PAVNav@@@_bi@boost@@V?$value@PAUJobInfo_t@@@23@V?$value@PAVNode@@@23@V523@@_bi@3@@_bi@1@@Z$0 10014aa1 f i nav.obj
 0001:00013fff       __catch$??$_Uninitialized_move_al_unchecked1@PAU?$pair@PAVcondition_variable@boost@@PAVmutex@2@@std@@PAU12@V?$allocator@U?$pair@PAVcondition_variable@boost@@PAVmutex@2@@std@@@2@@std@@YAPAU?$pair@PAVcondition_variable@boost@@PAVmutex@2@@0@PAU10@00AAU?$_Wrap_alloc@V?$allocator@U?$pair@PAVcondition_variable@boost@@PAVmutex@2@@std@@@std@@@0@U_General_ptr_iterator_tag@0@@Z$0 10014fff f i nav.obj
 0001:0001472d       ?find_pe_section@@YAPAU_IMAGE_SECTION_HEADER@@QAEI@Z 1001572d f   LIBCMT:utility.obj
 0001:00014a83       ?dllmain_crt_dispatch@@YGHQAUHINSTANCE__@@KQAX@Z 10015a83 f   LIBCMT:dll_dllmain.obj
 0001:00014ad6       ?dllmain_crt_process_attach@@YAHQAUHINSTANCE__@@QAX@Z 10015ad6 f   LIBCMT:dll_dllmain.obj
 0001:00014be8       ?dllmain_crt_process_detach@@YAH_N@Z 10015be8 f   LIBCMT:dll_dllmain.obj
 0001:00014c65       ?dllmain_dispatch@@YAHQAUHINSTANCE__@@KQAX@Z 10015c65 f   LIBCMT:dll_dllmain.obj
 0001:00014d81       ?dllmain_raw@@YGHQAUHINSTANCE__@@KQAX@Z 10015d81 f   LIBCMT:dll_dllmain.obj
 0001:00014f00       $$000000                   10015f00     LIBCMT:llmul.obj
 0001:00014f40       $$000000                   10015f40     LIBCMT:alloca16.obj
 0001:00014f70       $$000000                   10015f70     LIBCMT:ulldiv.obj
 0001:00015350       $$000000                   10016350     LIBCMT:_sehprolg4_.obj
 0001:000154e0       $$000000                   100164e0     LIBCMT:chkstk.obj
 0001:00015650       __catch$??$?0V?$clone_impl@Ubad_alloc_@exception_detail@boost@@@exception_detail@boost@@@shared_count@detail@boost@@QAE@PAV?$clone_impl@Ubad_alloc_@exception_detail@boost@@@exception_detail@2@@Z$0 10016650 f i libboost_thread-vc140-mt-s-1_60:thread.obj
 0001:000157b0       __catch$??$?0V?$clone_impl@Ubad_exception_@exception_detail@boost@@@exception_detail@boost@@@shared_count@detail@boost@@QAE@PAV?$clone_impl@Ubad_exception_@exception_detail@boost@@@exception_detail@2@@Z$0 100167b0 f i libboost_thread-vc140-mt-s-1_60:thread.obj
 0001:00016fd0       ?SetWaitableTimerEx_emulation@detail_@this_thread@boost@@YGHPAXPBT_LARGE_INTEGER@@JP6GX0KK@Z0PAU_REASON_CONTEXT@123@K@Z 10017fd0 f   libboost_thread-vc140-mt-s-1_60:thread.obj
 0001:00017168       __catch$?call_once@boost@@YAXAAUonce_flag@1@P6AXXZ@Z$0 10018168 f i libboost_thread-vc140-mt-s-1_60:thread.obj
 0001:00017550       ?create_current_thread_tls_key@?A0x7667f72f@boost@@YAXXZ 10018550 f   libboost_thread-vc140-mt-s-1_60:thread.obj
 0001:00017a50       ?get_due_time@?A0x7667f72f@this_thread@boost@@YA?AT_LARGE_INTEGER@@ABUtimeout@detail@3@@Z 10018a50 f   libboost_thread-vc140-mt-s-1_60:thread.obj
 0001:00018af0       ?run_thread_exit_callbacks@?A0x7667f72f@boost@@YAXXZ 10019af0 f   libboost_thread-vc140-mt-s-1_60:thread.obj
 0001:00018c40       __TlgDefineProvider_annotation__Tlg_Microsoft_CRTProviderProv 10019c40 f i libvcruntime:telemetry.obj
 0001:00018e50       ?thread_start_function@?A0x7667f72f@boost@@YGIPAX@Z 10019e50 f   libboost_thread-vc140-mt-s-1_60:thread.obj
 0001:00018ed0       __catch$?thread_start_function@?A0x7667f72f@boost@@YGIPAX@Z$0 10019ed0 f   libboost_thread-vc140-mt-s-1_60:thread.obj
 0001:00018f00       ?on_tls_prepare@?A0xa0aa9219@@YAHXZ 10019f00 f   libboost_thread-vc140-mt-s-1_60:tss_pe.obj
 0001:00018f10       ?on_process_init@?A0xa0aa9219@@YAHXZ 10019f10 f   libboost_thread-vc140-mt-s-1_60:tss_pe.obj
 0001:00018f30       ?on_process_term@?A0xa0aa9219@@YAHXZ 10019f30 f   libboost_thread-vc140-mt-s-1_60:tss_pe.obj
 0001:00018f40       ?on_tls_callback@?A0xa0aa9219@@YGXPAUHINSTANCE__@@KPAX@Z 10019f40 f   libboost_thread-vc140-mt-s-1_60:tss_pe.obj
 0001:00018f50       ?dll_callback@?A0xa0aa9219@@YGHPAXK0@Z 10019f50 f   libboost_thread-vc140-mt-s-1_60:tss_pe.obj
 0001:00019150       ?default_error_condition@system_error_category@?A0x5c0157ab@system@boost@@UBE?AVerror_condition@34@H@Z 1001a150 f   libboost_system-vc140-mt-s-1_60:error_code.obj
 0001:000195cc       $LN91                      1001a5cc     libboost_system-vc140-mt-s-1_60:error_code.obj
 0001:00019614       $LN87                      1001a614     libboost_system-vc140-mt-s-1_60:error_code.obj
 0001:000196ec       $LN92                      1001a6ec     libboost_system-vc140-mt-s-1_60:error_code.obj
 0001:000196fc       $LN88                      1001a6fc     libboost_system-vc140-mt-s-1_60:error_code.obj
 0001:00019710       $LN93                      1001a710     libboost_system-vc140-mt-s-1_60:error_code.obj
 0001:0001978c       $LN89                      1001a78c     libboost_system-vc140-mt-s-1_60:error_code.obj
 0001:00019950       ?message@generic_error_category@?A0x5c0157ab@system@boost@@UBE?AV?$basic_string@DU?$char_traits@D@std@@V?$allocator@D@2@@std@@H@Z 1001a950 f   libboost_system-vc140-mt-s-1_60:error_code.obj
 0001:00019b20       ?message@system_error_category@?A0x5c0157ab@system@boost@@UBE?AV?$basic_string@DU?$char_traits@D@std@@V?$allocator@D@2@@std@@H@Z 1001ab20 f   libboost_system-vc140-mt-s-1_60:error_code.obj
 0001:00019d10       ?name@generic_error_category@?A0x5c0157ab@system@boost@@UBEPBDXZ 1001ad10 f   libboost_system-vc140-mt-s-1_60:error_code.obj
 0001:00019d20       ?name@system_error_category@?A0x5c0157ab@system@boost@@UBEPBDXZ 1001ad20 f   libboost_system-vc140-mt-s-1_60:error_code.obj
 0001:00019daf       ?initialize_legacy_wide_specifiers@@YAHXZ 1001adaf f   legacy_stdio_wide_specifiers:legacy_stdio_wide_specifiers.obj
 0001:00019dd0       $$000000                   1001add0     libvcruntime:memmove.obj
 0001:0001a034       TrailingUpVec              1001b034     libvcruntime:memmove.obj
 0001:0001a0e0       TrailingDownVec            1001b0e0     libvcruntime:memmove.obj
 0001:0001a3d8       ?CallCatchBlock@@YAPAXPAUEHExceptionRecord@@PAUEHRegistrationNode@@PAU_CONTEXT@@PBU_s_FuncInfo@@PAXHK@Z 1001b3d8 f   libvcruntime:frame.obj
 0001:0001a594       ?CallUnexpected@@YAXPBU_s_ESTypeList@@@Z 1001b594 f   libvcruntime:frame.obj
 0001:0001a5b4       __catch$?CallUnexpected@@YAXPBU_s_ESTypeList@@@Z$0 1001b5b4 f   libvcruntime:frame.obj
 0001:0001a5ce       ?CatchIt@@YAXPAUEHExceptionRecord@@PAUEHRegistrationNode@@PAU_CONTEXT@@PAXPBU_s_FuncInfo@@PBU_s_HandlerType@@PBU_s_CatchableType@@PBU_s_TryBlockMapEntry@@H1E@Z 1001b5ce f   libvcruntime:frame.obj
 0001:0001a649       ?ExFilterRethrow@@YAHPAU_EXCEPTION_POINTERS@@@Z 1001b649 f   libvcruntime:frame.obj
 0001:0001a693       ?FindHandler@@YAXPAUEHExceptionRecord@@PAUEHRegistrationNode@@PAU_CONTEXT@@PAXPBU_s_FuncInfo@@EH1@Z 1001b693 f   libvcruntime:frame.obj
 0001:0001a9f4       ?FindHandlerForForeignException@@YAXPAUEHExceptionRecord@@PAUEHRegistrationNode@@PAU_CONTEXT@@PAXPBU_s_FuncInfo@@HH1@Z 1001b9f4 f   libvcruntime:frame.obj
 0001:0001ab0f       ?IsInExceptionSpec@@YAEPAUEHExceptionRecord@@PBU_s_ESTypeList@@@Z 1001bb0f f   libvcruntime:frame.obj
 0001:0001abab       ?Is_bad_exception_allowed@@YAEPBU_s_ESTypeList@@@Z 1001bbab f   libvcruntime:frame.obj
 0001:0001b140       $$000000                   1001c140     libvcruntime:strstr.obj
 0001:0001b3b0       $$000000                   1001c3b0     libvcruntime:strchr.obj
 0001:0001b4e0       $$000000                   1001c4e0     libvcruntime:memcpy.obj
 0001:0001b744       TrailingUpVec              1001c744     libvcruntime:memcpy.obj
 0001:0001b7f0       TrailingDownVec            1001c7f0     libvcruntime:memcpy.obj
 0001:0001ba60       $$000000                   1001ca60     libvcruntime:memset.obj
 0001:0001bca0       _ValidateLocalCookies      1001cca0 f   libvcruntime:_chandler4_.obj
 0001:0001be3a       ?__telemetry_getfilename@@YAXPAUHINSTANCE__@@PA_WK@Z 1001ce3a f   libvcruntime:telemetry.obj
 0001:0001c560       $$000000                   1001d560     libvcruntime:lowhelpr.obj
 0001:0001c634       ?try_get_function@@YAPAXW4function_id@?A0xe4141595@@QBDQBW4module_id@2@2@Z 1001d634 f   libvcruntime:winapi_downlevel.obj
 0001:0001c6d4       ?try_get_module@@YAPAUHINSTANCE__@@W4module_id@?A0xe4141595@@@Z 1001d6d4 f   libvcruntime:winapi_downlevel.obj
 0001:0001c9f0       $$000000                   1001d9f0     libvcruntime:_exsup4_.obj
 0001:0001ca80       __unwind_handler4          1001da80 f   libvcruntime:_exsup4_.obj
 0001:0001cb50       $$000000                   1001db50     libvcruntime:_exsup_.obj
 0001:0001cb70       __unwind_handler           1001db70 f   libvcruntime:_exsup_.obj
 0001:0001cd00       ??$common_vsprintf@Vformat_validation_base@__crt_stdio_output@@D@@YAH_KQADIQBDQAU__crt_locale_pointers@@1@Z 1001dd00 f   libucrt:output.obj
 0001:0001ce7c       ??$common_vsprintf@Vstandard_base@__crt_stdio_output@@D@@YAH_KQADIQBDQAU__crt_locale_pointers@@1@Z 1001de7c f   libucrt:output.obj
 0001:0001cff8       ??$common_vsprintf_s@D@@YAH_KQADIQBDQAU__crt_locale_pointers@@1@Z 1001dff8 f   libucrt:output.obj
 0001:0001d43a       ??R<lambda_4f2c1eaeead2a5fc776db5b62ea0fb9b>@@QBEHXZ 1001e43a f   libucrt:output.obj
 0001:0001d769       $LN54                      1001e769     libucrt:output.obj
 0001:0001d891       $LN52                      1001e891     libucrt:output.obj
 0001:0001d9ad       $LN54                      1001e9ad     libucrt:output.obj
 0001:0001e30d       $LN19                      1001f30d     libucrt:output.obj
 0001:0001ef3b       ??$common_gmtime_s@_J@@YAHQAUtm@@QB_J@Z 1001ff3b f   libucrt:gmtime.obj
 0001:0001f088       ?compute_year@@YAHAA_JAA_N@Z 10020088 f   libucrt:gmtime.obj
 0001:0001f191       ??$common_timespec_get@U_timespec64@@@@YAHQAU_timespec64@@H@Z 10020191 f   libucrt:time.obj
 0001:0001f252       ??$common_fsopen@D@@YAPAU_iobuf@@QBD0H@Z 10020252 f   libucrt:fopen.obj
 0001:0001ffd1       $LN38                      10020fd1     libucrt:input.obj
 0001:000200d5       $LN21                      100210d5     libucrt:input.obj
 0001:000208e3       ??R<lambda_46b61f845ab707e407a45eac8005babe>@@QBE_NXZ 100218e3 f   libucrt:input.obj
 0001:000208e3       ??R<lambda_661b0265ab3c2216dbae5485f8b1b26f>@@QBE_NXZ 100218e3 f   libucrt:input.obj
 0001:000208e3       ??R<lambda_8c3c021eaae193171a8be69849aba706>@@QBE_NXZ 100218e3 f   libucrt:input.obj
 0001:0002090d       ??R<lambda_d82aded7e80d0a2836af81596bef263e>@@QBEHXZ 1002190d f   libucrt:input.obj
 0001:00023561       $LN22                      10024561     libucrt:input.obj
 0001:00023ce3       $LN18                      10024ce3     libucrt:input.obj
 0001:00023f91       _memcpy_s                  10024f91 f   libucrt:mbctype.obj
 0001:00023f91       _memcpy_s                  10024f91 f   libucrt:cfout.obj
 0001:00023f91       _memcpy_s                  10024f91 f   libucrt:input.obj
 0001:000240dc       ??$common_tox_l@$1?internal_isupper_l@@YA_NHQAU__crt_locale_pointers@@@Z$1?internal_map_lower@@YAHH0@Z@@YAHHKQAU__crt_locale_pointers@@@Z 100250dc f   libucrt:tolower_toupper.obj
 0001:00024226       ?internal_isupper_l@@YA_NHQAU__crt_locale_pointers@@@Z 10025226 f   libucrt:tolower_toupper.obj
 0001:000242d0       $$000000                   100252d0     libucrt:strncat.obj
 0001:00024410       $$000000                   10025410     libucrt:strncpy.obj
 0001:000248dd       ?atexit_exception_filter@@YAHK@Z 100258dd f   libucrt:exit.obj
 0001:000248f0       ?common_exit@@YAXHW4_crt_exit_cleanup_mode@@W4_crt_exit_return_mode@@@Z 100258f0 f   libucrt:exit.obj
 0001:00024a09       ?exit_or_terminate_process@@YAXI@Z 10025a09 f   libucrt:exit.obj
 0001:00024a4a       ?is_managed_app@@YA_NXZ    10025a4a f   libucrt:exit.obj
 0001:00024a8e       ?try_cor_exit_process@@YAXI@Z 10025a8e f   libucrt:exit.obj
 0001:00024b32       ??$common_configure_argv@D@@YAHW4_crt_argv_mode@@@Z 10025b32 f   libucrt:argv_parsing.obj
 0001:00024c56       ??$parse_command_line@D@@YAXPADPAPAD0PAI2@Z 10025c56 f   libucrt:argv_parsing.obj
 0001:00024e2b       ??$common_initialize_environment_nolock@D@@YAHXZ 10025e2b f   libucrt:environment_initialization.obj
 0001:00024e84       ??$create_environment@D@@YAQAPADQAD@Z 10025e84 f   libucrt:environment_initialization.obj
 0001:00024f55       ??$free_environment@_W@@YAXQAPA_W@Z 10025f55 f   libucrt:environment_initialization.obj
 0001:00024f55       ??$free_environment@D@@YAXQAPAD@Z 10025f55 f   libucrt:environment_initialization.obj
 0001:00024fc4       ??$uninitialize_environment_internal@D@@YAXAAPAPAD@Z 10025fc4 f   libucrt:environment_initialization.obj
 0001:00024fdf       ??$uninitialize_environment_internal@_W@@YAXAAPAPA_W@Z 10025fdf f   libucrt:environment_initialization.obj
 0001:00025147       ??R<lambda_275893d493268fdec8709772e3fcec0e>@@QBEHXZ 10026147 f   libucrt:onexit.obj
 0001:00025267       ??R<lambda_4e60a939b0d047cfe11ddc22648dfba9>@@QBEHXZ 10026267 f   libucrt:onexit.obj
 0001:0002543c       _initialize_global_variables 1002643c f   libucrt:initialization.obj
 0001:0002544e       _initialize_c              1002644e f   libucrt:initialization.obj
 0001:00025468       _uninitialize_environment  10026468 f   libucrt:initialization.obj
 0001:00025470       _initialize_global_state_isolation 10026470 f   libucrt:initialization.obj
 0001:00025470       _uninitialize_global_state_isolation 10026470 f   libucrt:initialization.obj
 0001:00025470       _initialize_environment    10026470 f   libucrt:initialization.obj
 0001:00025470       _uninitialize_c            10026470 f   libucrt:initialization.obj
 0001:00025470       _report_memory_leaks       10026470 f   libucrt:initialization.obj
 0001:00025473       _initialize_pointers       10026473 f   libucrt:initialization.obj
 0001:000254b0       _uninitialize_vcruntime    100264b0 f   libucrt:initialization.obj
 0001:000254b9       _uninitialize_allocated_memory 100264b9 f   libucrt:initialization.obj
 0001:000257aa       ??$thread_start@P6GIPAX@Z@@YGKQAX@Z 100267aa f   libucrt:thread.obj
 0001:0002585e       ?common_end_thread@@YAXI@Z 1002685e f   libucrt:thread.obj
 0001:000258b5       ?create_thread_parameter@@YAPAU__acrt_thread_parameter@@QAX0@Z 100268b5 f   libucrt:thread.obj
 0001:00025991       ??$common_strerror@D@@YAPADH@Z 10026991 f   libucrt:strerror.obj
 0001:00026915       ?construct_ptd@@YAXQAU__acrt_ptd@@QAPAU__crt_locale_data@@@Z 10027915 f   libucrt:per_thread_data.obj
 0001:0002698e       ?destroy_fls@@YGXPAX@Z     1002798e f   libucrt:per_thread_data.obj
 0001:000269af       ?destroy_ptd@@YAXQAU__acrt_ptd@@@Z 100279af f   libucrt:per_thread_data.obj
 0001:00026a58       ?replace_current_thread_locale_nolock@@YAXQAU__acrt_ptd@@QAU__crt_locale_data@@@Z 10027a58 f   libucrt:per_thread_data.obj
 0001:00026d02       ?fp_format_a@@YAHQBNPADIQADIH_NIQAU__crt_locale_pointers@@@Z 10027d02 f   libucrt:cvt.obj
 0001:00027005       ?fp_format_e@@YAHQBNQADI1IH_NIQAU__crt_locale_pointers@@@Z 10028005 f   libucrt:cvt.obj
 0001:000270a0       ?fp_format_e_internal@@YAHQADIH_NIQAU_strflt@@1QAU__crt_locale_pointers@@@Z 100280a0 f   libucrt:cvt.obj
 0001:000271eb       ?fp_format_f@@YAHQBNQADI1IHQAU__crt_locale_pointers@@@Z 100281eb f   libucrt:cvt.obj
 0001:00027278       ?fp_format_f_internal@@YAHQADIHQAU_strflt@@_NQAU__crt_locale_pointers@@@Z 10028278 f   libucrt:cvt.obj
 0001:0002734f       ?fp_format_g@@YAHQBNQADI1IH_NIQAU__crt_locale_pointers@@@Z 1002834f f   libucrt:cvt.obj
 0001:00027417       ?fp_format_nan_or_infinity@@YAHW4__acrt_fp_class@@_NPADI1@Z 10028417 f   libucrt:cvt.obj
 0001:0002750f       ?shift_bytes@@YAXQADI0H@Z  1002850f f   libucrt:cvt.obj
 0001:0002783c       ?initialize_inherited_file_handles_nolock@@YAXXZ 1002883c f   libucrt:ioinit.obj
 0001:000278f2       ?initialize_stdio_handles_nolock@@YAXXZ 100288f2 f   libucrt:ioinit.obj
 0001:00027a2a       ?try_get_function@@YAPAXW4function_id@?A0x352e5c4b@@QBDQBW4module_id@2@2@Z 10028a2a f   libucrt:winapi_thunks.obj
 0001:00027ac6       ?try_get_module@@YAPAUHINSTANCE__@@W4module_id@?A0x352e5c4b@@@Z 10028ac6 f   libucrt:winapi_thunks.obj
 0001:0002809e       ?find_or_allocate_unused_stream_nolock@@YA?AV__crt_stdio_stream@@XZ 1002909e f   libucrt:stream.obj
 0001:00028393       ??$common_openfile@D@@YAPAU_iobuf@@QBD0HV__crt_stdio_stream@@@Z 10029393 f   libucrt:openfile.obj
 0001:000287cf       _common_flush_all          100297cf f   libucrt:fflush.obj
 0001:00028ae0       ?__acrt_LCMapStringA_stat@@YAHPAU__crt_locale_pointers@@PB_WKPBDHPADHHH@Z 10029ae0 f   libucrt:lcmapstringa.obj
 0001:00028e88       ?<helper_func_cdecl>@<lambda_62bb7ecb46d0a77b591a051c43eb5ad1>@@CAHPBX0@Z 10029e88 f   libucrt:argv_wildcards.obj
 0001:00028ea0       ??$common_expand_argv_wildcards@D@@YAHQAPADQAPAPAD@Z 10029ea0 f   libucrt:argv_wildcards.obj
 0001:00029030       ??$copy_and_add_argument_to_buffer@D@@YAHQBD0IAAV?$argument_list@D@?A0xb0e4b824@@@Z 1002a030 f   libucrt:argv_wildcards.obj
 0001:000290c6       ??$expand_argument_wildcards@D@@YAHQAD0AAV?$argument_list@D@?A0xb0e4b824@@@Z 1002a0c6 f   libucrt:argv_wildcards.obj
 0001:000293a1       ??R<lambda_ad1ced32f4ac17aa236e5ef05d6b3b7c>@@QBEXXZ 1002a3a1 f   libucrt:mbctype.obj
 0001:00029465       ?CPtoLocaleName@@YAPB_WH@Z 1002a465 f   libucrt:mbctype.obj
 0001:000294a3       ?getSystemCP@@YAHH@Z       1002a4a3 f   libucrt:mbctype.obj
 0001:00029516       ?setSBCS@@YAXPAU__crt_multibyte_data@@@Z 1002a516 f   libucrt:mbctype.obj
 0001:0002957b       ?setSBUpLow@@YAXPAU__crt_multibyte_data@@@Z 1002a57b f   libucrt:mbctype.obj
 0001:0002970f       ?setmbcp_internal@@YAHH_N@Z 1002a70f f   libucrt:mbctype.obj
 0001:00029ac1       ?x_ismbbtype_l@@YAHPAU__crt_locale_pointers@@IHH@Z 1002aac1 f   libucrt:ismbbyte.obj
 0001:00029b4b       ?find_end_of_double_null_terminated_sequence@@YAPB_WQB_W@Z 1002ab4b f   libucrt:get_environment_from_os.obj
 0001:00029dea       ?get_global_action_nolock@@YAPAP6AXH@ZH@Z 1002adea f   libucrt:signal.obj
 0001:00029e2c       ?siglookup@@YAPAU__crt_signal_action_t@@HQAU1@@Z 1002ae2c f   libucrt:signal.obj
 0001:0002a130       $$000000                   1002b130     libucrt:_strnicm.obj
 0001:0002a19d       ??$common_tcsncpy_s@D@@YAHQADIQBDI@Z 1002b19d f   libucrt:strncpy_s.obj
 0001:0002ba72       ??$common_flush_and_write_nolock@D@@YAHHV__crt_stdio_stream@@@Z 1002ca72 f   libucrt:_flsbuf.obj
 0001:0002bb83       ??$write_buffer_nolock@D@@YA_NDV__crt_stdio_stream@@@Z 1002cb83 f   libucrt:_flsbuf.obj
 0001:0002be17       ?free_crt_array_internal@@YAXQAPBXI@Z 1002ce17 f   libucrt:inittime.obj
 0001:0002c482       ?GetTableIndexFromLocaleName@@YAHPB_W@Z 1002d482 f   libucrt:lcidtoname_downlevel.obj
 0001:0002c570       $$000000                   1002d570     libucrt:strncmp.obj
 0001:0002c5e8       ??$common_sopen_dispatch@D@@YAHQBDHHHQAHH@Z 1002d5e8 f   libucrt:open.obj
 0001:0002c6b4       ?configure_text_mode@@YAHHUfile_options@?A0x704126de@@HAAW4__crt_lowio_text_mode@@@Z 1002d6b4 f   libucrt:open.obj
 0001:0002c901       ?create_file@@YAPAXQB_WQAU_SECURITY_ATTRIBUTES@@Ufile_options@?A0x704126de@@@Z 1002d901 f   libucrt:open.obj
 0001:0002c926       ?decode_open_create_flags@@YAKH@Z 1002d926 f   libucrt:open.obj
 0001:0002c996       ?decode_options@@YA?AUfile_options@?A0x704126de@@HHH@Z 1002d996 f   libucrt:open.obj
 0001:0002cb12       ?truncate_ctrl_z_if_present@@YAHH@Z 1002db12 f   libucrt:open.obj
 0001:0002d08b       ?write_double_translated_ansi_nolock@@YA?AUwrite_result@?A0x47fa6670@@HQBDI@Z 1002e08b f   libucrt:write.obj
 0001:0002d23e       ?write_double_translated_unicode_nolock@@YA?AUwrite_result@?A0x47fa6670@@QBDI@Z 1002e23e f   libucrt:write.obj
 0001:0002d2ab       ?write_requires_double_translation_nolock@@YA_NH@Z 1002e2ab f   libucrt:write.obj
 0001:0002d321       ?write_text_ansi_nolock@@YA?AUwrite_result@?A0x47fa6670@@HQBDI@Z 1002e321 f   libucrt:write.obj
 0001:0002d400       ?write_text_utf16le_nolock@@YA?AUwrite_result@?A0x47fa6670@@HQBDI@Z 1002e400 f   libucrt:write.obj
 0001:0002d4ee       ?write_text_utf8_nolock@@YA?AUwrite_result@?A0x47fa6670@@HQBDI@Z 1002e4ee f   libucrt:write.obj
 0001:0002d912       ??$common_refill_and_read_nolock@D@@YAHV__crt_stdio_stream@@@Z 1002e912 f   libucrt:_filbuf.obj
 0001:0002dafb       ___get_abstract_control_sse2 1002eafb f   libucrt:_fenvutils.obj
 0001:0002db78       ___get_abstract_control_x87 1002eb78 f   libucrt:_fenvutils.obj
 0001:0002dbeb       ___get_machine_control     1002ebeb f   libucrt:_fenvutils.obj
 0001:0002dc5c       ___get_machine_control_sse2 1002ec5c f   libucrt:_fenvutils.obj
 0001:0002dcdc       ___get_machine_status_sse2 1002ecdc f   libucrt:_fenvutils.obj
 0001:0002dd3d       ___get_machine_status_x87  1002ed3d f   libucrt:_fenvutils.obj
 0001:0002dfb0       ?shortsort@@YAXPAD0IP6AHPBX1@Z@Z 1002efb0 f   libucrt:qsort.obj
 0001:0002e050       ?swap@@YAXPAD0I@Z          1002f050 f   libucrt:qsort.obj
 0001:0002e430       $$000000                   1002f430     libucrt:strpbrk.obj
 0001:0002e514       ?initialize_multibyte@@YAHXZ 1002f514 f   libucrt:multibyte_initializer.obj
 0001:0002e680       $$000000                   1002f680     libucrt:log10.obj
 0001:0002e7d0       $$000000                   1002f7d0     libucrt:ceil_pentium4.obj
 0001:0002e8ed       ??$common_lseek@_J@@YA_JH_JH@Z 1002f8ed f   libucrt:lseek.obj
 0001:0002e9f2       ??$common_lseek_nolock@_J@@YA_JH_JH@Z 1002f9f2 f   libucrt:lseek.obj
 0001:0002ee01       ??$translate_text_mode_nolock@D@@YAHHQADI@Z 1002fe01 f   libucrt:read.obj
 0001:0002ef58       ??$translate_text_mode_nolock@_W@@YAHHQA_WI@Z 1002ff58 f   libucrt:read.obj
 0001:0002f118       ?translate_ansi_or_utf8_nolock@@YAHHQADIQA_WI@Z 10030118 f   libucrt:read.obj
 0001:0002f268       ?translate_utf16_from_console_nolock@@YAHHQA_WI@Z 10030268 f   libucrt:read.obj
 0001:0002f8f0       $$000000                   100308f0     libucrt:log10_pentium4.obj
 0001:0002fb80       $$000000                   10030b80     libucrt:87tran.obj
 0001:0002fd80       $$000000                   10030d80     libucrt:87disp.obj
 0001:0002ff80       $$000000                   10030f80     libucrt:common.obj
 0001:00030110       $$000000                   10031110     libucrt:genexcep.obj
 0001:000310aa       ?__scrt_initialize_thread_safe_statics@@YAHXZ 100320aa f   LIBCMT:thread_safe_statics.obj
 0001:0003116a       ?__scrt_uninitialize_thread_safe_statics@@YAXXZ 1003216a f   LIBCMT:thread_safe_statics.obj
 0001:000312f0       $$000000                   100322f0     LIBCMT:lldiv.obj
 0001:000313a0       $$000000                   100323a0     LIBCMT:llrem.obj
 0001:000315e0       $$000000                   100325e0     LIBCMT:ulldvrm.obj
 0001:00031680       $$000000                   10032680     LIBCMT:lldvrm.obj
 0001:00031760       $$000000                   10032760     LIBCMT:llshl.obj
 0001:00031780       $$000000                   10032780     LIBCMT:ullshr.obj
 0001:000317a0       $$000000                   100327a0     LIBCMT:_sehprolg4gs_.obj
 0001:00031800       $$000000                   10032800     LIBCMT:_ftol2_.obj
 0001:000318c0       $$000000                   100328c0     libvcruntime:strrchr.obj
 0001:00031a00       $$000000                   10032a00     LIBCMT:ullrem.obj
 0001:00031a80       $$000000                   10032a80     libucrt:pow_sse2_precise.obj
 0001:000325d0       $$000000                   100335d0     libucrt:sqrt_sse2_precise.obj
 0001:000326d0       $$000000                   100336d0     libucrt:pow.obj
 0001:00032960       $$000000                   10033960     libucrt:sqrt.obj
 0001:00032a20       $$000000                   10033a20     libucrt:pow_pentium4.obj
 0001:00033540       __unwindfunclet$??0ILuaInterface@@QAE@PAUlua_State@@@Z$0 10034540 f   ILuaInterface.obj
 0001:0003354d       __unwindfunclet$??0ILuaInterface@@QAE@PAUlua_State@@@Z$1 1003454d f   ILuaInterface.obj
 0001:0003355a       __unwindfunclet$??0ILuaInterface@@QAE@PAUlua_State@@@Z$2 1003455a f   ILuaInterface.obj
 0001:00033567       __ehhandler$??0ILuaInterface@@QAE@PAUlua_State@@@Z 10034567 f   ILuaInterface.obj
 0001:00033590       __ehhandler$?end@?$_Tree@V?$_Tmap_traits@PAUlua_State@@PAVILuaInterface@@U?$less@PAUlua_State@@@std@@V?$allocator@U?$pair@QAUlua_State@@PAVILuaInterface@@@std@@@4@$0A@@std@@@std@@QAE?AV?$_Tree_iterator@V?$_Tree_val@U?$_Tree_simple_types@U?$pair@QAUlua_State@@PAVILuaInterface@@@std@@@std@@@std@@@2@XZ 10034590 f   ILuaModuleManager.obj
 0001:00033590       __ehhandler$?begin@?$_Tree@V?$_Tmap_traits@PAUlua_State@@PAVILuaInterface@@U?$less@PAUlua_State@@@std@@V?$allocator@U?$pair@QAUlua_State@@PAVILuaInterface@@@std@@@4@$0A@@std@@@std@@QAE?AV?$_Tree_iterator@V?$_Tree_val@U?$_Tree_simple_types@U?$pair@QAUlua_State@@PAVILuaInterface@@@std@@@std@@@std@@@2@XZ 10034590 f   ILuaModuleManager.obj
 0001:00033590       __ehhandler$??0?$vector@V?$shared_ptr@Ushared_state_base@detail@boost@@@boost@@V?$allocator@V?$shared_ptr@Ushared_state_base@detail@boost@@@boost@@@std@@@std@@QAE@XZ 10034590 f   nav.obj
 0001:00033590       __ehhandler$??1?$_Tree@V?$_Tmap_traits@PBXUtss_data_node@detail@boost@@U?$less@PBX@std@@V?$allocator@U?$pair@QBXUtss_data_node@detail@boost@@@std@@@5@$0A@@std@@@std@@QAE@XZ 10034590 f   nav.obj
 0001:00033590       __ehhandler$??1thread@boost@@QAE@XZ 10034590 f   main.obj
 0001:00033590       __ehhandler$??1?$intrusive_ptr@Uthread_data_base@detail@boost@@@boost@@QAE@XZ 10034590 f   main.obj
 0001:00033590       __ehhandler$??1handle_manager@win32@detail@boost@@QAE@XZ 10034590 f   nav.obj
 0001:00033590       __ehhandler$??1?$refcount_ptr@Uerror_info_container@exception_detail@boost@@@exception_detail@boost@@QAE@XZ 10034590 f   main.obj
 0001:00033590       __ehhandler$??1?$_Tree_comp_alloc@V?$_Tmap_traits@PBXUtss_data_node@detail@boost@@U?$less@PBX@std@@V?$allocator@U?$pair@QBXUtss_data_node@detail@boost@@@std@@@5@$0A@@std@@@std@@QAE@XZ 10034590 f   nav.obj
 0001:00033590       __ehhandler$?end@?$_Tree@V?$_Tmap_traits@PBXUtss_data_node@detail@boost@@U?$less@PBX@std@@V?$allocator@U?$pair@QBXUtss_data_node@detail@boost@@@std@@@5@$0A@@std@@@std@@QAE?AV?$_Tree_iterator@V?$_Tree_val@U?$_Tree_simple_types@U?$pair@QBXUtss_data_node@detail@boost@@@std@@@std@@@std@@@2@XZ 10034590 f   nav.obj
 0001:00033590       __ehhandler$?begin@?$_Tree@V?$_Tmap_traits@PBXUtss_data_node@detail@boost@@U?$less@PBX@std@@V?$allocator@U?$pair@QBXUtss_data_node@detail@boost@@@std@@@5@$0A@@std@@@std@@QAE?AV?$_Tree_iterator@V?$_Tree_val@U?$_Tree_simple_types@U?$pair@QBXUtss_data_node@detail@boost@@@std@@@std@@@std@@@2@XZ 10034590 f   nav.obj
 0001:00033590       __ehhandler$?c_str@?$basic_string@DU?$char_traits@D@std@@V?$allocator@D@2@@std@@QBEPBDXZ 10034590 f   main.obj
 0001:00033590       __ehhandler$??4thread@boost@@QAEAAV01@$$QAV01@@Z 10034590 f   nav.obj
 0001:00033590       __ehhandler$??1?$CUtlMemory@PAVNode@@H@@QAE@XZ 10034590 f   main.obj
 0001:00033590       __ehhandler$??0?$basic_string@DU?$char_traits@D@std@@V?$allocator@D@2@@std@@QAE@XZ 10034590 f   nav.obj
 0001:00033590       __ehhandler$??0?$vector@U?$pair@PAVcondition_variable@boost@@PAVmutex@2@@std@@V?$allocator@U?$pair@PAVcondition_variable@boost@@PAVmutex@2@@std@@@2@@std@@QAE@XZ 10034590 f   nav.obj
 0001:00033590       __ehhandler$??1?$vector@V?$shared_ptr@Ushared_state_base@detail@boost@@@boost@@V?$allocator@V?$shared_ptr@Ushared_state_base@detail@boost@@@boost@@@std@@@std@@QAE@XZ 10034590 f   nav.obj
 0001:00033590       __ehhandler$??1?$vector@U?$pair@PAVcondition_variable@boost@@PAVmutex@2@@std@@V?$allocator@U?$pair@PAVcondition_variable@boost@@PAVmutex@2@@std@@@2@@std@@QAE@XZ 10034590 f   nav.obj
 0001:00033590       __ehhandler$??1ILuaInterface@@QAE@XZ 10034590 f   ILuaInterface.obj
 0001:00033590       __ehhandler$??1?$CUtlLinkedList@UGroundSeedSpot@@H$0A@HV?$CUtlMemory@U?$UtlLinkedListElem_t@UGroundSeedSpot@@H@@H@@@@QAE@XZ 10034590 f   nav.obj
 0001:00033590       __ehhandler$??1?$CUtlMemory@PAUJobInfo_t@@H@@QAE@XZ 10034590 f   main.obj
 0001:00033590       __ehhandler$??1?$CUtlLinkedList@UAirSeedSpot@@H$0A@HV?$CUtlMemory@U?$UtlLinkedListElem_t@UAirSeedSpot@@H@@H@@@@QAE@XZ 10034590 f   nav.obj
 0001:00033590       __ehhandler$??_Gbad_exception@std@@UAEPAXI@Z 10034590 f   libboost_thread-vc140-mt-s-1_60:thread.obj
 0001:00033590       __ehhandler$??1?$basic_string@DU?$char_traits@D@std@@V?$allocator@D@2@@std@@QAE@XZ 10034590 f   main.obj
 0001:00033590       __ehhandler$??0bad_exception@std@@QAE@ABV01@@Z 10034590 f   libboost_thread-vc140-mt-s-1_60:thread.obj
 0001:00033590       __ehhandler$??1?$CUtlMemory@U?$UtlLinkedListElem_t@UAirSeedSpot@@H@@H@@QAE@XZ 10034590 f   nav.obj
 0001:00033590       __ehhandler$??1shared_count@detail@boost@@QAE@XZ 10034590 f   nav.obj
 0001:00033590       __ehhandler$??1?$CUtlVector@PAUJobInfo_t@@V?$CUtlMemory@PAUJobInfo_t@@H@@@@QAE@XZ 10034590 f   main.obj
 0001:00033590       __ehhandler$??1?$CUtlVector@PAVNode@@V?$CUtlMemory@PAVNode@@H@@@@QAE@XZ 10034590 f   main.obj
 0001:00033590       __ehhandler$??1?$CUtlMemory@U?$UtlLinkedListElem_t@UGroundSeedSpot@@H@@H@@QAE@XZ 10034590 f   nav.obj
 0001:000335ab       __unwindfunclet$?GetObject@ILuaInterface@@QAEPAVILuaObject@@H@Z$0 100345ab f   ILuaInterface.obj
 0001:000335ab       __unwindfunclet$?GetNewTable@ILuaInterface@@QAEPAVILuaObject@@XZ$0 100345ab f   ILuaInterface.obj
 0001:000335ab       __unwindfunclet$?GetMetaTable@ILuaInterface@@QAEPAVILuaObject@@PBDH@Z$0 100345ab f   ILuaInterface.obj
 0001:000335b8       __ehhandler$?GetNewTable@ILuaInterface@@QAEPAVILuaObject@@XZ 100345b8 f   ILuaInterface.obj
 0001:000335b8       __ehhandler$?GetObject@ILuaInterface@@QAEPAVILuaObject@@H@Z 100345b8 f   ILuaInterface.obj
 0001:000335b8       __ehhandler$?GetMetaTable@ILuaInterface@@QAEPAVILuaObject@@PBDH@Z 100345b8 f   ILuaInterface.obj
 0001:000335d3       __unwindfunclet$?GetGlobal@ILuaInterface@@QAEPAVILuaObject@@PBD@Z$0 100345d3 f   ILuaInterface.obj
 0001:000335d3       __unwindfunclet$?GetMember@ILuaObject@@QAEPAV1@PBD@Z$0 100345d3 f   ILuaObject.obj
 0001:000335e0       __ehhandler$?GetMember@ILuaObject@@QAEPAV1@PBD@Z 100345e0 f   ILuaObject.obj
 0001:000335e0       __ehhandler$?GetGlobal@ILuaInterface@@QAEPAVILuaObject@@PBD@Z 100345e0 f   ILuaInterface.obj
 0001:000335fb       __unwindfunclet$?CreateInterface@ILuaModuleManager@@QAEXPAUlua_State@@@Z$0 100345fb f   ILuaModuleManager.obj
 0001:00033608       __ehhandler$?CreateInterface@ILuaModuleManager@@QAEXPAUlua_State@@@Z 10034608 f   ILuaModuleManager.obj
 0001:00033623       __unwindfunclet$??__Emodulemanager@@YAXXZ$0 10034623 f   ILuaModuleManager.obj
 0001:00033630       __ehhandler$??__Emodulemanager@@YAXXZ 10034630 f   ILuaModuleManager.obj
 0001:00033650       __ehhandler$?commit_once_region@detail@boost@@YAXAAUonce_flag@2@AAUonce_context@12@@Z 10034650 f   libboost_thread-vc140-mt-s-1_60:thread.obj
 0001:00033650       __ehhandler$?clear@?$_Tree@V?$_Tmap_traits@PBXUtss_data_node@detail@boost@@U?$less@PBX@std@@V?$allocator@U?$pair@QBXUtss_data_node@detail@boost@@@std@@@5@$0A@@std@@@std@@QAEXXZ 10034650 f   nav.obj
 0001:00033650       __ehhandler$?rollback_once_region@detail@boost@@YAXAAUonce_flag@2@AAUonce_context@12@@Z 10034650 f   libboost_thread-vc140-mt-s-1_60:thread.obj
 0001:00033650       __ehhandler$?clear@?$_Tree@V?$_Tmap_traits@PAUlua_State@@PAVILuaInterface@@U?$less@PAUlua_State@@@std@@V?$allocator@U?$pair@QAUlua_State@@PAVILuaInterface@@@std@@@4@$0A@@std@@@std@@QAEXXZ 10034650 f   ILuaModuleManager.obj
 0001:0003366b       __ehhandler$?_Buyheadnode@?$_Tree_comp_alloc@V?$_Tmap_traits@PAUlua_State@@PAVILuaInterface@@U?$less@PAUlua_State@@@std@@V?$allocator@U?$pair@QAUlua_State@@PAVILuaInterface@@@std@@@4@$0A@@std@@@std@@QAEPAU?$_Tree_node@U?$pair@QAUlua_State@@PAVILuaInterface@@@std@@PAX@2@XZ 1003466b f   ILuaModuleManager.obj
 0001:00033690       __ehhandler$??$forward_as_tuple@ABQAUlua_State@@@std@@YA?AV?$tuple@ABQAUlua_State@@@0@ABQAUlua_State@@@Z 10034690 f   ILuaModuleManager.obj
 0001:00033690       __ehhandler$?generic_category@system@boost@@YAABVerror_category@12@XZ 10034690 f   libboost_system-vc140-mt-s-1_60:error_code.obj
 0001:00033690       __ehhandler$??1local_free_on_destruction@detail@system@boost@@QAE@XZ 10034690 f   libboost_system-vc140-mt-s-1_60:error_code.obj
 0001:00033690       __ehhandler$??1bad_exception@std@@UAE@XZ 10034690 f   libboost_thread-vc140-mt-s-1_60:thread.obj
 0001:00033690       __ehhandler$?system_category@system@boost@@YAABVerror_category@12@XZ 10034690 f   libboost_system-vc140-mt-s-1_60:error_code.obj
 0001:00033690       __ehhandler$?get_id@this_thread@boost@@YA?AVid@thread@2@XZ 10034690 f   libboost_thread-vc140-mt-s-1_60:thread.obj
 0001:000336ab       __ehhandler$??$_Buynode@ABUpiecewise_construct_t@std@@V?$tuple@ABQAUlua_State@@@2@V?$tuple@$$V@2@@?$_Tree_comp_alloc@V?$_Tmap_traits@PAUlua_State@@PAVILuaInterface@@U?$less@PAUlua_State@@@std@@V?$allocator@U?$pair@QAUlua_State@@PAVILuaInterface@@@std@@@4@$0A@@std@@@std@@QAEPAU?$_Tree_node@U?$pair@QAUlua_State@@PAVILuaInterface@@@std@@PAX@1@ABUpiecewise_construct_t@1@$$QAV?$tuple@ABQAUlua_State@@@1@$$QAV?$tuple@$$V@1@@Z 100346ab f   ILuaModuleManager.obj
 0001:000336c6       __ehhandler$??$_Insert_hint@AAU?$pair@QAUlua_State@@PAVILuaInterface@@@std@@PAU?$_Tree_node@U?$pair@QAUlua_State@@PAVILuaInterface@@@std@@PAX@2@@?$_Tree@V?$_Tmap_traits@PAUlua_State@@PAVILuaInterface@@U?$less@PAUlua_State@@@std@@V?$allocator@U?$pair@QAUlua_State@@PAVILuaInterface@@@std@@@4@$0A@@std@@@std@@IAE?AV?$_Tree_iterator@V?$_Tree_val@U?$_Tree_simple_types@U?$pair@QAUlua_State@@PAVILuaInterface@@@std@@@std@@@std@@@1@V?$_Tree_const_iterator@V?$_Tree_val@U?$_Tree_simple_types@U?$pair@QAUlua_State@@PAVILuaInterface@@@std@@@std@@@std@@@1@AAU?$pair@QAUlua_State@@PAVILuaInterface@@@1@PAU?$_Tree_node@U?$pair@QAUlua_State@@PAVILuaInterface@@@std@@PAX@1@@Z 100346c6 f   ILuaModuleManager.obj
 0001:000336e4       __ehhandler$?_Buynode0@?$_Tree_comp_alloc@V?$_Tmap_traits@PAUlua_State@@PAVILuaInterface@@U?$less@PAUlua_State@@@std@@V?$allocator@U?$pair@QAUlua_State@@PAVILuaInterface@@@std@@@4@$0A@@std@@@std@@QAEPAU?$_Tree_node@U?$pair@QAUlua_State@@PAVILuaInterface@@@std@@PAX@2@XZ 100346e4 f   ILuaModuleManager.obj
 0001:000336ff       __ehhandler$??$_Insert_nohint@AAU?$pair@QAUlua_State@@PAVILuaInterface@@@std@@PAU?$_Tree_node@U?$pair@QAUlua_State@@PAVILuaInterface@@@std@@PAX@2@@?$_Tree@V?$_Tmap_traits@PAUlua_State@@PAVILuaInterface@@U?$less@PAUlua_State@@@std@@V?$allocator@U?$pair@QAUlua_State@@PAVILuaInterface@@@std@@@4@$0A@@std@@@std@@IAE?AU?$pair@V?$_Tree_iterator@V?$_Tree_val@U?$_Tree_simple_types@U?$pair@QAUlua_State@@PAVILuaInterface@@@std@@@std@@@std@@@std@@_N@1@_NAAU?$pair@QAUlua_State@@PAVILuaInterface@@@1@PAU?$_Tree_node@U?$pair@QAUlua_State@@PAVILuaInterface@@@std@@PAX@1@@Z 100346ff f   ILuaModuleManager.obj
 0001:0003371a       __unwindfunclet$??$construct@U?$pair@QAUlua_State@@PAVILuaInterface@@@std@@ABUpiecewise_construct_t@2@V?$tuple@ABQAUlua_State@@@2@V?$tuple@$$V@2@@?$allocator@U?$_Tree_node@U?$pair@QAUlua_State@@PAVILuaInterface@@@std@@PAX@std@@@std@@QAEXPAU?$pair@QAUlua_State@@PAVILuaInterface@@@1@ABUpiecewise_construct_t@1@$$QAV?$tuple@ABQAUlua_State@@@1@$$QAV?$tuple@$$V@1@@Z$0 1003471a f   ILuaModuleManager.obj
 0001:00033728       __ehhandler$??$construct@U?$pair@QAUlua_State@@PAVILuaInterface@@@std@@ABUpiecewise_construct_t@2@V?$tuple@ABQAUlua_State@@@2@V?$tuple@$$V@2@@?$allocator@U?$_Tree_node@U?$pair@QAUlua_State@@PAVILuaInterface@@@std@@PAX@std@@@std@@QAEXPAU?$pair@QAUlua_State@@PAVILuaInterface@@@1@ABUpiecewise_construct_t@1@$$QAV?$tuple@ABQAUlua_State@@@1@$$QAV?$tuple@$$V@1@@Z 10034728 f   ILuaModuleManager.obj
 0001:00033743       __unwindfunclet$?copy_boost_exception@exception_detail@boost@@YAXPAVexception@2@PBV32@@Z$0 10034743 f   main.obj
 0001:0003374b       __unwindfunclet$?copy_boost_exception@exception_detail@boost@@YAXPAVexception@2@PBV32@@Z$1 1003474b f   main.obj
 0001:00033753       __ehhandler$?copy_boost_exception@exception_detail@boost@@YAXPAVexception@2@PBV32@@Z 10034753 f   main.obj
 0001:0003376e       __unwindfunclet$?gmtime@c_time@date_time@boost@@SAPAUtm@@PB_JPAU4@@Z$0 1003476e f   main.obj
 0001:00033776       __ehhandler$?gmtime@c_time@date_time@boost@@SAPAUtm@@PB_JPAU4@@Z 10034776 f   main.obj
 0001:00033791       __unwindfunclet$??0bad_month@gregorian@boost@@QAE@XZ$0 10034791 f   main.obj
 0001:00033791       __unwindfunclet$??0bad_day_of_month@gregorian@boost@@QAE@XZ$0 10034791 f   main.obj
 0001:00033791       __unwindfunclet$??0bad_year@gregorian@boost@@QAE@XZ$0 10034791 f   main.obj
 0001:00033799       __ehhandler$??0bad_year@gregorian@boost@@QAE@XZ 10034799 f   main.obj
 0001:00033799       __ehhandler$??0bad_day_of_month@gregorian@boost@@QAE@XZ 10034799 f   main.obj
 0001:00033799       __ehhandler$??0bad_month@gregorian@boost@@QAE@XZ 10034799 f   main.obj
 0001:000337be       __unwindfunclet$??0date@gregorian@boost@@QAE@Vgreg_year@12@Vgreg_month@12@Vgreg_day@12@@Z$0 100347be f   main.obj
 0001:000337c6       __unwindfunclet$??0date@gregorian@boost@@QAE@Vgreg_year@12@Vgreg_month@12@Vgreg_day@12@@Z$1 100347c6 f   main.obj
 0001:000337ce       __ehhandler$??0date@gregorian@boost@@QAE@Vgreg_year@12@Vgreg_month@12@Vgreg_day@12@@Z 100347ce f   main.obj
 0001:000337f3       __unwindfunclet$?nav_Create@@YAHPAUlua_State@@@Z$0 100347f3 f   main.obj
 0001:00033803       __ehhandler$?nav_Create@@YAHPAUlua_State@@@Z 10034803 f   main.obj
 0001:0003381e       __unwindfunclet$?Nav_Generate@@YAHPAUlua_State@@@Z$0 1003481e f   main.obj
 0001:0003381e       __unwindfunclet$?Nav_FindPathHull@@YAHPAUlua_State@@@Z$0 1003481e f   main.obj
 0001:0003381e       __unwindfunclet$?Nav_FindPath@@YAHPAUlua_State@@@Z$0 1003481e f   main.obj
 0001:0003382b       __ehhandler$?Nav_FindPathHull@@YAHPAUlua_State@@@Z 1003482b f   main.obj
 0001:0003382b       __ehhandler$?Nav_Generate@@YAHPAUlua_State@@@Z 1003482b f   main.obj
 0001:0003382b       __ehhandler$?Nav_FindPath@@YAHPAUlua_State@@@Z 1003482b f   main.obj
 0001:00033846       __unwindfunclet$??0JobInfo_t@@QAE@XZ$0 10034846 f   main.obj
 0001:0003384e       __ehhandler$??0JobInfo_t@@QAE@XZ 1003484e f   main.obj
 0001:00033869       __unwindfunclet$?Nav_FindPathImmediate@@YAHPAUlua_State@@@Z$0 10034869 f   main.obj
 0001:00033876       __ehhandler$?Nav_FindPathImmediate@@YAHPAUlua_State@@@Z 10034876 f   main.obj
 0001:00033891       __unwindfunclet$?on_error@?$simple_exception_policy@G$00$0BP@Ubad_day_of_month@gregorian@boost@@@CV@boost@@SAXGGW4violation_enum@23@@Z$0 10034891 f   main.obj
 0001:00033891       __unwindfunclet$?on_error@?$simple_exception_policy@G$00$0M@Ubad_month@gregorian@boost@@@CV@boost@@SAXGGW4violation_enum@23@@Z$0 10034891 f   main.obj
 0001:00033891       __unwindfunclet$?on_error@?$simple_exception_policy@G$0FHI@$0CHBA@Ubad_year@gregorian@boost@@@CV@boost@@SAXGGW4violation_enum@23@@Z$0 10034891 f   main.obj
 0001:00033899       __ehhandler$?on_error@?$simple_exception_policy@G$00$0BP@Ubad_day_of_month@gregorian@boost@@@CV@boost@@SAXGGW4violation_enum@23@@Z 10034899 f   main.obj
 0001:00033899       __ehhandler$?on_error@?$simple_exception_policy@G$00$0M@Ubad_month@gregorian@boost@@@CV@boost@@SAXGGW4violation_enum@23@@Z 10034899 f   main.obj
 0001:00033899       __ehhandler$?on_error@?$simple_exception_policy@G$0FHI@$0CHBA@Ubad_year@gregorian@boost@@@CV@boost@@SAXGGW4violation_enum@23@@Z 10034899 f   main.obj
 0001:000338b4       __ehhandler$?_Copy@?$basic_string@DU?$char_traits@D@std@@V?$allocator@D@2@@std@@QAEXII@Z 100348b4 f   main.obj
 0001:000338cf       __unwindfunclet$??$throw_exception@Vruntime_error@std@@@boost@@YAXABVruntime_error@std@@@Z$0 100348cf f   main.obj
 0001:000338d7       __ehhandler$??$throw_exception@Vruntime_error@std@@@boost@@YAXABVruntime_error@std@@@Z 100348d7 f   main.obj
 0001:000338f2       __unwindfunclet$??$throw_exception@Ubad_day_of_month@gregorian@boost@@@boost@@YAXABUbad_day_of_month@gregorian@0@@Z$0 100348f2 f   main.obj
 0001:000338fa       __ehhandler$??$throw_exception@Ubad_day_of_month@gregorian@boost@@@boost@@YAXABUbad_day_of_month@gregorian@0@@Z 100348fa f   main.obj
 0001:00033915       __unwindfunclet$??0?$CUtlLinkedList@UGroundSeedSpot@@H$0A@HV?$CUtlMemory@U?$UtlLinkedListElem_t@UGroundSeedSpot@@H@@H@@@@QAE@HH@Z$0 10034915 f   nav.obj
 0001:00033915       __unwindfunclet$??0?$CUtlVector@PAUJobInfo_t@@V?$CUtlMemory@PAUJobInfo_t@@H@@@@QAE@HH@Z$0 10034915 f   main.obj
 0001:00033915       __unwindfunclet$??0?$CUtlVector@PAVNode@@V?$CUtlMemory@PAVNode@@H@@@@QAE@HH@Z$0 10034915 f   main.obj
 0001:00033915       __unwindfunclet$??0?$CUtlLinkedList@UAirSeedSpot@@H$0A@HV?$CUtlMemory@U?$UtlLinkedListElem_t@UAirSeedSpot@@H@@H@@@@QAE@HH@Z$0 10034915 f   nav.obj
 0001:0003391d       __ehhandler$??0?$CUtlLinkedList@UGroundSeedSpot@@H$0A@HV?$CUtlMemory@U?$UtlLinkedListElem_t@UGroundSeedSpot@@H@@H@@@@QAE@HH@Z 1003491d f   nav.obj
 0001:0003391d       __ehhandler$??0?$CUtlVector@PAUJobInfo_t@@V?$CUtlMemory@PAUJobInfo_t@@H@@@@QAE@HH@Z 1003491d f   main.obj
 0001:0003391d       __ehhandler$??0?$CUtlVector@PAVNode@@V?$CUtlMemory@PAVNode@@H@@@@QAE@HH@Z 1003491d f   main.obj
 0001:0003391d       __ehhandler$??0?$CUtlLinkedList@UAirSeedSpot@@H$0A@HV?$CUtlMemory@U?$UtlLinkedListElem_t@UAirSeedSpot@@H@@H@@@@QAE@HH@Z 1003491d f   nav.obj
 0001:00033938       __unwindfunclet$??$throw_exception@Ubad_month@gregorian@boost@@@boost@@YAXABUbad_month@gregorian@0@@Z$0 10034938 f   main.obj
 0001:00033940       __ehhandler$??$throw_exception@Ubad_month@gregorian@boost@@@boost@@YAXABUbad_month@gregorian@0@@Z 10034940 f   main.obj
 0001:0003395b       __unwindfunclet$??$throw_exception@Ubad_year@gregorian@boost@@@boost@@YAXABUbad_year@gregorian@0@@Z$0 1003495b f   main.obj
 0001:00033963       __ehhandler$??$throw_exception@Ubad_year@gregorian@boost@@@boost@@YAXABUbad_year@gregorian@0@@Z 10034963 f   main.obj
 0001:0003397e       __unwindfunclet$??0?$clone_impl@U?$error_info_injector@Ubad_day_of_month@gregorian@boost@@@exception_detail@boost@@@exception_detail@boost@@QAE@ABV012@@Z$0 1003497e f   main.obj
 0001:0003397e       __unwindfunclet$??0?$clone_impl@U?$error_info_injector@Ubad_month@gregorian@boost@@@exception_detail@boost@@@exception_detail@boost@@QAE@ABV012@@Z$0 1003497e f   main.obj
 0001:0003397e       __unwindfunclet$??0?$clone_impl@U?$error_info_injector@Vbad_alloc@std@@@exception_detail@boost@@@exception_detail@boost@@QAE@ABV012@@Z$0 1003497e f   nav.obj
 0001:0003397e       __unwindfunclet$??0?$clone_impl@U?$error_info_injector@Vruntime_error@std@@@exception_detail@boost@@@exception_detail@boost@@QAE@ABV012@@Z$0 1003497e f   main.obj
 0001:0003397e       __unwindfunclet$??0?$clone_impl@U?$error_info_injector@Ubad_year@gregorian@boost@@@exception_detail@boost@@@exception_detail@boost@@QAE@ABV012@@Z$0 1003497e f   main.obj
 0001:0003399a       __ehhandler$??0?$clone_impl@U?$error_info_injector@Ubad_month@gregorian@boost@@@exception_detail@boost@@@exception_detail@boost@@QAE@ABV012@@Z 1003499a f   main.obj
 0001:0003399a       __ehhandler$??0?$clone_impl@U?$error_info_injector@Ubad_day_of_month@gregorian@boost@@@exception_detail@boost@@@exception_detail@boost@@QAE@ABV012@@Z 1003499a f   main.obj
 0001:0003399a       __ehhandler$??0?$clone_impl@U?$error_info_injector@Vruntime_error@std@@@exception_detail@boost@@@exception_detail@boost@@QAE@ABV012@@Z 1003499a f   main.obj
 0001:0003399a       __ehhandler$??0?$clone_impl@U?$error_info_injector@Vbad_alloc@std@@@exception_detail@boost@@@exception_detail@boost@@QAE@ABV012@@Z 1003499a f   nav.obj
 0001:0003399a       __ehhandler$??0?$clone_impl@U?$error_info_injector@Ubad_year@gregorian@boost@@@exception_detail@boost@@@exception_detail@boost@@QAE@ABV012@@Z 1003499a f   main.obj
 0001:000339b5       __unwindfunclet$??0?$error_info_injector@Vruntime_error@std@@@exception_detail@boost@@QAE@ABU012@@Z$0 100349b5 f   main.obj
 0001:000339b5       __unwindfunclet$??0?$error_info_injector@Vbad_alloc@std@@@exception_detail@boost@@QAE@ABU012@@Z$0 100349b5 f   nav.obj
 0001:000339bd       __ehhandler$??0?$error_info_injector@Vruntime_error@std@@@exception_detail@boost@@QAE@ABU012@@Z 100349bd f   main.obj
 0001:000339bd       __ehhandler$??0?$error_info_injector@Vbad_alloc@std@@@exception_detail@boost@@QAE@ABU012@@Z 100349bd f   nav.obj
 0001:000339d8       __unwindfunclet$??0?$error_info_injector@Ubad_year@gregorian@boost@@@exception_detail@boost@@QAE@ABU012@@Z$0 100349d8 f   main.obj
 0001:000339d8       __unwindfunclet$??0?$error_info_injector@Ubad_month@gregorian@boost@@@exception_detail@boost@@QAE@ABU012@@Z$0 100349d8 f   main.obj
 0001:000339d8       __unwindfunclet$??0?$error_info_injector@Ubad_day_of_month@gregorian@boost@@@exception_detail@boost@@QAE@ABU012@@Z$0 100349d8 f   main.obj
 0001:000339e0       __ehhandler$??0?$error_info_injector@Ubad_month@gregorian@boost@@@exception_detail@boost@@QAE@ABU012@@Z 100349e0 f   main.obj
 0001:000339e0       __ehhandler$??0?$error_info_injector@Ubad_year@gregorian@boost@@@exception_detail@boost@@QAE@ABU012@@Z 100349e0 f   main.obj
 0001:000339e0       __ehhandler$??0?$error_info_injector@Ubad_day_of_month@gregorian@boost@@@exception_detail@boost@@QAE@ABU012@@Z 100349e0 f   main.obj
 0001:000339fb       __unwindfunclet$?clone@?$clone_impl@U?$error_info_injector@Vruntime_error@std@@@exception_detail@boost@@@exception_detail@boost@@EBEPBVclone_base@23@XZ$0 100349fb f   main.obj
 0001:000339fb       __unwindfunclet$?clone@?$clone_impl@U?$error_info_injector@Ubad_year@gregorian@boost@@@exception_detail@boost@@@exception_detail@boost@@EBEPBVclone_base@23@XZ$0 100349fb f   main.obj
 0001:000339fb       __unwindfunclet$?clone@?$clone_impl@U?$error_info_injector@Ubad_day_of_month@gregorian@boost@@@exception_detail@boost@@@exception_detail@boost@@EBEPBVclone_base@23@XZ$0 100349fb f   main.obj
 0001:000339fb       __unwindfunclet$?clone@?$clone_impl@U?$error_info_injector@Vbad_alloc@std@@@exception_detail@boost@@@exception_detail@boost@@EBEPBVclone_base@23@XZ$0 100349fb f   nav.obj
 0001:000339fb       __unwindfunclet$?clone@?$clone_impl@U?$error_info_injector@Ubad_month@gregorian@boost@@@exception_detail@boost@@@exception_detail@boost@@EBEPBVclone_base@23@XZ$0 100349fb f   main.obj
 0001:00033a08       __ehhandler$?clone@?$clone_impl@U?$error_info_injector@Vruntime_error@std@@@exception_detail@boost@@@exception_detail@boost@@EBEPBVclone_base@23@XZ 10034a08 f   main.obj
 0001:00033a08       __ehhandler$?clone@?$clone_impl@U?$error_info_injector@Ubad_day_of_month@gregorian@boost@@@exception_detail@boost@@@exception_detail@boost@@EBEPBVclone_base@23@XZ 10034a08 f   main.obj
 0001:00033a08       __ehhandler$?clone@?$clone_impl@U?$error_info_injector@Ubad_year@gregorian@boost@@@exception_detail@boost@@@exception_detail@boost@@EBEPBVclone_base@23@XZ 10034a08 f   main.obj
 0001:00033a08       __ehhandler$?clone@?$clone_impl@U?$error_info_injector@Vbad_alloc@std@@@exception_detail@boost@@@exception_detail@boost@@EBEPBVclone_base@23@XZ 10034a08 f   nav.obj
 0001:00033a08       __ehhandler$?clone@?$clone_impl@U?$error_info_injector@Ubad_month@gregorian@boost@@@exception_detail@boost@@@exception_detail@boost@@EBEPBVclone_base@23@XZ 10034a08 f   main.obj
 0001:00033a23       __unwindfunclet$??0?$clone_impl@U?$error_info_injector@Ubad_year@gregorian@boost@@@exception_detail@boost@@@exception_detail@boost@@QAE@ABU?$error_info_injector@Ubad_year@gregorian@boost@@@12@@Z$0 10034a23 f   main.obj
 0001:00033a23       __unwindfunclet$??0?$clone_impl@U?$error_info_injector@Ubad_year@gregorian@boost@@@exception_detail@boost@@@exception_detail@boost@@AAE@ABV012@Uclone_tag@012@@Z$0 10034a23 f   main.obj
 0001:00033a3f       __unwindfunclet$??0?$clone_impl@U?$error_info_injector@Ubad_year@gregorian@boost@@@exception_detail@boost@@@exception_detail@boost@@QAE@ABU?$error_info_injector@Ubad_year@gregorian@boost@@@12@@Z$1 10034a3f f   main.obj
 0001:00033a3f       __unwindfunclet$??0?$clone_impl@U?$error_info_injector@Ubad_year@gregorian@boost@@@exception_detail@boost@@@exception_detail@boost@@AAE@ABV012@Uclone_tag@012@@Z$1 10034a3f f   main.obj
 0001:00033a47       __ehhandler$??0?$clone_impl@U?$error_info_injector@Ubad_year@gregorian@boost@@@exception_detail@boost@@@exception_detail@boost@@QAE@ABU?$error_info_injector@Ubad_year@gregorian@boost@@@12@@Z 10034a47 f   main.obj
 0001:00033a47       __ehhandler$??0?$clone_impl@U?$error_info_injector@Ubad_year@gregorian@boost@@@exception_detail@boost@@@exception_detail@boost@@AAE@ABV012@Uclone_tag@012@@Z 10034a47 f   main.obj
 0001:00033a62       __unwindfunclet$??0?$clone_impl@U?$error_info_injector@Ubad_month@gregorian@boost@@@exception_detail@boost@@@exception_detail@boost@@QAE@ABU?$error_info_injector@Ubad_month@gregorian@boost@@@12@@Z$0 10034a62 f   main.obj
 0001:00033a62       __unwindfunclet$??0?$clone_impl@U?$error_info_injector@Ubad_month@gregorian@boost@@@exception_detail@boost@@@exception_detail@boost@@AAE@ABV012@Uclone_tag@012@@Z$0 10034a62 f   main.obj
 0001:00033a7e       __unwindfunclet$??0?$clone_impl@U?$error_info_injector@Ubad_month@gregorian@boost@@@exception_detail@boost@@@exception_detail@boost@@AAE@ABV012@Uclone_tag@012@@Z$1 10034a7e f   main.obj
 0001:00033a7e       __unwindfunclet$??0?$clone_impl@U?$error_info_injector@Ubad_month@gregorian@boost@@@exception_detail@boost@@@exception_detail@boost@@QAE@ABU?$error_info_injector@Ubad_month@gregorian@boost@@@12@@Z$1 10034a7e f   main.obj
 0001:00033a86       __ehhandler$??0?$clone_impl@U?$error_info_injector@Ubad_month@gregorian@boost@@@exception_detail@boost@@@exception_detail@boost@@AAE@ABV012@Uclone_tag@012@@Z 10034a86 f   main.obj
 0001:00033a86       __ehhandler$??0?$clone_impl@U?$error_info_injector@Ubad_month@gregorian@boost@@@exception_detail@boost@@@exception_detail@boost@@QAE@ABU?$error_info_injector@Ubad_month@gregorian@boost@@@12@@Z 10034a86 f   main.obj
 0001:00033aa1       __unwindfunclet$??0?$clone_impl@U?$error_info_injector@Ubad_day_of_month@gregorian@boost@@@exception_detail@boost@@@exception_detail@boost@@AAE@ABV012@Uclone_tag@012@@Z$0 10034aa1 f   main.obj
 0001:00033aa1       __unwindfunclet$??0?$clone_impl@U?$error_info_injector@Ubad_day_of_month@gregorian@boost@@@exception_detail@boost@@@exception_detail@boost@@QAE@ABU?$error_info_injector@Ubad_day_of_month@gregorian@boost@@@12@@Z$0 10034aa1 f   main.obj
 0001:00033abd       __unwindfunclet$??0?$clone_impl@U?$error_info_injector@Ubad_day_of_month@gregorian@boost@@@exception_detail@boost@@@exception_detail@boost@@AAE@ABV012@Uclone_tag@012@@Z$1 10034abd f   main.obj
 0001:00033abd       __unwindfunclet$??0?$clone_impl@U?$error_info_injector@Ubad_day_of_month@gregorian@boost@@@exception_detail@boost@@@exception_detail@boost@@QAE@ABU?$error_info_injector@Ubad_day_of_month@gregorian@boost@@@12@@Z$1 10034abd f   main.obj
 0001:00033ac5       __ehhandler$??0?$clone_impl@U?$error_info_injector@Ubad_day_of_month@gregorian@boost@@@exception_detail@boost@@@exception_detail@boost@@AAE@ABV012@Uclone_tag@012@@Z 10034ac5 f   main.obj
 0001:00033ac5       __ehhandler$??0?$clone_impl@U?$error_info_injector@Ubad_day_of_month@gregorian@boost@@@exception_detail@boost@@@exception_detail@boost@@QAE@ABU?$error_info_injector@Ubad_day_of_month@gregorian@boost@@@12@@Z 10034ac5 f   main.obj
 0001:00033ae0       __unwindfunclet$??0?$clone_impl@U?$error_info_injector@Vruntime_error@std@@@exception_detail@boost@@@exception_detail@boost@@AAE@ABV012@Uclone_tag@012@@Z$0 10034ae0 f   main.obj
 0001:00033ae0       __unwindfunclet$??0?$clone_impl@U?$error_info_injector@Vruntime_error@std@@@exception_detail@boost@@@exception_detail@boost@@QAE@ABU?$error_info_injector@Vruntime_error@std@@@12@@Z$0 10034ae0 f   main.obj
 0001:00033afc       __unwindfunclet$??0?$clone_impl@U?$error_info_injector@Vruntime_error@std@@@exception_detail@boost@@@exception_detail@boost@@QAE@ABU?$error_info_injector@Vruntime_error@std@@@12@@Z$1 10034afc f   main.obj
 0001:00033afc       __unwindfunclet$??0?$clone_impl@U?$error_info_injector@Vruntime_error@std@@@exception_detail@boost@@@exception_detail@boost@@AAE@ABV012@Uclone_tag@012@@Z$1 10034afc f   main.obj
 0001:00033b04       __ehhandler$??0?$clone_impl@U?$error_info_injector@Vruntime_error@std@@@exception_detail@boost@@@exception_detail@boost@@QAE@ABU?$error_info_injector@Vruntime_error@std@@@12@@Z 10034b04 f   main.obj
 0001:00033b04       __ehhandler$??0?$clone_impl@U?$error_info_injector@Vruntime_error@std@@@exception_detail@boost@@@exception_detail@boost@@AAE@ABV012@Uclone_tag@012@@Z 10034b04 f   main.obj
 0001:00033b1f       __unwindfunclet$??0?$error_info_injector@Ubad_year@gregorian@boost@@@exception_detail@boost@@QAE@ABUbad_year@gregorian@2@@Z$0 10034b1f f   main.obj
 0001:00033b1f       __unwindfunclet$??0?$error_info_injector@Ubad_month@gregorian@boost@@@exception_detail@boost@@QAE@ABUbad_month@gregorian@2@@Z$0 10034b1f f   main.obj
 0001:00033b1f       __unwindfunclet$??0?$error_info_injector@Ubad_day_of_month@gregorian@boost@@@exception_detail@boost@@QAE@ABUbad_day_of_month@gregorian@2@@Z$0 10034b1f f   main.obj
 0001:00033b27       __ehhandler$??0?$error_info_injector@Ubad_year@gregorian@boost@@@exception_detail@boost@@QAE@ABUbad_year@gregorian@2@@Z 10034b27 f   main.obj
 0001:00033b27       __ehhandler$??0?$error_info_injector@Ubad_day_of_month@gregorian@boost@@@exception_detail@boost@@QAE@ABUbad_day_of_month@gregorian@2@@Z 10034b27 f   main.obj
 0001:00033b27       __ehhandler$??0?$error_info_injector@Ubad_month@gregorian@boost@@@exception_detail@boost@@QAE@ABUbad_month@gregorian@2@@Z 10034b27 f   main.obj
 0001:00033b42       __unwindfunclet$??0?$error_info_injector@Vbad_alloc@std@@@exception_detail@boost@@QAE@ABVbad_alloc@std@@@Z$0 10034b42 f   nav.obj
 0001:00033b42       __unwindfunclet$??0?$error_info_injector@Vruntime_error@std@@@exception_detail@boost@@QAE@ABVruntime_error@std@@@Z$0 10034b42 f   main.obj
 0001:00033b42       __unwindfunclet$??0system_error@system@boost@@QAE@ABV012@@Z$0 10034b42 f   nav.obj
 0001:00033b4a       __ehhandler$??0?$error_info_injector@Vruntime_error@std@@@exception_detail@boost@@QAE@ABVruntime_error@std@@@Z 10034b4a f   main.obj
 0001:00033b4a       __ehhandler$??0system_error@system@boost@@QAE@ABV012@@Z 10034b4a f   nav.obj
 0001:00033b4a       __ehhandler$??0?$error_info_injector@Vbad_alloc@std@@@exception_detail@boost@@QAE@ABVbad_alloc@std@@@Z 10034b4a f   nav.obj
 0001:00033b65       __unwindfunclet$?what@system_error@system@boost@@UBEPBDXZ$2 10034b65 f   nav.obj
 0001:00033b6d       __ehhandler$?what@system_error@system@boost@@UBEPBDXZ 10034b6d f   nav.obj
 0001:00033b92       __unwindfunclet$?start_thread@thread@boost@@AAEXXZ$0 10034b92 f   nav.obj
 0001:00033b92       __unwindfunclet$?create_anonymous_event@win32@detail@boost@@YAPAXW4event_type@123@W4initial_event_state@123@@Z$0 10034b92 f   nav.obj
 0001:00033b9a       __ehhandler$?start_thread@thread@boost@@AAEXXZ 10034b9a f   nav.obj
 0001:00033b9a       __ehhandler$?create_anonymous_event@win32@detail@boost@@YAPAXW4event_type@123@W4initial_event_state@123@@Z 10034b9a f   nav.obj
 0001:00033bbf       __unwindfunclet$?allocate_raw_heap_memory@detail@boost@@YAPAXI@Z$0 10034bbf f   nav.obj
 0001:00033bc7       __ehhandler$?allocate_raw_heap_memory@detail@boost@@YAPAXI@Z 10034bc7 f   nav.obj
 0001:00033be2       __unwindfunclet$??0thread_data_base@detail@boost@@QAE@XZ$0 10034be2 f   nav.obj
 0001:00033bed       __unwindfunclet$??0thread_data_base@detail@boost@@QAE@XZ$1 10034bed f   nav.obj
 0001:00033bf8       __unwindfunclet$??0thread_data_base@detail@boost@@QAE@XZ$2 10034bf8 f   nav.obj
 0001:00033c03       __unwindfunclet$??0thread_data_base@detail@boost@@QAE@XZ$3 10034c03 f   nav.obj
 0001:00033c0e       __ehhandler$??0thread_data_base@detail@boost@@QAE@XZ 10034c0e f   nav.obj
 0001:00033c29       __unwindfunclet$??0Nav@@QAE@H@Z$0 10034c29 f   nav.obj
 0001:00033c35       __unwindfunclet$??0Nav@@QAE@H@Z$1 10034c35 f   nav.obj
 0001:00033c40       __unwindfunclet$??0Nav@@QAE@H@Z$2 10034c40 f   nav.obj
 0001:00033c4b       __unwindfunclet$??0Nav@@QAE@H@Z$3 10034c4b f   nav.obj
 0001:00033c59       __unwindfunclet$??0Nav@@QAE@H@Z$4 10034c59 f   nav.obj
 0001:00033c67       __unwindfunclet$??0Nav@@QAE@H@Z$5 10034c67 f   nav.obj
 0001:00033c75       __ehhandler$??0Nav@@QAE@H@Z 10034c75 f   nav.obj
 0001:00033c90       __unwindfunclet$?AddNode@Nav@@QAEPAVNode@@ABVVector@@0W4NavDirType@@PAV2@@Z$0 10034c90 f   nav.obj
 0001:00033c9d       __ehhandler$?AddNode@Nav@@QAEPAVNode@@ABVVector@@0W4NavDirType@@PAV2@@Z 10034c9d f   nav.obj
 0001:00033cb8       __unwindfunclet$?GetNextAirSeedNode@Nav@@QAEPAVNode@@XZ$0 10034cb8 f   nav.obj
 0001:00033cb8       __unwindfunclet$?GetNextGroundSeedNode@Nav@@QAEPAVNode@@XZ$0 10034cb8 f   nav.obj
 0001:00033cc5       __ehhandler$?GetNextAirSeedNode@Nav@@QAEPAVNode@@XZ 10034cc5 f   nav.obj
 0001:00033cc5       __ehhandler$?GetNextGroundSeedNode@Nav@@QAEPAVNode@@XZ 10034cc5 f   nav.obj
 0001:00033ce0       __unwindfunclet$?Load@Nav@@QAE_NPBD@Z$0 10034ce0 f   nav.obj
 0001:00033cf0       __ehhandler$?Load@Nav@@QAE_NPBD@Z 10034cf0 f   nav.obj
 0001:00033d18       __ehhandler$?_Reallocate@?$vector@U?$pair@PAVcondition_variable@boost@@PAVmutex@2@@std@@V?$allocator@U?$pair@PAVcondition_variable@boost@@PAVmutex@2@@std@@@2@@std@@IAEXI@Z 10034d18 f   nav.obj
 0001:00033d33       __ehhandler$?_Buyheadnode@?$_Tree_comp_alloc@V?$_Tmap_traits@PBXUtss_data_node@detail@boost@@U?$less@PBX@std@@V?$allocator@U?$pair@QBXUtss_data_node@detail@boost@@@std@@@5@$0A@@std@@@std@@QAEPAU?$_Tree_node@U?$pair@QBXUtss_data_node@detail@boost@@@std@@PAX@2@XZ 10034d33 f   nav.obj
 0001:00033d4e       __unwindfunclet$??$throw_exception@Vthread_resource_error@boost@@@boost@@YAXABVthread_resource_error@0@@Z$0 10034d4e f   nav.obj
 0001:00033d56       __ehhandler$??$throw_exception@Vthread_resource_error@boost@@@boost@@YAXABVthread_resource_error@0@@Z 10034d56 f   nav.obj
 0001:00033d74       __unwindfunclet$??$throw_exception@Vbad_alloc@std@@@boost@@YAXABVbad_alloc@std@@@Z$0 10034d74 f   nav.obj
 0001:00033d7c       __ehhandler$??$throw_exception@Vbad_alloc@std@@@boost@@YAXABVbad_alloc@std@@@Z 10034d7c f   nav.obj
 0001:00033d97       __unwindfunclet$??$?0P8Nav@@AEXPA_N@ZPAV0@PA_N@thread@boost@@QAE@P8Nav@@AEXPA_N@ZPAV2@0@Z$0 10034d97 f   nav.obj
 0001:00033d9f       __ehhandler$??$?0P8Nav@@AEXPA_N@ZPAV0@PA_N@thread@boost@@QAE@P8Nav@@AEXPA_N@ZPAV2@0@Z 10034d9f f   nav.obj
 0001:00033dba       __unwindfunclet$??$?0P8Nav@@AEXPAUJobInfo_t@@PAVNode@@1@ZPAV0@PAU1@PAV2@PAV2@@thread@boost@@QAE@P8Nav@@AEXPAUJobInfo_t@@PAVNode@@1@ZPAV2@011@Z$0 10034dba f   nav.obj
 0001:00033dc2       __ehhandler$??$?0P8Nav@@AEXPAUJobInfo_t@@PAVNode@@1@ZPAV0@PAU1@PAV2@PAV2@@thread@boost@@QAE@P8Nav@@AEXPAUJobInfo_t@@PAVNode@@1@ZPAV2@011@Z 10034dc2 f   nav.obj
 0001:00033ddd       __unwindfunclet$??0?$clone_impl@U?$error_info_injector@Vthread_resource_error@boost@@@exception_detail@boost@@@exception_detail@boost@@QAE@ABV012@@Z$0 10034ddd f   nav.obj
 0001:00033df9       __ehhandler$??0?$clone_impl@U?$error_info_injector@Vthread_resource_error@boost@@@exception_detail@boost@@@exception_detail@boost@@QAE@ABV012@@Z 10034df9 f   nav.obj
 0001:00033e14       __unwindfunclet$??0?$error_info_injector@Vthread_resource_error@boost@@@exception_detail@boost@@QAE@ABU012@@Z$0 10034e14 f   nav.obj
 0001:00033e1c       __ehhandler$??0?$error_info_injector@Vthread_resource_error@boost@@@exception_detail@boost@@QAE@ABU012@@Z 10034e1c f   nav.obj
 0001:00033e37       __unwindfunclet$?clone@?$clone_impl@U?$error_info_injector@Vthread_resource_error@boost@@@exception_detail@boost@@@exception_detail@boost@@EBEPBVclone_base@23@XZ$0 10034e37 f   nav.obj
 0001:00033e44       __ehhandler$?clone@?$clone_impl@U?$error_info_injector@Vthread_resource_error@boost@@@exception_detail@boost@@@exception_detail@boost@@EBEPBVclone_base@23@XZ 10034e44 f   nav.obj
 0001:00033e5f       __unwindfunclet$??0?$clone_impl@U?$error_info_injector@Vbad_alloc@std@@@exception_detail@boost@@@exception_detail@boost@@AAE@ABV012@Uclone_tag@012@@Z$0 10034e5f f   nav.obj
 0001:00033e5f       __unwindfunclet$??0?$clone_impl@U?$error_info_injector@Vbad_alloc@std@@@exception_detail@boost@@@exception_detail@boost@@QAE@ABU?$error_info_injector@Vbad_alloc@std@@@12@@Z$0 10034e5f f   nav.obj
 0001:00033e7b       __unwindfunclet$??0?$clone_impl@U?$error_info_injector@Vbad_alloc@std@@@exception_detail@boost@@@exception_detail@boost@@QAE@ABU?$error_info_injector@Vbad_alloc@std@@@12@@Z$1 10034e7b f   nav.obj
 0001:00033e7b       __unwindfunclet$??0?$clone_impl@U?$error_info_injector@Vbad_alloc@std@@@exception_detail@boost@@@exception_detail@boost@@AAE@ABV012@Uclone_tag@012@@Z$1 10034e7b f   nav.obj
 0001:00033e83       __ehhandler$??0?$clone_impl@U?$error_info_injector@Vbad_alloc@std@@@exception_detail@boost@@@exception_detail@boost@@QAE@ABU?$error_info_injector@Vbad_alloc@std@@@12@@Z 10034e83 f   nav.obj
 0001:00033e83       __ehhandler$??0?$clone_impl@U?$error_info_injector@Vbad_alloc@std@@@exception_detail@boost@@@exception_detail@boost@@AAE@ABV012@Uclone_tag@012@@Z 10034e83 f   nav.obj
 0001:00033e9e       __unwindfunclet$??0?$clone_impl@U?$error_info_injector@Vthread_resource_error@boost@@@exception_detail@boost@@@exception_detail@boost@@QAE@ABU?$error_info_injector@Vthread_resource_error@boost@@@12@@Z$0 10034e9e f   nav.obj
 0001:00033e9e       __unwindfunclet$??0?$clone_impl@U?$error_info_injector@Vthread_resource_error@boost@@@exception_detail@boost@@@exception_detail@boost@@AAE@ABV012@Uclone_tag@012@@Z$0 10034e9e f   nav.obj
 0001:00033eba       __unwindfunclet$??0?$clone_impl@U?$error_info_injector@Vthread_resource_error@boost@@@exception_detail@boost@@@exception_detail@boost@@QAE@ABU?$error_info_injector@Vthread_resource_error@boost@@@12@@Z$1 10034eba f   nav.obj
 0001:00033eba       __unwindfunclet$??0?$clone_impl@U?$error_info_injector@Vthread_resource_error@boost@@@exception_detail@boost@@@exception_detail@boost@@AAE@ABV012@Uclone_tag@012@@Z$1 10034eba f   nav.obj
 0001:00033ec2       __ehhandler$??0?$clone_impl@U?$error_info_injector@Vthread_resource_error@boost@@@exception_detail@boost@@@exception_detail@boost@@QAE@ABU?$error_info_injector@Vthread_resource_error@boost@@@12@@Z 10034ec2 f   nav.obj
 0001:00033ec2       __ehhandler$??0?$clone_impl@U?$error_info_injector@Vthread_resource_error@boost@@@exception_detail@boost@@@exception_detail@boost@@AAE@ABV012@Uclone_tag@012@@Z 10034ec2 f   nav.obj
 0001:00033edd       __unwindfunclet$??0?$error_info_injector@Vthread_resource_error@boost@@@exception_detail@boost@@QAE@ABVthread_resource_error@2@@Z$0 10034edd f   nav.obj
 0001:00033ee5       __ehhandler$??0?$error_info_injector@Vthread_resource_error@boost@@@exception_detail@boost@@QAE@ABVthread_resource_error@2@@Z 10034ee5 f   nav.obj
 0001:00033f00       __unwindfunclet$??$heap_new@V?$thread_data@V?$bind_t@XV?$mf1@XVNav@@PA_N@_mfi@boost@@V?$list2@V?$value@PAVNav@@@_bi@boost@@V?$value@PA_N@23@@_bi@3@@_bi@boost@@@detail@boost@@V?$bind_t@XV?$mf1@XVNav@@PA_N@_mfi@boost@@V?$list2@V?$value@PAVNav@@@_bi@boost@@V?$value@PA_N@23@@_bi@3@@_bi@3@@detail@boost@@YAPAV?$thread_data@V?$bind_t@XV?$mf1@XVNav@@PA_N@_mfi@boost@@V?$list2@V?$value@PAVNav@@@_bi@boost@@V?$value@PA_N@23@@_bi@3@@_bi@boost@@@01@$$QAV?$bind_t@XV?$mf1@XVNav@@PA_N@_mfi@boost@@V?$list2@V?$value@PAVNav@@@_bi@boost@@V?$value@PA_N@23@@_bi@3@@_bi@1@@Z$2 10034f00 f   nav.obj
 0001:00033f0e       __ehhandler$??$heap_new@V?$thread_data@V?$bind_t@XV?$mf1@XVNav@@PA_N@_mfi@boost@@V?$list2@V?$value@PAVNav@@@_bi@boost@@V?$value@PA_N@23@@_bi@3@@_bi@boost@@@detail@boost@@V?$bind_t@XV?$mf1@XVNav@@PA_N@_mfi@boost@@V?$list2@V?$value@PAVNav@@@_bi@boost@@V?$value@PA_N@23@@_bi@3@@_bi@3@@detail@boost@@YAPAV?$thread_data@V?$bind_t@XV?$mf1@XVNav@@PA_N@_mfi@boost@@V?$list2@V?$value@PAVNav@@@_bi@boost@@V?$value@PA_N@23@@_bi@3@@_bi@boost@@@01@$$QAV?$bind_t@XV?$mf1@XVNav@@PA_N@_mfi@boost@@V?$list2@V?$value@PAVNav@@@_bi@boost@@V?$value@PA_N@23@@_bi@3@@_bi@1@@Z 10034f0e f   nav.obj
 0001:00033f29       __unwindfunclet$??$heap_new@V?$thread_data@V?$bind_t@XV?$mf3@XVNav@@PAUJobInfo_t@@PAVNode@@PAV3@@_mfi@boost@@V?$list4@V?$value@PAVNav@@@_bi@boost@@V?$value@PAUJobInfo_t@@@23@V?$value@PAVNode@@@23@V523@@_bi@3@@_bi@boost@@@detail@boost@@V?$bind_t@XV?$mf3@XVNav@@PAUJobInfo_t@@PAVNode@@PAV3@@_mfi@boost@@V?$list4@V?$value@PAVNav@@@_bi@boost@@V?$value@PAUJobInfo_t@@@23@V?$value@PAVNode@@@23@V523@@_bi@3@@_bi@3@@detail@boost@@YAPAV?$thread_data@V?$bind_t@XV?$mf3@XVNav@@PAUJobInfo_t@@PAVNode@@PAV3@@_mfi@boost@@V?$list4@V?$value@PAVNav@@@_bi@boost@@V?$value@PAUJobInfo_t@@@23@V?$value@PAVNode@@@23@V523@@_bi@3@@_bi@boost@@@01@$$QAV?$bind_t@XV?$mf3@XVNav@@PAUJobInfo_t@@PAVNode@@PAV3@@_mfi@boost@@V?$list4@V?$value@PAVNav@@@_bi@boost@@V?$value@PAUJobInfo_t@@@23@V?$value@PAVNode@@@23@V523@@_bi@3@@_bi@1@@Z$2 10034f29 f   nav.obj
 0001:00033f37       __ehhandler$??$heap_new@V?$thread_data@V?$bind_t@XV?$mf3@XVNav@@PAUJobInfo_t@@PAVNode@@PAV3@@_mfi@boost@@V?$list4@V?$value@PAVNav@@@_bi@boost@@V?$value@PAUJobInfo_t@@@23@V?$value@PAVNode@@@23@V523@@_bi@3@@_bi@boost@@@detail@boost@@V?$bind_t@XV?$mf3@XVNav@@PAUJobInfo_t@@PAVNode@@PAV3@@_mfi@boost@@V?$list4@V?$value@PAVNav@@@_bi@boost@@V?$value@PAUJobInfo_t@@@23@V?$value@PAVNode@@@23@V523@@_bi@3@@_bi@3@@detail@boost@@YAPAV?$thread_data@V?$bind_t@XV?$mf3@XVNav@@PAUJobInfo_t@@PAVNode@@PAV3@@_mfi@boost@@V?$list4@V?$value@PAVNav@@@_bi@boost@@V?$value@PAUJobInfo_t@@@23@V?$value@PAVNode@@@23@V523@@_bi@3@@_bi@boost@@@01@$$QAV?$bind_t@XV?$mf3@XVNav@@PAUJobInfo_t@@PAVNode@@PAV3@@_mfi@boost@@V?$list4@V?$value@PAVNav@@@_bi@boost@@V?$value@PAUJobInfo_t@@@23@V?$value@PAVNode@@@23@V523@@_bi@3@@_bi@1@@Z 10034f37 f   nav.obj
 0001:00033f52       __ehhandler$??$_Uninitialized_move_al_unchecked1@PAU?$pair@PAVcondition_variable@boost@@PAVmutex@2@@std@@PAU12@V?$allocator@U?$pair@PAVcondition_variable@boost@@PAVmutex@2@@std@@@2@@std@@YAPAU?$pair@PAVcondition_variable@boost@@PAVmutex@2@@0@PAU10@00AAU?$_Wrap_alloc@V?$allocator@U?$pair@PAVcondition_variable@boost@@PAVmutex@2@@std@@@std@@@0@U_General_ptr_iterator_tag@0@@Z 10034f52 f   nav.obj
 0001:00033f70       __unwindfunclet$??$?0V?$clone_impl@Ubad_alloc_@exception_detail@boost@@@exception_detail@boost@@@?$shared_ptr@$$CBVclone_base@exception_detail@boost@@@boost@@QAE@PAV?$clone_impl@Ubad_alloc_@exception_detail@boost@@@exception_detail@1@@Z$0 10034f70 f   libboost_thread-vc140-mt-s-1_60:thread.obj
 0001:00033f70       __unwindfunclet$??$?0V?$clone_impl@Ubad_exception_@exception_detail@boost@@@exception_detail@boost@@@?$shared_ptr@$$CBVclone_base@exception_detail@boost@@@boost@@QAE@PAV?$clone_impl@Ubad_exception_@exception_detail@boost@@@exception_detail@1@@Z$0 10034f70 f   libboost_thread-vc140-mt-s-1_60:thread.obj
 0001:00033f7b       __unwindfunclet$??$?0V?$clone_impl@Ubad_exception_@exception_detail@boost@@@exception_detail@boost@@@?$shared_ptr@$$CBVclone_base@exception_detail@boost@@@boost@@QAE@PAV?$clone_impl@Ubad_exception_@exception_detail@boost@@@exception_detail@1@@Z$2 10034f7b f   libboost_thread-vc140-mt-s-1_60:thread.obj
 0001:00033f7b       __unwindfunclet$??$?0V?$clone_impl@Ubad_alloc_@exception_detail@boost@@@exception_detail@boost@@@?$shared_ptr@$$CBVclone_base@exception_detail@boost@@@boost@@QAE@PAV?$clone_impl@Ubad_alloc_@exception_detail@boost@@@exception_detail@1@@Z$2 10034f7b f   libboost_thread-vc140-mt-s-1_60:thread.obj
 0001:00033f81       __ehhandler$??$?0V?$clone_impl@Ubad_alloc_@exception_detail@boost@@@exception_detail@boost@@@?$shared_ptr@$$CBVclone_base@exception_detail@boost@@@boost@@QAE@PAV?$clone_impl@Ubad_alloc_@exception_detail@boost@@@exception_detail@1@@Z 10034f81 f   libboost_thread-vc140-mt-s-1_60:thread.obj
 0001:00033f81       __ehhandler$??$?0V?$clone_impl@Ubad_exception_@exception_detail@boost@@@exception_detail@boost@@@?$shared_ptr@$$CBVclone_base@exception_detail@boost@@@boost@@QAE@PAV?$clone_impl@Ubad_exception_@exception_detail@boost@@@exception_detail@1@@Z 10034f81 f   libboost_thread-vc140-mt-s-1_60:thread.obj
 0001:00033fa0       __ehhandler$??$?0V?$clone_impl@Ubad_alloc_@exception_detail@boost@@@exception_detail@boost@@@shared_count@detail@boost@@QAE@PAV?$clone_impl@Ubad_alloc_@exception_detail@boost@@@exception_detail@2@@Z 10034fa0 f   libboost_thread-vc140-mt-s-1_60:thread.obj
 0001:00033fc0       __ehhandler$??$?0V?$clone_impl@Ubad_exception_@exception_detail@boost@@@exception_detail@boost@@@shared_count@detail@boost@@QAE@PAV?$clone_impl@Ubad_exception_@exception_detail@boost@@@exception_detail@2@@Z 10034fc0 f   libboost_thread-vc140-mt-s-1_60:thread.obj
 0001:00033ff0       __unwindfunclet$??$_Destroy_range@U?$_Wrap_alloc@V?$allocator@V?$intrusive_ptr@Vbasic_cv_list_entry@detail@boost@@@boost@@@std@@@std@@@std@@YAXPAV?$intrusive_ptr@Vbasic_cv_list_entry@detail@boost@@@boost@@0AAU?$_Wrap_alloc@V?$allocator@V?$intrusive_ptr@Vbasic_cv_list_entry@detail@boost@@@boost@@@std@@@0@@Z$6 10034ff0 f   libboost_thread-vc140-mt-s-1_60:thread.obj
 0001:00033ff6       __unwindfunclet$??$_Destroy_range@U?$_Wrap_alloc@V?$allocator@V?$intrusive_ptr@Vbasic_cv_list_entry@detail@boost@@@boost@@@std@@@std@@@std@@YAXPAV?$intrusive_ptr@Vbasic_cv_list_entry@detail@boost@@@boost@@0AAU?$_Wrap_alloc@V?$allocator@V?$intrusive_ptr@Vbasic_cv_list_entry@detail@boost@@@boost@@@std@@@0@@Z$7 10034ff6 f   libboost_thread-vc140-mt-s-1_60:thread.obj
 0001:00033ffc       __ehhandler$??$_Destroy_range@U?$_Wrap_alloc@V?$allocator@V?$intrusive_ptr@Vbasic_cv_list_entry@detail@boost@@@boost@@@std@@@std@@@std@@YAXPAV?$intrusive_ptr@Vbasic_cv_list_entry@detail@boost@@@boost@@0AAU?$_Wrap_alloc@V?$allocator@V?$intrusive_ptr@Vbasic_cv_list_entry@detail@boost@@@boost@@@std@@@0@@Z 10034ffc f   libboost_thread-vc140-mt-s-1_60:thread.obj
 0001:00034020       __unwindfunclet$??$enable_current_exception@U?$error_info_injector@Vlock_error@boost@@@exception_detail@boost@@@boost@@YA?AV?$clone_impl@U?$error_info_injector@Vlock_error@boost@@@exception_detail@boost@@@exception_detail@0@ABU?$error_info_injector@Vlock_error@boost@@@20@@Z$1 10035020 f   libboost_thread-vc140-mt-s-1_60:thread.obj
 0001:0003403c       __unwindfunclet$??$enable_current_exception@U?$error_info_injector@Vlock_error@boost@@@exception_detail@boost@@@boost@@YA?AV?$clone_impl@U?$error_info_injector@Vlock_error@boost@@@exception_detail@boost@@@exception_detail@0@ABU?$error_info_injector@Vlock_error@boost@@@20@@Z$2 1003503c f   libboost_thread-vc140-mt-s-1_60:thread.obj
 0001:00034044       __ehhandler$??$enable_current_exception@U?$error_info_injector@Vlock_error@boost@@@exception_detail@boost@@@boost@@YA?AV?$clone_impl@U?$error_info_injector@Vlock_error@boost@@@exception_detail@boost@@@exception_detail@0@ABU?$error_info_injector@Vlock_error@boost@@@20@@Z 10035044 f   libboost_thread-vc140-mt-s-1_60:thread.obj
 0001:00034060       __unwindfunclet$??$get_static_exception_object@Ubad_alloc_@exception_detail@boost@@@exception_detail@boost@@YA?AVexception_ptr@1@XZ$0 10035060 f   libboost_thread-vc140-mt-s-1_60:thread.obj
 0001:00034068       __unwindfunclet$??$get_static_exception_object@Ubad_alloc_@exception_detail@boost@@@exception_detail@boost@@YA?AVexception_ptr@1@XZ$6 10035068 f   libboost_thread-vc140-mt-s-1_60:thread.obj
 0001:00034081       __unwindfunclet$??$get_static_exception_object@Ubad_alloc_@exception_detail@boost@@@exception_detail@boost@@YA?AVexception_ptr@1@XZ$7 10035081 f   libboost_thread-vc140-mt-s-1_60:thread.obj
 0001:00034089       __unwindfunclet$??$get_static_exception_object@Ubad_alloc_@exception_detail@boost@@@exception_detail@boost@@YA?AVexception_ptr@1@XZ$1 10035089 f   libboost_thread-vc140-mt-s-1_60:thread.obj
 0001:00034091       __unwindfunclet$??$get_static_exception_object@Ubad_alloc_@exception_detail@boost@@@exception_detail@boost@@YA?AVexception_ptr@1@XZ$2 10035091 f   libboost_thread-vc140-mt-s-1_60:thread.obj
 0001:0003409d       __unwindfunclet$??$get_static_exception_object@Ubad_alloc_@exception_detail@boost@@@exception_detail@boost@@YA?AVexception_ptr@1@XZ$3 1003509d f   libboost_thread-vc140-mt-s-1_60:thread.obj
 0001:000340ac       __unwindfunclet$??$get_static_exception_object@Ubad_alloc_@exception_detail@boost@@@exception_detail@boost@@YA?AVexception_ptr@1@XZ$11 100350ac f   libboost_thread-vc140-mt-s-1_60:thread.obj
 0001:000340b2       __unwindfunclet$??$get_static_exception_object@Ubad_alloc_@exception_detail@boost@@@exception_detail@boost@@YA?AVexception_ptr@1@XZ$15 100350b2 f   libboost_thread-vc140-mt-s-1_60:thread.obj
 0001:000340b8       __ehhandler$??$get_static_exception_object@Ubad_alloc_@exception_detail@boost@@@exception_detail@boost@@YA?AVexception_ptr@1@XZ 100350b8 f   libboost_thread-vc140-mt-s-1_60:thread.obj
 0001:000340e0       __unwindfunclet$??$get_static_exception_object@Ubad_exception_@exception_detail@boost@@@exception_detail@boost@@YA?AVexception_ptr@1@XZ$0 100350e0 f   libboost_thread-vc140-mt-s-1_60:thread.obj
 0001:000340e8       __unwindfunclet$??$get_static_exception_object@Ubad_exception_@exception_detail@boost@@@exception_detail@boost@@YA?AVexception_ptr@1@XZ$6 100350e8 f   libboost_thread-vc140-mt-s-1_60:thread.obj
 0001:00034101       __unwindfunclet$??$get_static_exception_object@Ubad_exception_@exception_detail@boost@@@exception_detail@boost@@YA?AVexception_ptr@1@XZ$7 10035101 f   libboost_thread-vc140-mt-s-1_60:thread.obj
 0001:00034109       __unwindfunclet$??$get_static_exception_object@Ubad_exception_@exception_detail@boost@@@exception_detail@boost@@YA?AVexception_ptr@1@XZ$1 10035109 f   libboost_thread-vc140-mt-s-1_60:thread.obj
 0001:00034111       __unwindfunclet$??$get_static_exception_object@Ubad_exception_@exception_detail@boost@@@exception_detail@boost@@YA?AVexception_ptr@1@XZ$2 10035111 f   libboost_thread-vc140-mt-s-1_60:thread.obj
 0001:0003411d       __unwindfunclet$??$get_static_exception_object@Ubad_exception_@exception_detail@boost@@@exception_detail@boost@@YA?AVexception_ptr@1@XZ$3 1003511d f   libboost_thread-vc140-mt-s-1_60:thread.obj
 0001:0003412c       __unwindfunclet$??$get_static_exception_object@Ubad_exception_@exception_detail@boost@@@exception_detail@boost@@YA?AVexception_ptr@1@XZ$11 1003512c f   libboost_thread-vc140-mt-s-1_60:thread.obj
 0001:00034132       __unwindfunclet$??$get_static_exception_object@Ubad_exception_@exception_detail@boost@@@exception_detail@boost@@YA?AVexception_ptr@1@XZ$15 10035132 f   libboost_thread-vc140-mt-s-1_60:thread.obj
 0001:00034138       __ehhandler$??$get_static_exception_object@Ubad_exception_@exception_detail@boost@@@exception_detail@boost@@YA?AVexception_ptr@1@XZ 10035138 f   libboost_thread-vc140-mt-s-1_60:thread.obj
 0001:00034160       __unwindfunclet$??$throw_exception@Vlock_error@boost@@@boost@@YAXABVlock_error@0@@Z$0 10035160 f   libboost_thread-vc140-mt-s-1_60:thread.obj
 0001:0003416b       __ehhandler$??$throw_exception@Vlock_error@boost@@@boost@@YAXABVlock_error@0@@Z 1003516b f   libboost_thread-vc140-mt-s-1_60:thread.obj
 0001:00034190       __unwindfunclet$??0?$clone_impl@U?$error_info_injector@Vlock_error@boost@@@exception_detail@boost@@@exception_detail@boost@@AAE@ABV012@Uclone_tag@012@@Z$0 10035190 f   libboost_thread-vc140-mt-s-1_60:thread.obj
 0001:000341ac       __unwindfunclet$??0?$clone_impl@U?$error_info_injector@Vlock_error@boost@@@exception_detail@boost@@@exception_detail@boost@@AAE@ABV012@Uclone_tag@012@@Z$1 100351ac f   libboost_thread-vc140-mt-s-1_60:thread.obj
 0001:000341b4       __ehhandler$??0?$clone_impl@U?$error_info_injector@Vlock_error@boost@@@exception_detail@boost@@@exception_detail@boost@@AAE@ABV012@Uclone_tag@012@@Z 100351b4 f   libboost_thread-vc140-mt-s-1_60:thread.obj
 0001:000341d0       __unwindfunclet$??0?$clone_impl@U?$error_info_injector@Vlock_error@boost@@@exception_detail@boost@@@exception_detail@boost@@QAE@ABV012@@Z$0 100351d0 f   libboost_thread-vc140-mt-s-1_60:thread.obj
 0001:000341ec       __ehhandler$??0?$clone_impl@U?$error_info_injector@Vlock_error@boost@@@exception_detail@boost@@@exception_detail@boost@@QAE@ABV012@@Z 100351ec f   libboost_thread-vc140-mt-s-1_60:thread.obj
 0001:00034210       __unwindfunclet$??0?$clone_impl@Ubad_exception_@exception_detail@boost@@@exception_detail@boost@@QAE@ABV012@@Z$0 10035210 f   libboost_thread-vc140-mt-s-1_60:thread.obj
 0001:00034210       __unwindfunclet$??0?$clone_impl@Ubad_alloc_@exception_detail@boost@@@exception_detail@boost@@QAE@ABV012@@Z$0 10035210 f   libboost_thread-vc140-mt-s-1_60:thread.obj
 0001:0003422c       __ehhandler$??0?$clone_impl@Ubad_exception_@exception_detail@boost@@@exception_detail@boost@@QAE@ABV012@@Z 1003522c f   libboost_thread-vc140-mt-s-1_60:thread.obj
 0001:0003422c       __ehhandler$??0?$clone_impl@Ubad_alloc_@exception_detail@boost@@@exception_detail@boost@@QAE@ABV012@@Z 1003522c f   libboost_thread-vc140-mt-s-1_60:thread.obj
 0001:00034250       __unwindfunclet$??0?$error_info_injector@Vlock_error@boost@@@exception_detail@boost@@QAE@ABU012@@Z$0 10035250 f   libboost_thread-vc140-mt-s-1_60:thread.obj
 0001:00034258       __ehhandler$??0?$error_info_injector@Vlock_error@boost@@@exception_detail@boost@@QAE@ABU012@@Z 10035258 f   libboost_thread-vc140-mt-s-1_60:thread.obj
 0001:00034280       __unwindfunclet$??0lock_error@boost@@QAE@HPBD@Z$6 10035280 f   libboost_thread-vc140-mt-s-1_60:thread.obj
 0001:00034286       __ehhandler$??0lock_error@boost@@QAE@HPBD@Z 10035286 f   libboost_thread-vc140-mt-s-1_60:thread.obj
 0001:000342b0       __unwindfunclet$??1?$error_info_injector@Vlock_error@boost@@@exception_detail@boost@@UAE@XZ$0 100352b0 f   libboost_thread-vc140-mt-s-1_60:thread.obj
 0001:000342b0       __unwindfunclet$??__Funknown_err@?1??message@generic_error_category@?A0x5c0157ab@system@boost@@UBE?AV?$basic_string@DU?$char_traits@D@std@@V?$allocator@D@2@@std@@H@Z@YAXXZ$0 100352b0 f   libboost_system-vc140-mt-s-1_60:error_code.obj
 0001:000342b0       __unwindfunclet$??1bad_alloc_@exception_detail@boost@@UAE@XZ$1 100352b0 f   libboost_thread-vc140-mt-s-1_60:thread.obj
 0001:000342b0       __unwindfunclet$?detach@thread@boost@@QAEXXZ$2 100352b0 f   libboost_thread-vc140-mt-s-1_60:thread.obj
 0001:000342b0       __unwindfunclet$??1?$clone_impl@Ubad_exception_@exception_detail@boost@@@exception_detail@boost@@UAE@XZ$1 100352b0 f   libboost_thread-vc140-mt-s-1_60:thread.obj
 0001:000342b0       __unwindfunclet$??_G?$error_info_injector@Vlock_error@boost@@@exception_detail@boost@@UAEPAXI@Z$0 100352b0 f   libboost_thread-vc140-mt-s-1_60:thread.obj
 0001:000342b0       __unwindfunclet$??_Gbad_alloc_@exception_detail@boost@@UAEPAXI@Z$1 100352b0 f   libboost_thread-vc140-mt-s-1_60:thread.obj
 0001:000342b0       __unwindfunclet$??1?$clone_impl@U?$error_info_injector@Vlock_error@boost@@@exception_detail@boost@@@exception_detail@boost@@UAE@XZ$0 100352b0 f   libboost_thread-vc140-mt-s-1_60:thread.obj
 0001:000342b0       __unwindfunclet$??_Gbad_exception_@exception_detail@boost@@UAEPAXI@Z$1 100352b0 f   libboost_thread-vc140-mt-s-1_60:thread.obj
 0001:000342b0       __unwindfunclet$??1bad_exception_@exception_detail@boost@@UAE@XZ$1 100352b0 f   libboost_thread-vc140-mt-s-1_60:thread.obj
 0001:000342b0       __unwindfunclet$??1?$clone_impl@Ubad_alloc_@exception_detail@boost@@@exception_detail@boost@@UAE@XZ$1 100352b0 f   libboost_thread-vc140-mt-s-1_60:thread.obj
 0001:000342b6       __ehhandler$??1?$clone_impl@Ubad_alloc_@exception_detail@boost@@@exception_detail@boost@@UAE@XZ 100352b6 f   libboost_thread-vc140-mt-s-1_60:thread.obj
 0001:000342b6       __ehhandler$??_Gbad_exception_@exception_detail@boost@@UAEPAXI@Z 100352b6 f   libboost_thread-vc140-mt-s-1_60:thread.obj
 0001:000342b6       __ehhandler$??1bad_exception_@exception_detail@boost@@UAE@XZ 100352b6 f   libboost_thread-vc140-mt-s-1_60:thread.obj
 0001:000342b6       __ehhandler$??1?$clone_impl@U?$error_info_injector@Vlock_error@boost@@@exception_detail@boost@@@exception_detail@boost@@UAE@XZ 100352b6 f   libboost_thread-vc140-mt-s-1_60:thread.obj
 0001:000342b6       __ehhandler$??_G?$error_info_injector@Vlock_error@boost@@@exception_detail@boost@@UAEPAXI@Z 100352b6 f   libboost_thread-vc140-mt-s-1_60:thread.obj
 0001:000342b6       __ehhandler$??1?$error_info_injector@Vlock_error@boost@@@exception_detail@boost@@UAE@XZ 100352b6 f   libboost_thread-vc140-mt-s-1_60:thread.obj
 0001:000342b6       __ehhandler$?detach@thread@boost@@QAEXXZ 100352b6 f   libboost_thread-vc140-mt-s-1_60:thread.obj
 0001:000342b6       __ehhandler$??__Funknown_err@?1??message@generic_error_category@?A0x5c0157ab@system@boost@@UBE?AV?$basic_string@DU?$char_traits@D@std@@V?$allocator@D@2@@std@@H@Z@YAXXZ 100352b6 f   libboost_system-vc140-mt-s-1_60:error_code.obj
 0001:000342b6       __ehhandler$??1bad_alloc_@exception_detail@boost@@UAE@XZ 100352b6 f   libboost_thread-vc140-mt-s-1_60:thread.obj
 0001:000342b6       __ehhandler$??_Gbad_alloc_@exception_detail@boost@@UAEPAXI@Z 100352b6 f   libboost_thread-vc140-mt-s-1_60:thread.obj
 0001:000342b6       __ehhandler$??1?$clone_impl@Ubad_exception_@exception_detail@boost@@@exception_detail@boost@@UAE@XZ 100352b6 f   libboost_thread-vc140-mt-s-1_60:thread.obj
 0001:000342e0       __unwindfunclet$??1thread_data_base@detail@boost@@UAE@XZ$28 100352e0 f   libboost_thread-vc140-mt-s-1_60:thread.obj
 0001:000342e6       __unwindfunclet$??1thread_data_base@detail@boost@@UAE@XZ$29 100352e6 f   libboost_thread-vc140-mt-s-1_60:thread.obj
 0001:000342ec       __unwindfunclet$??1thread_data_base@detail@boost@@UAE@XZ$61 100352ec f   libboost_thread-vc140-mt-s-1_60:thread.obj
 0001:000342f2       __unwindfunclet$??1thread_data_base@detail@boost@@UAE@XZ$92 100352f2 f   libboost_thread-vc140-mt-s-1_60:thread.obj
 0001:000342f8       __unwindfunclet$??1thread_data_base@detail@boost@@UAE@XZ$109 100352f8 f   libboost_thread-vc140-mt-s-1_60:thread.obj
 0001:000342fe       __unwindfunclet$??1thread_data_base@detail@boost@@UAE@XZ$132 100352fe f   libboost_thread-vc140-mt-s-1_60:thread.obj
 0001:00034304       __ehhandler$??1thread_data_base@detail@boost@@UAE@XZ 10035304 f   libboost_thread-vc140-mt-s-1_60:thread.obj
 0001:00034320       __unwindfunclet$??__F?e@?$exception_ptr_static_exception_object@Ubad_alloc_@exception_detail@boost@@@exception_detail@boost@@2Vexception_ptr@3@B@@YAXXZ$2 10035320 f   libboost_thread-vc140-mt-s-1_60:thread.obj
 0001:00034320       __unwindfunclet$??__F?e@?$exception_ptr_static_exception_object@Ubad_exception_@exception_detail@boost@@@exception_detail@boost@@2Vexception_ptr@3@B@@YAXXZ$2 10035320 f   libboost_thread-vc140-mt-s-1_60:thread.obj
 0001:00034320       __unwindfunclet$??__Fep@?1???$get_static_exception_object@Ubad_exception_@exception_detail@boost@@@exception_detail@boost@@YA?AVexception_ptr@1@XZ@YAXXZ$2 10035320 f   libboost_thread-vc140-mt-s-1_60:thread.obj
 0001:00034320       __unwindfunclet$??__Fep@?1???$get_static_exception_object@Ubad_alloc_@exception_detail@boost@@@exception_detail@boost@@YA?AVexception_ptr@1@XZ@YAXXZ$2 10035320 f   libboost_thread-vc140-mt-s-1_60:thread.obj
 0001:00034326       __ehhandler$??__Fep@?1???$get_static_exception_object@Ubad_alloc_@exception_detail@boost@@@exception_detail@boost@@YA?AVexception_ptr@1@XZ@YAXXZ 10035326 f   libboost_thread-vc140-mt-s-1_60:thread.obj
 0001:00034326       __ehhandler$??__F?e@?$exception_ptr_static_exception_object@Ubad_alloc_@exception_detail@boost@@@exception_detail@boost@@2Vexception_ptr@3@B@@YAXXZ 10035326 f   libboost_thread-vc140-mt-s-1_60:thread.obj
 0001:00034326       __ehhandler$??__Fep@?1???$get_static_exception_object@Ubad_exception_@exception_detail@boost@@@exception_detail@boost@@YA?AVexception_ptr@1@XZ@YAXXZ 10035326 f   libboost_thread-vc140-mt-s-1_60:thread.obj
 0001:00034326       __ehhandler$??__F?e@?$exception_ptr_static_exception_object@Ubad_exception_@exception_detail@boost@@@exception_detail@boost@@2Vexception_ptr@3@B@@YAXXZ 10035326 f   libboost_thread-vc140-mt-s-1_60:thread.obj
 0001:00034350       __unwindfunclet$?call_once@boost@@YAXAAUonce_flag@1@P6AXXZ@Z$2 10035350 f   libboost_thread-vc140-mt-s-1_60:thread.obj
 0001:00034358       __unwindfunclet$?call_once@boost@@YAXAAUonce_flag@1@P6AXXZ@Z$4 10035358 f   libboost_thread-vc140-mt-s-1_60:thread.obj
 0001:0003435e       __unwindfunclet$?call_once@boost@@YAXAAUonce_flag@1@P6AXXZ@Z$7 1003535e f   libboost_thread-vc140-mt-s-1_60:thread.obj
 0001:00034364       __ehhandler$?call_once@boost@@YAXAAUonce_flag@1@P6AXXZ@Z 10035364 f   libboost_thread-vc140-mt-s-1_60:thread.obj
 0001:00034390       __unwindfunclet$?clone@?$clone_impl@U?$error_info_injector@Vlock_error@boost@@@exception_detail@boost@@@exception_detail@boost@@EBEPBVclone_base@23@XZ$0 10035390 f   libboost_thread-vc140-mt-s-1_60:thread.obj
 0001:0003439f       __ehhandler$?clone@?$clone_impl@U?$error_info_injector@Vlock_error@boost@@@exception_detail@boost@@@exception_detail@boost@@EBEPBVclone_base@23@XZ 1003539f f   libboost_thread-vc140-mt-s-1_60:thread.obj
 0001:000343c0       __unwindfunclet$?clone@?$clone_impl@Ubad_alloc_@exception_detail@boost@@@exception_detail@boost@@EBEPBVclone_base@23@XZ$0 100353c0 f   libboost_thread-vc140-mt-s-1_60:thread.obj
 0001:000343cf       __unwindfunclet$?clone@?$clone_impl@Ubad_alloc_@exception_detail@boost@@@exception_detail@boost@@EBEPBVclone_base@23@XZ$1 100353cf f   libboost_thread-vc140-mt-s-1_60:thread.obj
 0001:000343eb       __unwindfunclet$?clone@?$clone_impl@Ubad_alloc_@exception_detail@boost@@@exception_detail@boost@@EBEPBVclone_base@23@XZ$2 100353eb f   libboost_thread-vc140-mt-s-1_60:thread.obj
 0001:000343f3       __ehhandler$?clone@?$clone_impl@Ubad_alloc_@exception_detail@boost@@@exception_detail@boost@@EBEPBVclone_base@23@XZ 100353f3 f   libboost_thread-vc140-mt-s-1_60:thread.obj
 0001:00034410       __unwindfunclet$?clone@?$clone_impl@Ubad_exception_@exception_detail@boost@@@exception_detail@boost@@EBEPBVclone_base@23@XZ$0 10035410 f   libboost_thread-vc140-mt-s-1_60:thread.obj
 0001:0003441f       __unwindfunclet$?clone@?$clone_impl@Ubad_exception_@exception_detail@boost@@@exception_detail@boost@@EBEPBVclone_base@23@XZ$1 1003541f f   libboost_thread-vc140-mt-s-1_60:thread.obj
 0001:0003443b       __unwindfunclet$?clone@?$clone_impl@Ubad_exception_@exception_detail@boost@@@exception_detail@boost@@EBEPBVclone_base@23@XZ$2 1003543b f   libboost_thread-vc140-mt-s-1_60:thread.obj
 0001:00034443       __ehhandler$?clone@?$clone_impl@Ubad_exception_@exception_detail@boost@@@exception_detail@boost@@EBEPBVclone_base@23@XZ 10035443 f   libboost_thread-vc140-mt-s-1_60:thread.obj
 0001:00034460       __unwindfunclet$?do_try_join_until@thread@boost@@AAE_N_K@Z$9 10035460 f   libboost_thread-vc140-mt-s-1_60:thread.obj
 0001:00034466       __unwindfunclet$?do_try_join_until@thread@boost@@AAE_N_K@Z$0 10035466 f   libboost_thread-vc140-mt-s-1_60:thread.obj
 0001:0003446e       __ehhandler$?do_try_join_until@thread@boost@@AAE_N_K@Z 1003546e f   libboost_thread-vc140-mt-s-1_60:thread.obj
 0001:000344a0       __unwindfunclet$?do_try_join_until_noexcept@thread@boost@@AAE_N_KAA_N@Z$0 100354a0 f   libboost_thread-vc140-mt-s-1_60:thread.obj
 0001:000344a8       __unwindfunclet$?do_try_join_until_noexcept@thread@boost@@AAE_N_KAA_N@Z$4 100354a8 f   libboost_thread-vc140-mt-s-1_60:thread.obj
 0001:000344ae       __unwindfunclet$?do_try_join_until_noexcept@thread@boost@@AAE_N_KAA_N@Z$5 100354ae f   libboost_thread-vc140-mt-s-1_60:thread.obj
 0001:000344b4       __ehhandler$?do_try_join_until_noexcept@thread@boost@@AAE_N_KAA_N@Z 100354b4 f   libboost_thread-vc140-mt-s-1_60:thread.obj
 0001:000344d0       __unwindfunclet$?from_day_number@?$gregorian_calendar_base@U?$year_month_day_base@Vgreg_year@gregorian@boost@@Vgreg_month@23@Vgreg_day@23@@date_time@boost@@I@date_time@boost@@SA?AU?$year_month_day_base@Vgreg_year@gregorian@boost@@Vgreg_month@23@Vgreg_day@23@@23@I@Z$0 100354d0 f   libboost_thread-vc140-mt-s-1_60:thread.obj
 0001:000344d8       __unwindfunclet$?from_day_number@?$gregorian_calendar_base@U?$year_month_day_base@Vgreg_year@gregorian@boost@@Vgreg_month@23@Vgreg_day@23@@date_time@boost@@I@date_time@boost@@SA?AU?$year_month_day_base@Vgreg_year@gregorian@boost@@Vgreg_month@23@Vgreg_day@23@@23@I@Z$4 100354d8 f   libboost_thread-vc140-mt-s-1_60:thread.obj
 0001:000344e0       __ehhandler$?from_day_number@?$gregorian_calendar_base@U?$year_month_day_base@Vgreg_year@gregorian@boost@@Vgreg_month@23@Vgreg_day@23@@date_time@boost@@I@date_time@boost@@SA?AU?$year_month_day_base@Vgreg_year@gregorian@boost@@Vgreg_month@23@Vgreg_day@23@@23@I@Z 100354e0 f   libboost_thread-vc140-mt-s-1_60:thread.obj
 0001:00034500       __unwindfunclet$?get_event@basic_timed_mutex@detail@boost@@AAEPAXXZ$1 10035500 f   libboost_thread-vc140-mt-s-1_60:thread.obj
 0001:00034508       __ehhandler$?get_event@basic_timed_mutex@detail@boost@@AAEPAXXZ 10035508 f   libboost_thread-vc140-mt-s-1_60:thread.obj
 0001:00034530       __unwindfunclet$?get_id@thread@boost@@QBE?AVid@12@XZ$1 10035530 f   libboost_thread-vc140-mt-s-1_60:thread.obj
 0001:00034536       __unwindfunclet$?get_id@thread@boost@@QBE?AVid@12@XZ$2 10035536 f   libboost_thread-vc140-mt-s-1_60:thread.obj
 0001:0003453c       __ehhandler$?get_id@thread@boost@@QBE?AVid@12@XZ 1003553c f   libboost_thread-vc140-mt-s-1_60:thread.obj
 0001:00034560       __unwindfunclet$?interruptible_wait@this_thread@boost@@YA_NPAXUtimeout@detail@2@@Z$0 10035560 f   libboost_thread-vc140-mt-s-1_60:thread.obj
 0001:00034568       __unwindfunclet$?interruptible_wait@this_thread@boost@@YA_NPAXUtimeout@detail@2@@Z$2 10035568 f   libboost_thread-vc140-mt-s-1_60:thread.obj
 0001:0003456e       __unwindfunclet$?interruptible_wait@this_thread@boost@@YA_NPAXUtimeout@detail@2@@Z$1 1003556e f   libboost_thread-vc140-mt-s-1_60:thread.obj
 0001:00034574       __unwindfunclet$?interruptible_wait@this_thread@boost@@YA_NPAXUtimeout@detail@2@@Z$3 10035574 f   libboost_thread-vc140-mt-s-1_60:thread.obj
 0001:0003457a       __ehhandler$?interruptible_wait@this_thread@boost@@YA_NPAXUtimeout@detail@2@@Z 1003557a f   libboost_thread-vc140-mt-s-1_60:thread.obj
 0001:000345a0       __unwindfunclet$?lock@?$unique_lock@Vmutex@boost@@@boost@@QAEXXZ$8 100355a0 f   libboost_thread-vc140-mt-s-1_60:thread.obj
 0001:000345a6       __unwindfunclet$?lock@?$unique_lock@Vmutex@boost@@@boost@@QAEXXZ$0 100355a6 f   libboost_thread-vc140-mt-s-1_60:thread.obj
 0001:000345ae       __unwindfunclet$?lock@?$unique_lock@Vmutex@boost@@@boost@@QAEXXZ$1 100355ae f   libboost_thread-vc140-mt-s-1_60:thread.obj
 0001:000345b6       __ehhandler$?lock@?$unique_lock@Vmutex@boost@@@boost@@QAEXXZ 100355b6 f   libboost_thread-vc140-mt-s-1_60:thread.obj
 0001:000345e0       __unwindfunclet$?make_ready@shared_state_base@detail@boost@@QAEXXZ$13 100355e0 f   libboost_thread-vc140-mt-s-1_60:thread.obj
 0001:000345e6       __ehhandler$?make_ready@shared_state_base@detail@boost@@QAEXXZ 100355e6 f   libboost_thread-vc140-mt-s-1_60:thread.obj
 0001:00034610       __unwindfunclet$?native_handle@thread@boost@@QAEPAXXZ$2 10035610 f   libboost_thread-vc140-mt-s-1_60:thread.obj
 0001:00034616       __ehhandler$?native_handle@thread@boost@@QAEPAXXZ 10035616 f   libboost_thread-vc140-mt-s-1_60:thread.obj
 0001:00034640       __unwindfunclet$?notify_all@basic_condition_variable@detail@boost@@QAEXXZ$1 10035640 f   libboost_thread-vc140-mt-s-1_60:thread.obj
 0001:00034646       __unwindfunclet$?notify_all@basic_condition_variable@detail@boost@@QAEXXZ$16 10035646 f   libboost_thread-vc140-mt-s-1_60:thread.obj
 0001:0003464c       __unwindfunclet$?notify_all@basic_condition_variable@detail@boost@@QAEXXZ$31 1003564c f   libboost_thread-vc140-mt-s-1_60:thread.obj
 0001:00034652       __ehhandler$?notify_all@basic_condition_variable@detail@boost@@QAEXXZ 10035652 f   libboost_thread-vc140-mt-s-1_60:thread.obj
 0001:00034670       __unwindfunclet$?rethrow@?$clone_impl@U?$error_info_injector@Vlock_error@boost@@@exception_detail@boost@@@exception_detail@boost@@EBEXXZ$0 10035670 f   libboost_thread-vc140-mt-s-1_60:thread.obj
 0001:00034689       __ehhandler$?rethrow@?$clone_impl@U?$error_info_injector@Vlock_error@boost@@@exception_detail@boost@@@exception_detail@boost@@EBEXXZ 10035689 f   libboost_thread-vc140-mt-s-1_60:thread.obj
 0001:000346b0       __unwindfunclet$?rethrow@?$clone_impl@Ubad_exception_@exception_detail@boost@@@exception_detail@boost@@EBEXXZ$0 100356b0 f   libboost_thread-vc140-mt-s-1_60:thread.obj
 0001:000346b0       __unwindfunclet$?rethrow@?$clone_impl@Ubad_alloc_@exception_detail@boost@@@exception_detail@boost@@EBEXXZ$0 100356b0 f   libboost_thread-vc140-mt-s-1_60:thread.obj
 0001:000346c9       __ehhandler$?rethrow@?$clone_impl@Ubad_exception_@exception_detail@boost@@@exception_detail@boost@@EBEXXZ 100356c9 f   libboost_thread-vc140-mt-s-1_60:thread.obj
 0001:000346c9       __ehhandler$?rethrow@?$clone_impl@Ubad_alloc_@exception_detail@boost@@@exception_detail@boost@@EBEXXZ 100356c9 f   libboost_thread-vc140-mt-s-1_60:thread.obj
 0001:000346f0       __unwindfunclet$?run_thread_exit_callbacks@?A0x7667f72f@boost@@YAXXZ$0 100356f0 f   libboost_thread-vc140-mt-s-1_60:thread.obj
 0001:000346f8       __unwindfunclet$?run_thread_exit_callbacks@?A0x7667f72f@boost@@YAXXZ$31 100356f8 f   libboost_thread-vc140-mt-s-1_60:thread.obj
 0001:000346fe       __ehhandler$?run_thread_exit_callbacks@?A0x7667f72f@boost@@YAXXZ 100356fe f   libboost_thread-vc140-mt-s-1_60:thread.obj
 0001:00034720       __ehhandler$?thread_start_function@?A0x7667f72f@boost@@YGIPAX@Z 10035720 f   libboost_thread-vc140-mt-s-1_60:thread.obj
 0001:00034740       __unwindfunclet$??0error_code@system@boost@@QAE@XZ$0 10035740 f   libboost_system-vc140-mt-s-1_60:error_code.obj
 0001:00034746       __ehhandler$??0error_code@system@boost@@QAE@XZ 10035746 f   libboost_system-vc140-mt-s-1_60:error_code.obj
 0001:00034770       __unwindfunclet$??__Eerrno_ecat@system@boost@@YAXXZ$0 10035770 f   libboost_system-vc140-mt-s-1_60:error_code.obj
 0001:00034770       __unwindfunclet$??__Enative_ecat@system@boost@@YAXXZ$0 10035770 f   libboost_system-vc140-mt-s-1_60:error_code.obj
 0001:00034770       __unwindfunclet$??__Eposix_category@system@boost@@YAXXZ$0 10035770 f   libboost_system-vc140-mt-s-1_60:error_code.obj
 0001:00034776       __ehhandler$??__Enative_ecat@system@boost@@YAXXZ 10035776 f   libboost_system-vc140-mt-s-1_60:error_code.obj
 0001:00034776       __ehhandler$??__Eposix_category@system@boost@@YAXXZ 10035776 f   libboost_system-vc140-mt-s-1_60:error_code.obj
 0001:00034776       __ehhandler$??__Eerrno_ecat@system@boost@@YAXXZ 10035776 f   libboost_system-vc140-mt-s-1_60:error_code.obj
 0001:000347a0       __unwindfunclet$??1once_context@detail@boost@@QAE@XZ$0 100357a0 f   libboost_thread-vc140-mt-s-1_60:thread.obj
 0001:000347a0       __unwindfunclet$?make_error_condition@errc@system@boost@@YA?AVerror_condition@23@W4errc_t@123@@Z$0 100357a0 f   libboost_system-vc140-mt-s-1_60:error_code.obj
 0001:000347a6       __ehhandler$??1once_context@detail@boost@@QAE@XZ 100357a6 f   libboost_thread-vc140-mt-s-1_60:thread.obj
 0001:000347a6       __ehhandler$?make_error_condition@errc@system@boost@@YA?AVerror_condition@23@W4errc_t@123@@Z 100357a6 f   libboost_system-vc140-mt-s-1_60:error_code.obj
 0001:000347d0       __unwindfunclet$?message@generic_error_category@?A0x5c0157ab@system@boost@@UBE?AV?$basic_string@DU?$char_traits@D@std@@V?$allocator@D@2@@std@@H@Z$0 100357d0 f   libboost_system-vc140-mt-s-1_60:error_code.obj
 0001:000347dc       __unwindfunclet$?message@generic_error_category@?A0x5c0157ab@system@boost@@UBE?AV?$basic_string@DU?$char_traits@D@std@@V?$allocator@D@2@@std@@H@Z$1 100357dc f   libboost_system-vc140-mt-s-1_60:error_code.obj
 0001:000347f5       __unwindfunclet$?message@generic_error_category@?A0x5c0157ab@system@boost@@UBE?AV?$basic_string@DU?$char_traits@D@std@@V?$allocator@D@2@@std@@H@Z$73 100357f5 f   libboost_system-vc140-mt-s-1_60:error_code.obj
 0001:000347fb       __unwindfunclet$?message@generic_error_category@?A0x5c0157ab@system@boost@@UBE?AV?$basic_string@DU?$char_traits@D@std@@V?$allocator@D@2@@std@@H@Z$112 100357fb f   libboost_system-vc140-mt-s-1_60:error_code.obj
 0001:00034801       __unwindfunclet$?message@generic_error_category@?A0x5c0157ab@system@boost@@UBE?AV?$basic_string@DU?$char_traits@D@std@@V?$allocator@D@2@@std@@H@Z$145 10035801 f   libboost_system-vc140-mt-s-1_60:error_code.obj
 0001:00034807       __ehhandler$?message@generic_error_category@?A0x5c0157ab@system@boost@@UBE?AV?$basic_string@DU?$char_traits@D@std@@V?$allocator@D@2@@std@@H@Z 10035807 f   libboost_system-vc140-mt-s-1_60:error_code.obj
 0001:00034830       __unwindfunclet$?message@system_error_category@?A0x5c0157ab@system@boost@@UBE?AV?$basic_string@DU?$char_traits@D@std@@V?$allocator@D@2@@std@@H@Z$0 10035830 f   libboost_system-vc140-mt-s-1_60:error_code.obj
 0001:00034838       __unwindfunclet$?message@system_error_category@?A0x5c0157ab@system@boost@@UBE?AV?$basic_string@DU?$char_traits@D@std@@V?$allocator@D@2@@std@@H@Z$35 10035838 f   libboost_system-vc140-mt-s-1_60:error_code.obj
 0001:0003483e       __unwindfunclet$?message@system_error_category@?A0x5c0157ab@system@boost@@UBE?AV?$basic_string@DU?$char_traits@D@std@@V?$allocator@D@2@@std@@H@Z$2 1003583e f   libboost_system-vc140-mt-s-1_60:error_code.obj
 0001:00034846       __unwindfunclet$?message@system_error_category@?A0x5c0157ab@system@boost@@UBE?AV?$basic_string@DU?$char_traits@D@std@@V?$allocator@D@2@@std@@H@Z$119 10035846 f   libboost_system-vc140-mt-s-1_60:error_code.obj
 0001:0003484c       __unwindfunclet$?message@system_error_category@?A0x5c0157ab@system@boost@@UBE?AV?$basic_string@DU?$char_traits@D@std@@V?$allocator@D@2@@std@@H@Z$158 1003584c f   libboost_system-vc140-mt-s-1_60:error_code.obj
 0001:00034852       __unwindfunclet$?message@system_error_category@?A0x5c0157ab@system@boost@@UBE?AV?$basic_string@DU?$char_traits@D@std@@V?$allocator@D@2@@std@@H@Z$191 10035852 f   libboost_system-vc140-mt-s-1_60:error_code.obj
 0001:00034858       __ehhandler$?message@system_error_category@?A0x5c0157ab@system@boost@@UBE?AV?$basic_string@DU?$char_traits@D@std@@V?$allocator@D@2@@std@@H@Z 10035858 f   libboost_system-vc140-mt-s-1_60:error_code.obj
 0001:0003487d       __ehhandler$?CallUnexpected@@YAXPBU_s_ESTypeList@@@Z 1003587d f   libvcruntime:frame.obj
 0001:000348a0       ??__FJobQueue@@YAXXZ       100358a0 f   main.obj
 0001:000348b0       ??__F?e@?$exception_ptr_static_exception_object@Ubad_alloc_@exception_detail@boost@@@exception_detail@boost@@2Vexception_ptr@3@B@@YAXXZ 100358b0 f   libboost_thread-vc140-mt-s-1_60:thread.obj
 0001:00034920       ??__F?e@?$exception_ptr_static_exception_object@Ubad_exception_@exception_detail@boost@@@exception_detail@boost@@2Vexception_ptr@3@B@@YAXXZ 10035920 f   libboost_thread-vc140-mt-s-1_60:thread.obj
 0001:00034990       ??__Fep@?1???$get_static_exception_object@Ubad_alloc_@exception_detail@boost@@@exception_detail@boost@@YA?AVexception_ptr@1@XZ@YAXXZ 10035990 f   libboost_thread-vc140-mt-s-1_60:thread.obj
 0001:00034a00       ??__Fep@?1???$get_static_exception_object@Ubad_exception_@exception_detail@boost@@@exception_detail@boost@@YA?AVexception_ptr@1@XZ@YAXXZ 10035a00 f   libboost_thread-vc140-mt-s-1_60:thread.obj
 0001:00034a70       ??__Fgeneric_category_const@?1??generic_category@system@boost@@YAABVerror_category@12@XZ@YAXXZ 10035a70 f   libboost_system-vc140-mt-s-1_60:error_code.obj
 0001:00034a80       ??__Fsystem_category_const@?1??system_category@system@boost@@YAABVerror_category@12@XZ@YAXXZ 10035a80 f   libboost_system-vc140-mt-s-1_60:error_code.obj
 0001:00034a90       ??__Funknown_err@?1??message@generic_error_category@?A0x5c0157ab@system@boost@@UBE?AV?$basic_string@DU?$char_traits@D@std@@V?$allocator@D@2@@std@@H@Z@YAXXZ 10035a90 f   libboost_system-vc140-mt-s-1_60:error_code.obj
 0002:00000198       ??e$initializer$@?$exception_ptr_static_exception_object@Ubad_alloc_@exception_detail@boost@@@exception_detail@boost@@2P6AXXZA@@3P6AXXZA 10036198     libboost_thread-vc140-mt-s-1_60:thread.obj
 0002:0000019c       ??e$initializer$@?$exception_ptr_static_exception_object@Ubad_exception_@exception_detail@boost@@@exception_detail@boost@@2P6AXXZA@@3P6AXXZA 1003619c     libboost_thread-vc140-mt-s-1_60:thread.obj
 0002:000001a4       ?posix_category$initializer$@system@boost@@3P6AXXZA 100361a4     libboost_system-vc140-mt-s-1_60:error_code.obj
 0002:000001a8       ?errno_ecat$initializer$@system@boost@@3P6AXXZA 100361a8     libboost_system-vc140-mt-s-1_60:error_code.obj
 0002:000001ac       ?native_ecat$initializer$@system@boost@@3P6AXXZA 100361ac     libboost_system-vc140-mt-s-1_60:error_code.obj
 0002:000001b0       ?throws$initializer$@system@boost@@3P6AXXZA 100361b0     libboost_system-vc140-mt-s-1_60:error_code.obj
 0002:000001b4       ?vec2_origin$initializer$@@3P6AXXZA 100361b4     ILuaInterface.obj
 0002:000001b8       ?vec2_invalid$initializer$@@3P6AXXZA 100361b8     ILuaInterface.obj
 0002:000001bc       ?vec2_origin$initializer$@@3P6AXXZA 100361bc     ILuaModuleManager.obj
 0002:000001c0       ?vec2_invalid$initializer$@@3P6AXXZA 100361c0     ILuaModuleManager.obj
 0002:000001c4       ?modulemanager$initializer$@@3P6AXXZA 100361c4     ILuaModuleManager.obj
 0002:000001c8       ?vec2_origin$initializer$@@3P6AXXZA 100361c8     ILuaObject.obj
 0002:000001cc       ?vec2_invalid$initializer$@@3P6AXXZA 100361cc     ILuaObject.obj
 0002:000001d0       ?vec2_origin$initializer$@@3P6AXXZA 100361d0     main.obj
 0002:000001d4       ?vec2_invalid$initializer$@@3P6AXXZA 100361d4     main.obj
 0002:000001d8       ?vec4_origin$initializer$@@3P6AXXZA 100361d8     main.obj
 0002:000001dc       ?vec4_invalid$initializer$@@3P6AXXZA 100361dc     main.obj
 0002:000001e0       ?posix_category$initializer$@system@boost@@3P6AXXZA 100361e0     main.obj
 0002:000001e4       ?errno_ecat$initializer$@system@boost@@3P6AXXZA 100361e4     main.obj
 0002:000001e8       ?native_ecat$initializer$@system@boost@@3P6AXXZA 100361e8     main.obj
 0002:000001ec       ?_1$initializer$@placeholders@boost@@3P6AXXZA 100361ec     main.obj
 0002:000001f0       ?_2$initializer$@placeholders@boost@@3P6AXXZA 100361f0     main.obj
 0002:000001f4       ?_3$initializer$@placeholders@boost@@3P6AXXZA 100361f4     main.obj
 0002:000001f8       ?_4$initializer$@placeholders@boost@@3P6AXXZA 100361f8     main.obj
 0002:000001fc       ?_5$initializer$@placeholders@boost@@3P6AXXZA 100361fc     main.obj
 0002:00000200       ?_6$initializer$@placeholders@boost@@3P6AXXZA 10036200     main.obj
 0002:00000204       ?_7$initializer$@placeholders@boost@@3P6AXXZA 10036204     main.obj
 0002:00000208       ?_8$initializer$@placeholders@boost@@3P6AXXZA 10036208     main.obj
 0002:0000020c       ?_9$initializer$@placeholders@boost@@3P6AXXZA 1003620c     main.obj
 0002:00000210       ?vector_origin$initializer$@@3P6AXXZA 10036210     main.obj
 0002:00000214       ?JobQueue$initializer$@@3P6AXXZA 10036214     main.obj
 0002:00000218       ?timeout$initializer$@@3P6AXXZA 10036218     main.obj
 0002:0000021c       ?sleep_time$initializer$@@3P6AXXZA 1003621c     main.obj
 0002:00000220       ?vec2_origin$initializer$@@3P6AXXZA 10036220     nav.obj
 0002:00000224       ?vec2_invalid$initializer$@@3P6AXXZA 10036224     nav.obj
 0002:00000228       ?posix_category$initializer$@system@boost@@3P6AXXZA 10036228     nav.obj
 0002:0000022c       ?errno_ecat$initializer$@system@boost@@3P6AXXZA 1003622c     nav.obj
 0002:00000230       ?native_ecat$initializer$@system@boost@@3P6AXXZA 10036230     nav.obj
 0002:00000234       ?_1$initializer$@placeholders@boost@@3P6AXXZA 10036234     nav.obj
 0002:00000238       ?_2$initializer$@placeholders@boost@@3P6AXXZA 10036238     nav.obj
 0002:0000023c       ?_3$initializer$@placeholders@boost@@3P6AXXZA 1003623c     nav.obj
 0002:00000240       ?_4$initializer$@placeholders@boost@@3P6AXXZA 10036240     nav.obj
 0002:00000244       ?_5$initializer$@placeholders@boost@@3P6AXXZA 10036244     nav.obj
 0002:00000248       ?_6$initializer$@placeholders@boost@@3P6AXXZA 10036248     nav.obj
 0002:0000024c       ?_7$initializer$@placeholders@boost@@3P6AXXZA 1003624c     nav.obj
 0002:00000250       ?_8$initializer$@placeholders@boost@@3P6AXXZA 10036250     nav.obj
 0002:00000254       ?_9$initializer$@placeholders@boost@@3P6AXXZA 10036254     nav.obj
 0002:00000258       ?vec4_origin$initializer$@@3P6AXXZA 10036258     nav.obj
 0002:0000025c       ?vec4_invalid$initializer$@@3P6AXXZA 1003625c     nav.obj
 0002:00000260       ?vector_origin$initializer$@@3P6AXXZA 10036260     nav.obj
 0002:00000264       ?vec2_origin$initializer$@@3P6AXXZA 10036264     node.obj
 0002:00000268       ?vec2_invalid$initializer$@@3P6AXXZA 10036268     node.obj
 0002:0000026c       ?posix_category$initializer$@system@boost@@3P6AXXZA 1003626c     node.obj
 0002:00000270       ?errno_ecat$initializer$@system@boost@@3P6AXXZA 10036270     node.obj
 0002:00000274       ?native_ecat$initializer$@system@boost@@3P6AXXZA 10036274     node.obj
 0002:00000278       ?_1$initializer$@placeholders@boost@@3P6AXXZA 10036278     node.obj
 0002:0000027c       ?_2$initializer$@placeholders@boost@@3P6AXXZA 1003627c     node.obj
 0002:00000280       ?_3$initializer$@placeholders@boost@@3P6AXXZA 10036280     node.obj
 0002:00000284       ?_4$initializer$@placeholders@boost@@3P6AXXZA 10036284     node.obj
 0002:00000288       ?_5$initializer$@placeholders@boost@@3P6AXXZA 10036288     node.obj
 0002:0000028c       ?_6$initializer$@placeholders@boost@@3P6AXXZA 1003628c     node.obj
 0002:00000290       ?_7$initializer$@placeholders@boost@@3P6AXXZA 10036290     node.obj
 0002:00000294       ?_8$initializer$@placeholders@boost@@3P6AXXZA 10036294     node.obj
 0002:00000298       ?_9$initializer$@placeholders@boost@@3P6AXXZA 10036298     node.obj
 0002:000002b4       ?__scrt_initialize_tss_var@@3P6AHXZA 100362b4     LIBCMT:thread_safe_statics.obj
 0002:00000358       _GS_ExceptionPointers      10036358     LIBCMT:gs_report.obj
 0002:00000381       ?piecewise_construct@std@@3Upiecewise_construct_t@1@B 10036381     libboost_thread-vc140-mt-s-1_60:thread.obj
 0002:00000382       ?defer_lock@boost@@3Udefer_lock_t@1@B 10036382     libboost_thread-vc140-mt-s-1_60:thread.obj
 0002:00000383       ?try_to_lock@boost@@3Utry_to_lock_t@1@B 10036383     libboost_thread-vc140-mt-s-1_60:thread.obj
 0002:00000910       ?ExceptionTemplate@?1??_CxxThrowException@@9@8@4UEHExceptionRecord@@B 10036910     libvcruntime:throw.obj
 0002:0000095c       ?module_names@?A0xe4141595@@3QBQB_WB 1003695c     libvcruntime:winapi_downlevel.obj
 0002:00000a0c       ?candidate_modules@?1??try_get_EventRegister@@YAP6GKPBU_GUID@@P6GX0KE_K1PAU_EVENT_FILTER_DESCRIPTOR@@PAX@Z3PA_K@ZXZ@4QBW4module_id@?A0xe4141595@@B 10036a0c     libvcruntime:winapi_downlevel.obj
 0002:00000a20       ?candidate_modules@?1??try_get_EventSetInformation@@YAP6GK_KW4_EVENT_INFO_CLASS@@PAXK@ZXZ@4QBW4module_id@?A0xe4141595@@B 10036a20     libvcruntime:winapi_downlevel.obj
 0002:00000a38       ?candidate_modules@?1??try_get_EventUnregister@@YAP6GK_K@ZXZ@4QBW4module_id@?A0xe4141595@@B 10036a38     libvcruntime:winapi_downlevel.obj
 0002:00000a4c       ?candidate_modules@?1??try_get_EventWriteTransfer@@YAP6GK_KPBU_EVENT_DESCRIPTOR@@PBU_GUID@@2KPAU_EVENT_DATA_DESCRIPTOR@@@ZXZ@4QBW4module_id@?A0xe4141595@@B 10036a4c     libvcruntime:winapi_downlevel.obj
 0002:00000a64       ?candidate_modules@?1??try_get_FlsAlloc@@YAP6GKP6GXPAX@Z@ZXZ@4QBW4module_id@?A0xe4141595@@B 10036a64     libvcruntime:winapi_downlevel.obj
 0002:00000a78       ?candidate_modules@?1??try_get_FlsFree@@YAP6GHK@ZXZ@4QBW4module_id@?A0xe4141595@@B 10036a78     libvcruntime:winapi_downlevel.obj
 0002:00000a88       ?candidate_modules@?1??try_get_FlsGetValue@@YAP6GPAXK@ZXZ@4QBW4module_id@?A0xe4141595@@B 10036a88     libvcruntime:winapi_downlevel.obj
 0002:00000a9c       ?candidate_modules@?1??try_get_FlsSetValue@@YAP6GHKPAX@ZXZ@4QBW4module_id@?A0xe4141595@@B 10036a9c     libvcruntime:winapi_downlevel.obj
 0002:00000ab0       ?candidate_modules@?1??try_get_InitializeCriticalSectionEx@@YAP6GHPAU_RTL_CRITICAL_SECTION@@KK@ZXZ@4QBW4module_id@?A0xe4141595@@B 10036ab0     libvcruntime:winapi_downlevel.obj
 0002:00000ad8       ?tokenTable@@3QBQBDB       10036ad8     libvcruntime:undname.obj
 0002:00000b10       ?nameTable@@3QBQBDB        10036b10     libvcruntime:undname.obj
 0002:00000c54       ?rttiTable@@3QBQBDB        10036c54     libvcruntime:undname.obj
 0002:00001fa8       ___acrt_initializers       10037fa8     libucrt:initialization.obj
 0002:00002060       _errtable                  10038060     libucrt:errno.obj
 0002:00002740       _module_names              10038740     libucrt:winapi_thunks.obj
 0002:00002be0       ?candidate_modules@?1??try_get_AreFileApisANSI@@YAP6GHXZXZ@4QBW4module_id@?A0x352e5c4b@@B 10038be0     libucrt:winapi_thunks.obj
 0002:00002bf4       ?candidate_modules@?1??try_get_FlsAlloc@@YAP6GKP6GXPAX@Z@ZXZ@4QBW4module_id@?A0x352e5c4b@@B 10038bf4     libucrt:winapi_thunks.obj
 0002:00002bfc       ?candidate_modules@?1??try_get_FlsFree@@YAP6GHK@ZXZ@4QBW4module_id@?A0x352e5c4b@@B 10038bfc     libucrt:winapi_thunks.obj
 0002:00002c04       ?candidate_modules@?1??try_get_FlsGetValue@@YAP6GPAXK@ZXZ@4QBW4module_id@?A0x352e5c4b@@B 10038c04     libucrt:winapi_thunks.obj
 0002:00002c0c       ?candidate_modules@?1??try_get_FlsSetValue@@YAP6GHKPAX@ZXZ@4QBW4module_id@?A0x352e5c4b@@B 10038c0c     libucrt:winapi_thunks.obj
 0002:00002c14       ?candidate_modules@?1??try_get_GetCurrentPackageId@@YAP6GJPAIPAE@ZXZ@4QBW4module_id@?A0x352e5c4b@@B 10038c14     libucrt:winapi_thunks.obj
 0002:00002c30       ?candidate_modules@?1??try_get_GetSystemTimePreciseAsFileTime@@YAP6GXPAU_FILETIME@@@ZXZ@4QBW4module_id@?A0x352e5c4b@@B 10038c30     libucrt:winapi_thunks.obj
 0002:00002c54       ?candidate_modules@?1??try_get_InitializeCriticalSectionEx@@YAP6GHPAU_RTL_CRITICAL_SECTION@@KK@ZXZ@4QBW4module_id@?A0x352e5c4b@@B 10038c54     libucrt:winapi_thunks.obj
 0002:00002c5c       ?candidate_modules@?1??try_get_LCMapStringEx@@YAP6GHPB_WK0HPA_WHPAU_nlsversioninfo@@PAXJ@ZXZ@4QBW4module_id@?A0x352e5c4b@@B 10038c5c     libucrt:winapi_thunks.obj
 0002:00002c74       ?candidate_modules@?1??try_get_LocaleNameToLCID@@YAP6GKPB_WK@ZXZ@4QBW4module_id@?A0x352e5c4b@@B 10038c74     libucrt:winapi_thunks.obj
 0002:00002c90       ?candidate_modules@?1??try_get_RoInitialize@@YAP6GJW4RO_INIT_TYPE@@@ZXZ@4QBW4module_id@?A0x352e5c4b@@B 10038c90     libucrt:winapi_thunks.obj
 0002:00002ca4       ?candidate_modules@?1??try_get_RoUninitialize@@YAP6GXXZXZ@4QBW4module_id@?A0x352e5c4b@@B 10038ca4     libucrt:winapi_thunks.obj
 0002:000032d8       __mb_locale_names          100392d8     libucrt:mbctype.obj
 0002:00003720       _LcidToLocaleNameTable     10039720     libucrt:lcidtoname_downlevel.obj
 0002:00004840       _LocaleNameToIndexTable    1003a840     libucrt:lcidtoname_downlevel.obj
 0002:00005790       LOG_name                   1003b790     libucrt:log10.obj
 0002:000057a0       _One                       1003b7a0     libucrt:ceil_pentium4.obj
 0002:000057b0       _Bns                       1003b7b0     libucrt:ceil_pentium4.obj
 0002:000057c0       _Zero                      1003b7c0     libucrt:ceil_pentium4.obj
 0002:000057d0       _S                         1003b7d0     libucrt:ceil_pentium4.obj
 0002:000057e0       _NegZero                   1003b7e0     libucrt:ceil_pentium4.obj
 0002:000057f0       emask                      1003b7f0     libucrt:log10_pentium4.obj
 0002:00005800       CC                         1003b800     libucrt:log10_pentium4.obj
 0002:00005810       Magic                      1003b810     libucrt:log10_pentium4.obj
 0002:00005820       hi_mask                    1003b820     libucrt:log10_pentium4.obj
 0002:00005830       LOG10_2                    1003b830     libucrt:log10_pentium4.obj
 0002:00005840       place_L                    1003b840     libucrt:log10_pentium4.obj
 0002:00005860       One                        1003b860     libucrt:log10_pentium4.obj
 0002:00005870       Zero                       1003b870     libucrt:log10_pentium4.obj
 0002:00005880       Two52                      1003b880     libucrt:log10_pentium4.obj
 0002:00005890       Infs                       1003b890     libucrt:log10_pentium4.obj
 0002:000058a0       NaN                        1003b8a0     libucrt:log10_pentium4.obj
 0002:000058b0       coeff                      1003b8b0     libucrt:log10_pentium4.obj
 0002:0000590e       _log2max                   1003b90e     libucrt:87tran.obj
 0002:00005918       _smallarg                  1003b918     libucrt:87tran.obj
 0002:00005922       _half                      1003b922     libucrt:87tran.obj
 0002:0000596e       One                        1003b96e     libucrt:87disp.obj
 0002:00005976       Three                      1003b976     libucrt:87disp.obj
 0002:0000597e       XAMtoTagTab                1003b97e     libucrt:87disp.obj
 0002:00005990       One                        1003b990     libucrt:common.obj
 0002:000059a4       DblMax                     1003b9a4     libucrt:common.obj
 0002:000059ac       DblMin                     1003b9ac     libucrt:common.obj
 0002:000059b4       IeeeAdjO                   1003b9b4     libucrt:common.obj
 0002:000059bc       IeeeAdjU                   1003b9bc     libucrt:common.obj
 0002:000059c4       _infinity                  1003b9c4     libucrt:common.obj
 0002:000059cc       _zero                      1003b9cc     libucrt:common.obj
 0002:00005a10       _over                      1003ba10     libucrt:fpctrl.obj
 0002:00005a1c       _under                     1003ba1c     libucrt:fpctrl.obj
 0002:000062e8       ?_names@?1??_get_fname@@9@9 1003c2e8     libucrt:fpexcept.obj
 0002:00006468       $SG4294967291              1003c468     ILuaInterface.obj
 0002:0000646c       $SG4294967290              1003c46c     ILuaInterface.obj
 0002:00006471       ?piecewise_construct@std@@3Upiecewise_construct_t@1@B 1003c471     ILuaModuleManager.obj
 0002:00006474       $SG4294967289              1003c474     ILuaInterface.obj
 0002:00006484       $SG4294967288              1003c484     ILuaInterface.obj
 0002:0000648c       $SG4294967287              1003c48c     ILuaInterface.obj
 0002:00006494       $SG4294967286              1003c494     ILuaInterface.obj
 0002:0000649c       $SG4294967285              1003c49c     ILuaInterface.obj
 0002:000064a8       $SG4294967284              1003c4a8     ILuaInterface.obj
 0002:000064b4       $SG4294967283              1003c4b4     ILuaInterface.obj
 0002:000064bc       $SG4294967282              1003c4bc     ILuaInterface.obj
 0002:000064c4       $SG4294967281              1003c4c4     ILuaInterface.obj
 0002:000064cc       $SG4294967280              1003c4cc     ILuaInterface.obj
 0002:000064d4       $SG4294967279              1003c4d4     ILuaInterface.obj
 0002:000064dc       $SG4294967278              1003c4dc     ILuaInterface.obj
 0002:000064e4       $SG4294967277              1003c4e4     ILuaInterface.obj
 0002:000064ec       $SG4294967276              1003c4ec     ILuaInterface.obj
 0002:000064f8       $SG4294967275              1003c4f8     ILuaInterface.obj
 0002:00006504       $SG4294967274              1003c504     ILuaInterface.obj
 0002:00006510       $SG4294967273              1003c510     ILuaInterface.obj
 0002:00006520       $SG4294967272              1003c520     ILuaInterface.obj
 0002:00006528       $SG4294967271              1003c528     ILuaInterface.obj
 0002:00006530       $SG4294967270              1003c530     ILuaInterface.obj
 0002:0000653c       $SG4294967269              1003c53c     ILuaInterface.obj
 0002:00006544       $SG4294967268              1003c544     ILuaInterface.obj
 0002:00006550       $SG4294967267              1003c550     ILuaInterface.obj
 0002:00006560       $SG4294967266              1003c560     ILuaInterface.obj
 0002:00006568       $SG4294967265              1003c568     ILuaInterface.obj
 0002:00006570       $SG4294967264              1003c570     ILuaInterface.obj
 0002:00006578       $SG4294967263              1003c578     ILuaInterface.obj
 0002:00006580       $SG4294967262              1003c580     ILuaInterface.obj
 0002:00006588       $SG4294967261              1003c588     ILuaInterface.obj
 0002:00006590       $SG4294967260              1003c590     ILuaInterface.obj
 0002:000065a0       $SG4294967259              1003c5a0     ILuaInterface.obj
 0002:000065a8       $SG4294967258              1003c5a8     ILuaInterface.obj
 0002:000065b0       $SG4294967257              1003c5b0     ILuaInterface.obj
 0002:000065b8       $SG4294967237              1003c5b8     ILuaInterface.obj
 0002:000065c4       $SG4294967236              1003c5c4     ILuaInterface.obj
 0002:000065e4       $SG4294967234              1003c5e4     ILuaInterface.obj
 0002:0000661c       $SG4294966114              1003c61c     ILuaModuleManager.obj
 0002:00006620       $SG4294967235              1003c620     ILuaInterface.obj
 0002:00006678       $SG4294966113              1003c678     ILuaModuleManager.obj
 0002:00006680       $SG4294966112              1003c680     ILuaModuleManager.obj
 0002:00006690       $SG4294966111              1003c690     ILuaModuleManager.obj
 0002:00006698       $SG4294966110              1003c698     ILuaModuleManager.obj
 0002:000066a0       $SG4294966109              1003c6a0     ILuaModuleManager.obj
 0002:000066a8       $SG4294966108              1003c6a8     ILuaModuleManager.obj
 0002:000066b4       $SG4294966107              1003c6b4     ILuaModuleManager.obj
 0002:000066c0       $SG4294966106              1003c6c0     ILuaModuleManager.obj
 0002:000066c8       $SG4294966105              1003c6c8     ILuaModuleManager.obj
 0002:000066d0       $SG4294966104              1003c6d0     ILuaModuleManager.obj
 0002:000066d8       $SG4294966103              1003c6d8     ILuaModuleManager.obj
 0002:000066e0       $SG4294966102              1003c6e0     ILuaModuleManager.obj
 0002:000066e8       $SG4294966101              1003c6e8     ILuaModuleManager.obj
 0002:000066f0       $SG4294966100              1003c6f0     ILuaModuleManager.obj
 0002:000066f8       $SG4294966099              1003c6f8     ILuaModuleManager.obj
 0002:00006704       $SG4294966098              1003c704     ILuaModuleManager.obj
 0002:00006710       $SG4294966097              1003c710     ILuaModuleManager.obj
 0002:0000671c       $SG4294966096              1003c71c     ILuaModuleManager.obj
 0002:0000672c       $SG4294966095              1003c72c     ILuaModuleManager.obj
 0002:00006734       $SG4294966094              1003c734     ILuaModuleManager.obj
 0002:0000673c       $SG4294966093              1003c73c     ILuaModuleManager.obj
 0002:00006748       $SG4294966092              1003c748     ILuaModuleManager.obj
 0002:00006750       $SG4294966091              1003c750     ILuaModuleManager.obj
 0002:0000675c       $SG4294966090              1003c75c     ILuaModuleManager.obj
 0002:0000676c       $SG4294966089              1003c76c     ILuaModuleManager.obj
 0002:00006774       $SG4294966088              1003c774     ILuaModuleManager.obj
 0002:0000677c       $SG4294966087              1003c77c     ILuaModuleManager.obj
 0002:00006784       $SG4294966086              1003c784     ILuaModuleManager.obj
 0002:0000678c       $SG4294966085              1003c78c     ILuaModuleManager.obj
 0002:00006794       $SG4294966084              1003c794     ILuaModuleManager.obj
 0002:0000679c       $SG4294966083              1003c79c     ILuaModuleManager.obj
 0002:000067ac       $SG4294966082              1003c7ac     ILuaModuleManager.obj
 0002:000067b4       $SG4294966081              1003c7b4     ILuaModuleManager.obj
 0002:000067bc       $SG4294966080              1003c7bc     ILuaModuleManager.obj
 0002:000067c4       $SG4294964349              1003c7c4     ILuaObject.obj
 0002:000067c8       $SG4294964348              1003c7c8     ILuaObject.obj
 0002:000067d0       $SG4294964347              1003c7d0     ILuaObject.obj
 0002:000067e0       $SG4294964346              1003c7e0     ILuaObject.obj
 0002:000067e8       $SG4294964345              1003c7e8     ILuaObject.obj
 0002:000067f0       $SG4294964344              1003c7f0     ILuaObject.obj
 0002:000067f8       $SG4294964343              1003c7f8     ILuaObject.obj
 0002:00006804       $SG4294964342              1003c804     ILuaObject.obj
 0002:00006810       $SG4294964341              1003c810     ILuaObject.obj
 0002:00006818       $SG4294964340              1003c818     ILuaObject.obj
 0002:00006820       $SG4294964339              1003c820     ILuaObject.obj
 0002:00006828       $SG4294964338              1003c828     ILuaObject.obj
 0002:00006830       $SG4294964337              1003c830     ILuaObject.obj
 0002:00006838       $SG4294964336              1003c838     ILuaObject.obj
 0002:00006840       $SG4294964335              1003c840     ILuaObject.obj
 0002:00006848       $SG4294964334              1003c848     ILuaObject.obj
 0002:00006854       $SG4294964333              1003c854     ILuaObject.obj
 0002:00006860       $SG4294964332              1003c860     ILuaObject.obj
 0002:0000686c       $SG4294964331              1003c86c     ILuaObject.obj
 0002:0000687c       $SG4294964330              1003c87c     ILuaObject.obj
 0002:00006884       $SG4294964329              1003c884     ILuaObject.obj
 0002:0000688c       $SG4294964328              1003c88c     ILuaObject.obj
 0002:00006898       $SG4294964327              1003c898     ILuaObject.obj
 0002:000068a0       $SG4294964326              1003c8a0     ILuaObject.obj
 0002:000068ac       $SG4294964325              1003c8ac     ILuaObject.obj
 0002:000068bc       $SG4294964324              1003c8bc     ILuaObject.obj
 0002:000068c4       $SG4294964323              1003c8c4     ILuaObject.obj
 0002:000068cc       $SG4294964322              1003c8cc     ILuaObject.obj
 0002:000068d4       $SG4294964321              1003c8d4     ILuaObject.obj
 0002:000068dc       $SG4294964320              1003c8dc     ILuaObject.obj
 0002:000068e4       $SG4294964319              1003c8e4     ILuaObject.obj
 0002:000068ec       $SG4294964318              1003c8ec     ILuaObject.obj
 0002:000068fc       $SG4294964317              1003c8fc     ILuaObject.obj
 0002:00006904       $SG4294964316              1003c904     ILuaObject.obj
 0002:0000690c       $SG4294964315              1003c90c     ILuaObject.obj
 0002:00006914       $SG4294964215              1003c914     ILuaObject.obj
 0002:00006940       $SG4294960713              1003c940     main.obj
 0002:00006944       $SG4294960712              1003c944     main.obj
 0002:0000694c       $SG4294960711              1003c94c     main.obj
 0002:0000695c       $SG4294960710              1003c95c     main.obj
 0002:00006964       $SG4294960709              1003c964     main.obj
 0002:0000696c       $SG4294960708              1003c96c     main.obj
 0002:00006974       $SG4294960707              1003c974     main.obj
 0002:00006980       $SG4294960706              1003c980     main.obj
 0002:0000698c       $SG4294960705              1003c98c     main.obj
 0002:00006994       $SG4294960704              1003c994     main.obj
 0002:0000699c       $SG4294960703              1003c99c     main.obj
 0002:000069a4       $SG4294960702              1003c9a4     main.obj
 0002:000069ac       $SG4294960701              1003c9ac     main.obj
 0002:000069b4       $SG4294960700              1003c9b4     main.obj
 0002:000069bc       $SG4294960699              1003c9bc     main.obj
 0002:000069c4       $SG4294960698              1003c9c4     main.obj
 0002:000069d0       $SG4294960697              1003c9d0     main.obj
 0002:000069dc       $SG4294960696              1003c9dc     main.obj
 0002:000069e8       $SG4294960695              1003c9e8     main.obj
 0002:000069f8       $SG4294960694              1003c9f8     main.obj
 0002:00006a00       $SG4294960693              1003ca00     main.obj
 0002:00006a08       $SG4294960692              1003ca08     main.obj
 0002:00006a14       $SG4294960691              1003ca14     main.obj
 0002:00006a1c       $SG4294960690              1003ca1c     main.obj
 0002:00006a28       $SG4294960689              1003ca28     main.obj
 0002:00006a38       $SG4294960688              1003ca38     main.obj
 0002:00006a40       $SG4294960687              1003ca40     main.obj
 0002:00006a48       $SG4294960686              1003ca48     main.obj
 0002:00006a50       $SG4294960685              1003ca50     main.obj
 0002:00006a58       $SG4294960684              1003ca58     main.obj
 0002:00006a60       $SG4294960683              1003ca60     main.obj
 0002:00006a68       $SG4294960682              1003ca68     main.obj
 0002:00006a78       $SG4294960681              1003ca78     main.obj
 0002:00006a80       $SG4294960680              1003ca80     main.obj
 0002:00006a88       $SG4294960679              1003ca88     main.obj
 0002:00006a90       $SG4294960664              1003ca90     main.obj
 0002:00006a98       $SG4294960663              1003ca98     main.obj
 0002:00006aa4       $SG4294960662              1003caa4     main.obj
 0002:00006ab8       $SG4294960661              1003cab8     main.obj
 0002:00006aec       $SG4294960660              1003caec     main.obj
 0002:00006b04       $SG4294960659              1003cb04     main.obj
 0002:00006b34       $SG4294960658              1003cb34     main.obj
 0002:00006b3c       $SG4294960657              1003cb3c     main.obj
 0002:00006b44       $SG4294960656              1003cb44     main.obj
 0002:00006b4c       $SG4294960655              1003cb4c     main.obj
 0002:00006b54       $SG4294960654              1003cb54     main.obj
 0002:00006b5c       $SG4294960653              1003cb5c     main.obj
 0002:00006b64       $SG4294960652              1003cb64     main.obj
 0002:00006b70       $SG4294960651              1003cb70     main.obj
 0002:00006b7c       $SG4294960650              1003cb7c     main.obj
 0002:00006b88       $SG4294960649              1003cb88     main.obj
 0002:00006b94       $SG4294960648              1003cb94     main.obj
 0002:00006b98       $SG4294960647              1003cb98     main.obj
 0002:00006ba0       $SG4294960646              1003cba0     main.obj
 0002:00006ba8       $SG4294960645              1003cba8     main.obj
 0002:00006bb0       $SG4294960644              1003cbb0     main.obj
 0002:00006bb8       $SG4294960643              1003cbb8     main.obj
 0002:00006bc4       $SG4294960642              1003cbc4     main.obj
 0002:00006bd4       $SG4294960641              1003cbd4     main.obj
 0002:00006bec       $SG4294960640              1003cbec     main.obj
 0002:00006c00       $SG4294960639              1003cc00     main.obj
 0002:00006c14       $SG4294960638              1003cc14     main.obj
 0002:00006c28       $SG4294960637              1003cc28     main.obj
 0002:00006c3c       $SG4294960636              1003cc3c     main.obj
 0002:00006c40       $SG4294960635              1003cc40     main.obj
 0002:00006c44       $SG4294960634              1003cc44     main.obj
 0002:00006c50       $SG4294960633              1003cc50     main.obj
 0002:00006c5c       $SG4294960632              1003cc5c     main.obj
 0002:00006c6c       $SG4294960631              1003cc6c     main.obj
 0002:00006c7c       $SG4294960630              1003cc7c     main.obj
 0002:00006c8c       $SG4294960629              1003cc8c     main.obj
 0002:00006c9c       $SG4294960628              1003cc9c     main.obj
 0002:00006ca8       $SG4294960627              1003cca8     main.obj
 0002:00006cbc       $SG4294960626              1003ccbc     main.obj
 0002:00006cd0       $SG4294960625              1003ccd0     main.obj
 0002:00006ce0       $SG4294960624              1003cce0     main.obj
 0002:00006cf4       $SG4294960623              1003ccf4     main.obj
 0002:00006d00       $SG4294960622              1003cd00     main.obj
 0002:00006d10       $SG4294960621              1003cd10     main.obj
 0002:00006d1c       $SG4294960620              1003cd1c     main.obj
 0002:00006d28       $SG4294960619              1003cd28     main.obj
 0002:00006d3c       $SG4294960618              1003cd3c     main.obj
 0002:00006d4c       $SG4294960617              1003cd4c     main.obj
 0002:00006d5c       $SG4294960616              1003cd5c     main.obj
 0002:00006d68       $SG4294960615              1003cd68     main.obj
 0002:00006d70       $SG4294960614              1003cd70     main.obj
 0002:00006d80       $SG4294960613              1003cd80     main.obj
 0002:00006d8c       $SG4294960612              1003cd8c     main.obj
 0002:00006d94       $SG4294960611              1003cd94     main.obj
 0002:00006d9c       $SG4294960610              1003cd9c     main.obj
 0002:00006dac       $SG4294960609              1003cdac     main.obj
 0002:00006dbc       $SG4294960608              1003cdbc     main.obj
 0002:00006dd0       $SG4294960607              1003cdd0     main.obj
 0002:00006dd8       $SG4294960606              1003cdd8     main.obj
 0002:00006de0       $SG4294960605              1003cde0     main.obj
 0002:00006dec       $SG4294960604              1003cdec     main.obj
 0002:00006df8       $SG4294960603              1003cdf8     main.obj
 0002:00006e04       $SG4294960602              1003ce04     main.obj
 0002:00006e10       $SG4294960601              1003ce10     main.obj
 0002:00006e18       $SG4294960600              1003ce18     main.obj
 0002:00006e20       $SG4294960599              1003ce20     main.obj
 0002:00006e2c       $SG4294960598              1003ce2c     main.obj
 0002:00006e38       $SG4294960597              1003ce38     main.obj
 0002:00006e40       $SG4294960596              1003ce40     main.obj
 0002:00006e48       $SG4294960595              1003ce48     main.obj
 0002:00006e50       $SG4294960594              1003ce50     main.obj
 0002:00006e5c       $SG4294960593              1003ce5c     main.obj
 0002:00006e64       $SG4294960592              1003ce64     main.obj
 0002:00006e70       $SG4294960591              1003ce70     main.obj
 0002:00006e80       $SG4294960590              1003ce80     main.obj
 0002:00006e94       $SG4294960589              1003ce94     main.obj
 0002:00006ea0       $SG4294960588              1003cea0     main.obj
 0002:00006eac       $SG4294960587              1003ceac     main.obj
 0002:00006eb8       $SG4294960586              1003ceb8     main.obj
 0002:00006ec4       $SG4294960585              1003cec4     main.obj
 0002:00006ed0       $SG4294960584              1003ced0     main.obj
 0002:00006edc       $SG4294960583              1003cedc     main.obj
 0002:00006ee8       $SG4294960582              1003cee8     main.obj
 0002:00006ef4       $SG4294960581              1003cef4     main.obj
 0002:00006f08       $SG4294960580              1003cf08     main.obj
 0002:00006f10       $SG4294960579              1003cf10     main.obj
 0002:00006f18       $SG4294960578              1003cf18     main.obj
 0002:00006f20       $SG4294960577              1003cf20     main.obj
 0002:00006f24       $SG4294960576              1003cf24     main.obj
 0002:00006f2c       $SG4294960575              1003cf2c     main.obj
 0002:00006f34       $SG4294960574              1003cf34     main.obj
 0002:00006f54       $SG4294960573              1003cf54     main.obj
 0002:00006f78       $SG4294960572              1003cf78     main.obj
 0002:00006f9c       $SG4294960571              1003cf9c     main.obj
 0002:00006fa8       $SG4294960570              1003cfa8     main.obj
 0002:00006fc0       $SG4294960569              1003cfc0     main.obj
 0002:00006fd8       $SG4294952481              1003cfd8     nav.obj
 0002:00006fdc       $SG4294952480              1003cfdc     nav.obj
 0002:00006fe4       $SG4294952479              1003cfe4     nav.obj
 0002:00006ff4       $SG4294952478              1003cff4     nav.obj
 0002:00006ffc       $SG4294952477              1003cffc     nav.obj
 0002:00007004       $SG4294952476              1003d004     nav.obj
 0002:0000700c       $SG4294952475              1003d00c     nav.obj
 0002:00007018       $SG4294952474              1003d018     nav.obj
 0002:00007024       $SG4294952473              1003d024     nav.obj
 0002:0000702c       $SG4294952472              1003d02c     nav.obj
 0002:00007034       $SG4294952471              1003d034     nav.obj
 0002:0000703c       $SG4294952470              1003d03c     nav.obj
 0002:00007044       $SG4294952469              1003d044     nav.obj
 0002:0000704c       $SG4294952468              1003d04c     nav.obj
 0002:00007054       $SG4294952467              1003d054     nav.obj
 0002:0000705c       $SG4294952466              1003d05c     nav.obj
 0002:00007068       $SG4294952465              1003d068     nav.obj
 0002:00007074       $SG4294952464              1003d074     nav.obj
 0002:00007080       $SG4294952463              1003d080     nav.obj
 0002:00007090       $SG4294952462              1003d090     nav.obj
 0002:00007098       $SG4294952461              1003d098     nav.obj
 0002:000070a0       $SG4294952460              1003d0a0     nav.obj
 0002:000070ac       $SG4294952459              1003d0ac     nav.obj
 0002:000070b4       $SG4294952458              1003d0b4     nav.obj
 0002:000070c0       $SG4294952457              1003d0c0     nav.obj
 0002:000070d0       $SG4294952456              1003d0d0     nav.obj
 0002:000070d8       $SG4294952455              1003d0d8     nav.obj
 0002:000070e0       $SG4294952454              1003d0e0     nav.obj
 0002:000070e8       $SG4294952453              1003d0e8     nav.obj
 0002:000070f0       $SG4294952452              1003d0f0     nav.obj
 0002:000070f8       $SG4294952451              1003d0f8     nav.obj
 0002:00007100       $SG4294952450              1003d100     nav.obj
 0002:00007110       $SG4294952449              1003d110     nav.obj
 0002:00007118       $SG4294952448              1003d118     nav.obj
 0002:00007120       $SG4294952447              1003d120     nav.obj
 0002:00007128       $SG4294952316              1003d128     nav.obj
 0002:00007134       $SG4294952315              1003d134     nav.obj
 0002:00007138       $SG4294952314              1003d138     nav.obj
 0002:00007150       $SG4294952313              1003d150     nav.obj
 0002:00007160       $SG4294952312              1003d160     nav.obj
 0002:00007164       $SG4294952311              1003d164     nav.obj
 0002:00007178       $SG4294952310              1003d178     nav.obj
 0002:0000717c       $SG4294952309              1003d17c     nav.obj
 0002:00007190       $SG4294952308              1003d190     nav.obj
 0002:00007194       $SG4294952307              1003d194     nav.obj
 0002:000071a0       $SG4294952306              1003d1a0     nav.obj
 0002:000071b0       $SG4294952305              1003d1b0     nav.obj
 0002:000071b4       $SG4294952304              1003d1b4     nav.obj
 0002:000071c8       $SG4294952303              1003d1c8     nav.obj
 0002:000071cc       $SG4294952302              1003d1cc     nav.obj
 0002:000071e0       $SG4294952301              1003d1e0     nav.obj
 0002:000071e4       $SG4294952300              1003d1e4     nav.obj
 0002:000071f0       $SG4294952299              1003d1f0     nav.obj
 0002:0000720c       $SG4294952284              1003d20c     nav.obj
 0002:00007244       $SG4294952283              1003d244     nav.obj
 0002:00007278       $SG4294952282              1003d278     nav.obj
 0002:000072b0       $SG4294952281              1003d2b0     nav.obj
 0002:000072e4       $SG4294945353              1003d2e4     node.obj
 0002:000072e8       $SG4294945352              1003d2e8     node.obj
 0002:000072f0       $SG4294945351              1003d2f0     node.obj
 0002:00007300       $SG4294945350              1003d300     node.obj
 0002:00007308       $SG4294945349              1003d308     node.obj
 0002:00007310       $SG4294945348              1003d310     node.obj
 0002:00007318       $SG4294945347              1003d318     node.obj
 0002:00007324       $SG4294945346              1003d324     node.obj
 0002:00007330       $SG4294945345              1003d330     node.obj
 0002:00007338       $SG4294945344              1003d338     node.obj
 0002:00007340       $SG4294945343              1003d340     node.obj
 0002:00007348       $SG4294945342              1003d348     node.obj
 0002:00007350       $SG4294945341              1003d350     node.obj
 0002:00007358       $SG4294945340              1003d358     node.obj
 0002:00007360       $SG4294945339              1003d360     node.obj
 0002:00007368       $SG4294945338              1003d368     node.obj
 0002:00007374       $SG4294945337              1003d374     node.obj
 0002:00007380       $SG4294945336              1003d380     node.obj
 0002:0000738c       $SG4294945335              1003d38c     node.obj
 0002:0000739c       $SG4294945334              1003d39c     node.obj
 0002:000073a4       $SG4294945333              1003d3a4     node.obj
 0002:000073ac       $SG4294945332              1003d3ac     node.obj
 0002:000073b8       $SG4294945331              1003d3b8     node.obj
 0002:000073c0       $SG4294945330              1003d3c0     node.obj
 0002:000073cc       $SG4294945329              1003d3cc     node.obj
 0002:000073dc       $SG4294945328              1003d3dc     node.obj
 0002:000073e4       $SG4294945327              1003d3e4     node.obj
 0002:000073ec       $SG4294945326              1003d3ec     node.obj
 0002:000073f4       $SG4294945325              1003d3f4     node.obj
 0002:000073fc       $SG4294945324              1003d3fc     node.obj
 0002:00007404       $SG4294945323              1003d404     node.obj
 0002:0000740c       $SG4294945322              1003d40c     node.obj
 0002:0000741c       $SG4294945321              1003d41c     node.obj
 0002:00007424       $SG4294945320              1003d424     node.obj
 0002:0000742c       $SG4294945319              1003d42c     node.obj
 0002:00007434       $SG4294945206              1003d434     node.obj
 0002:0000744c       $SG4294945205              1003d44c     node.obj
 0002:00007464       $SG4294945204              1003d464     node.obj
 0002:00007740       Shifter                    1003d740     libucrt:pow_sse2_precise.obj
 0002:00007750       SIGMASK                    1003d750     libucrt:pow_sse2_precise.obj
 0002:00007760       ONEMASK                    1003d760     libucrt:pow_sse2_precise.obj
 0002:00007770       ABSVALMASK                 1003d770     libucrt:pow_sse2_precise.obj
 0002:00007780       cev                        1003d780     libucrt:pow_sse2_precise.obj
 0002:000077a8       HALFSIG                    1003d7a8     libucrt:pow_sse2_precise.obj
 0002:000077b0       LHN                        1003d7b0     libucrt:pow_sse2_precise.obj
 0002:000077b8       sNaN                       1003d7b8     libucrt:pow_sse2_precise.obj
 0002:000077c0       INF                        1003d7c0     libucrt:pow_sse2_precise.obj
 0002:000077c8       NEG_INF                    1003d7c8     libucrt:pow_sse2_precise.obj
 0002:000077d0       NEG_ZERO                   1003d7d0     libucrt:pow_sse2_precise.obj
 0002:000077d8       NEG_BIG                    1003d7d8     libucrt:pow_sse2_precise.obj
 0002:000077e0       POS_BIG                    1003d7e0     libucrt:pow_sse2_precise.obj
 0002:000077e8       EMIN                       1003d7e8     libucrt:pow_sse2_precise.obj
 0002:000077f0       QIND                       1003d7f0     libucrt:pow_sse2_precise.obj
 0002:00007800       POW_name                   1003d800     libucrt:pow.obj
 0002:0000b090       _NAME_                     10041090     libucrt:sqrt.obj
 0002:0000b0a0       Shifter                    100410a0     libucrt:pow_pentium4.obj
 0002:0000b0b0       SIGMASK                    100410b0     libucrt:pow_pentium4.obj
 0002:0000b0c0       ONEMASK                    100410c0     libucrt:pow_pentium4.obj
 0002:0000b0d0       ABSVALMASK                 100410d0     libucrt:pow_pentium4.obj
 0002:0000b0e0       cev                        100410e0     libucrt:pow_pentium4.obj
 0002:0000b108       HALFSIG                    10041108     libucrt:pow_pentium4.obj
 0002:0000b110       LHN                        10041110     libucrt:pow_pentium4.obj
 0002:0000b118       sNaN                       10041118     libucrt:pow_pentium4.obj
 0002:0000b120       INF                        10041120     libucrt:pow_pentium4.obj
 0002:0000b128       NEG_INF                    10041128     libucrt:pow_pentium4.obj
 0002:0000b130       NEG_ZERO                   10041130     libucrt:pow_pentium4.obj
 0002:0000b138       NEG_BIG                    10041138     libucrt:pow_pentium4.obj
 0002:0000b140       POS_BIG                    10041140     libucrt:pow_pentium4.obj
 0002:0000b148       EMIN                       10041148     libucrt:pow_pentium4.obj
 0002:0000b150       QIND                       10041150     libucrt:pow_pentium4.obj
 0002:0000c6f0       ?_TlgEvent@?3??__telemetry_main_invoke_trigger@@9@4U<unnamed-type-_TlgEvent>@?3??1@YAXQAUHINSTANCE__@@@Z@B 100426f0     libvcruntime:telemetry.obj
 0002:0000c72c       ?_TlgEvent@?3??__telemetry_main_return_trigger@@9@4U<unnamed-type-_TlgEvent>@?3??1@YAXQAUHINSTANCE__@@@Z@B 1004272c     libvcruntime:telemetry.obj
 0002:0000c767       ?_Tlg_Microsoft_CRTProviderProv_Meta@@3U<unnamed-type-_Tlg_Microsoft_CRTProviderProv_Meta>@@B 10042767     libvcruntime:telemetry.obj
 0002:0000cc50       __ehfuncinfo$??0ILuaInterface@@QAE@PAUlua_State@@@Z 10042c50     ILuaInterface.obj
 0002:0000cc74       __unwindtable$??0ILuaInterface@@QAE@PAUlua_State@@@Z 10042c74     ILuaInterface.obj
 0002:0000cc8c       __ehfuncinfo$??1?$CUtlVector@PAVNode@@V?$CUtlMemory@PAVNode@@H@@@@QAE@XZ 10042c8c     main.obj
 0002:0000cc8c       __ehfuncinfo$??1?$CUtlVector@PAUJobInfo_t@@V?$CUtlMemory@PAUJobInfo_t@@H@@@@QAE@XZ 10042c8c     main.obj
 0002:0000cc8c       __ehfuncinfo$??$forward_as_tuple@ABQAUlua_State@@@std@@YA?AV?$tuple@ABQAUlua_State@@@0@ABQAUlua_State@@@Z 10042c8c     ILuaModuleManager.obj
 0002:0000cc8c       __ehfuncinfo$?begin@?$_Tree@V?$_Tmap_traits@PAUlua_State@@PAVILuaInterface@@U?$less@PAUlua_State@@@std@@V?$allocator@U?$pair@QAUlua_State@@PAVILuaInterface@@@std@@@4@$0A@@std@@@std@@QAE?AV?$_Tree_iterator@V?$_Tree_val@U?$_Tree_simple_types@U?$pair@QAUlua_State@@PAVILuaInterface@@@std@@@std@@@std@@@2@XZ 10042c8c     ILuaModuleManager.obj
 0002:0000cc8c       __ehfuncinfo$?end@?$_Tree@V?$_Tmap_traits@PAUlua_State@@PAVILuaInterface@@U?$less@PAUlua_State@@@std@@V?$allocator@U?$pair@QAUlua_State@@PAVILuaInterface@@@std@@@4@$0A@@std@@@std@@QAE?AV?$_Tree_iterator@V?$_Tree_val@U?$_Tree_simple_types@U?$pair@QAUlua_State@@PAVILuaInterface@@@std@@@std@@@std@@@2@XZ 10042c8c     ILuaModuleManager.obj
 0002:0000cc8c       __ehfuncinfo$?clear@?$_Tree@V?$_Tmap_traits@PAUlua_State@@PAVILuaInterface@@U?$less@PAUlua_State@@@std@@V?$allocator@U?$pair@QAUlua_State@@PAVILuaInterface@@@std@@@4@$0A@@std@@@std@@QAEXXZ 10042c8c     ILuaModuleManager.obj
 0002:0000cc8c       __ehfuncinfo$??1ILuaInterface@@QAE@XZ 10042c8c     ILuaInterface.obj
 0002:0000cc8c       __ehfuncinfo$?system_category@system@boost@@YAABVerror_category@12@XZ 10042c8c     libboost_system-vc140-mt-s-1_60:error_code.obj
 0002:0000cc8c       __ehfuncinfo$?generic_category@system@boost@@YAABVerror_category@12@XZ 10042c8c     libboost_system-vc140-mt-s-1_60:error_code.obj
 0002:0000cc8c       __ehfuncinfo$??1local_free_on_destruction@detail@system@boost@@QAE@XZ 10042c8c     libboost_system-vc140-mt-s-1_60:error_code.obj
 0002:0000cc8c       __ehfuncinfo$??1?$basic_string@DU?$char_traits@D@std@@V?$allocator@D@2@@std@@QAE@XZ 10042c8c     main.obj
 0002:0000cc8c       __ehfuncinfo$?c_str@?$basic_string@DU?$char_traits@D@std@@V?$allocator@D@2@@std@@QBEPBDXZ 10042c8c     main.obj
 0002:0000cc8c       __ehfuncinfo$??1?$refcount_ptr@Uerror_info_container@exception_detail@boost@@@exception_detail@boost@@QAE@XZ 10042c8c     main.obj
 0002:0000cc8c       __ehfuncinfo$??1?$intrusive_ptr@Uthread_data_base@detail@boost@@@boost@@QAE@XZ 10042c8c     main.obj
 0002:0000cc8c       __ehfuncinfo$??1?$CUtlMemory@PAVNode@@H@@QAE@XZ 10042c8c     main.obj
 0002:0000cc8c       __ehfuncinfo$??1bad_exception@std@@UAE@XZ 10042c8c     libboost_thread-vc140-mt-s-1_60:thread.obj
 0002:0000cc8c       __ehfuncinfo$??0bad_exception@std@@QAE@ABV01@@Z 10042c8c     libboost_thread-vc140-mt-s-1_60:thread.obj
 0002:0000cc8c       __ehfuncinfo$??_Gbad_exception@std@@UAEPAXI@Z 10042c8c     libboost_thread-vc140-mt-s-1_60:thread.obj
 0002:0000cc8c       __ehfuncinfo$??1thread@boost@@QAE@XZ 10042c8c     main.obj
 0002:0000cc8c       __ehfuncinfo$??1?$CUtlMemory@U?$UtlLinkedListElem_t@UAirSeedSpot@@H@@H@@QAE@XZ 10042c8c     nav.obj
 0002:0000cc8c       __ehfuncinfo$??1?$CUtlMemory@U?$UtlLinkedListElem_t@UGroundSeedSpot@@H@@H@@QAE@XZ 10042c8c     nav.obj
 0002:0000cc8c       __ehfuncinfo$??1?$CUtlLinkedList@UAirSeedSpot@@H$0A@HV?$CUtlMemory@U?$UtlLinkedListElem_t@UAirSeedSpot@@H@@H@@@@QAE@XZ 10042c8c     nav.obj
 0002:0000cc8c       __ehfuncinfo$??1?$CUtlLinkedList@UGroundSeedSpot@@H$0A@HV?$CUtlMemory@U?$UtlLinkedListElem_t@UGroundSeedSpot@@H@@H@@@@QAE@XZ 10042c8c     nav.obj
 0002:0000cc8c       __ehfuncinfo$?clear@?$_Tree@V?$_Tmap_traits@PBXUtss_data_node@detail@boost@@U?$less@PBX@std@@V?$allocator@U?$pair@QBXUtss_data_node@detail@boost@@@std@@@5@$0A@@std@@@std@@QAEXXZ 10042c8c     nav.obj
 0002:0000cc8c       __ehfuncinfo$?begin@?$_Tree@V?$_Tmap_traits@PBXUtss_data_node@detail@boost@@U?$less@PBX@std@@V?$allocator@U?$pair@QBXUtss_data_node@detail@boost@@@std@@@5@$0A@@std@@@std@@QAE?AV?$_Tree_iterator@V?$_Tree_val@U?$_Tree_simple_types@U?$pair@QBXUtss_data_node@detail@boost@@@std@@@std@@@std@@@2@XZ 10042c8c     nav.obj
 0002:0000cc8c       __ehfuncinfo$?end@?$_Tree@V?$_Tmap_traits@PBXUtss_data_node@detail@boost@@U?$less@PBX@std@@V?$allocator@U?$pair@QBXUtss_data_node@detail@boost@@@std@@@5@$0A@@std@@@std@@QAE?AV?$_Tree_iterator@V?$_Tree_val@U?$_Tree_simple_types@U?$pair@QBXUtss_data_node@detail@boost@@@std@@@std@@@std@@@2@XZ 10042c8c     nav.obj
 0002:0000cc8c       __ehfuncinfo$??1?$_Tree_comp_alloc@V?$_Tmap_traits@PBXUtss_data_node@detail@boost@@U?$less@PBX@std@@V?$allocator@U?$pair@QBXUtss_data_node@detail@boost@@@std@@@5@$0A@@std@@@std@@QAE@XZ 10042c8c     nav.obj
 0002:0000cc8c       __ehfuncinfo$??0?$basic_string@DU?$char_traits@D@std@@V?$allocator@D@2@@std@@QAE@XZ 10042c8c     nav.obj
 0002:0000cc8c       __ehfuncinfo$??1?$_Tree@V?$_Tmap_traits@PBXUtss_data_node@detail@boost@@U?$less@PBX@std@@V?$allocator@U?$pair@QBXUtss_data_node@detail@boost@@@std@@@5@$0A@@std@@@std@@QAE@XZ 10042c8c     nav.obj
 0002:0000cc8c       __ehfuncinfo$??0?$vector@U?$pair@PAVcondition_variable@boost@@PAVmutex@2@@std@@V?$allocator@U?$pair@PAVcondition_variable@boost@@PAVmutex@2@@std@@@2@@std@@QAE@XZ 10042c8c     nav.obj
 0002:0000cc8c       __ehfuncinfo$??1shared_count@detail@boost@@QAE@XZ 10042c8c     nav.obj
 0002:0000cc8c       __ehfuncinfo$??1handle_manager@win32@detail@boost@@QAE@XZ 10042c8c     nav.obj
 0002:0000cc8c       __ehfuncinfo$??4thread@boost@@QAEAAV01@$$QAV01@@Z 10042c8c     nav.obj
 0002:0000cc8c       __ehfuncinfo$??1?$vector@V?$shared_ptr@Ushared_state_base@detail@boost@@@boost@@V?$allocator@V?$shared_ptr@Ushared_state_base@detail@boost@@@boost@@@std@@@std@@QAE@XZ 10042c8c     nav.obj
 0002:0000cc8c       __ehfuncinfo$??0?$vector@V?$shared_ptr@Ushared_state_base@detail@boost@@@boost@@V?$allocator@V?$shared_ptr@Ushared_state_base@detail@boost@@@boost@@@std@@@std@@QAE@XZ 10042c8c     nav.obj
 0002:0000cc8c       __ehfuncinfo$??1?$CUtlMemory@PAUJobInfo_t@@H@@QAE@XZ 10042c8c     main.obj
 0002:0000cc8c       __ehfuncinfo$??1?$vector@U?$pair@PAVcondition_variable@boost@@PAVmutex@2@@std@@V?$allocator@U?$pair@PAVcondition_variable@boost@@PAVmutex@2@@std@@@2@@std@@QAE@XZ 10042c8c     nav.obj
 0002:0000cc8c       __ehfuncinfo$?rollback_once_region@detail@boost@@YAXAAUonce_flag@2@AAUonce_context@12@@Z 10042c8c     libboost_thread-vc140-mt-s-1_60:thread.obj
 0002:0000cc8c       __ehfuncinfo$?get_id@this_thread@boost@@YA?AVid@thread@2@XZ 10042c8c     libboost_thread-vc140-mt-s-1_60:thread.obj
 0002:0000cc8c       __ehfuncinfo$?commit_once_region@detail@boost@@YAXAAUonce_flag@2@AAUonce_context@12@@Z 10042c8c     libboost_thread-vc140-mt-s-1_60:thread.obj
 0002:0000ccb0       __ehfuncinfo$?GetMetaTable@ILuaInterface@@QAEPAVILuaObject@@PBDH@Z 10042cb0     ILuaInterface.obj
 0002:0000ccb0       __ehfuncinfo$?GetObject@ILuaInterface@@QAEPAVILuaObject@@H@Z 10042cb0     ILuaInterface.obj
 0002:0000ccb0       __ehfuncinfo$?GetNewTable@ILuaInterface@@QAEPAVILuaObject@@XZ 10042cb0     ILuaInterface.obj
 0002:0000ccd4       __unwindtable$?GetMetaTable@ILuaInterface@@QAEPAVILuaObject@@PBDH@Z 10042cd4     ILuaInterface.obj
 0002:0000ccd4       __unwindtable$?GetNewTable@ILuaInterface@@QAEPAVILuaObject@@XZ 10042cd4     ILuaInterface.obj
 0002:0000ccd4       __unwindtable$?GetObject@ILuaInterface@@QAEPAVILuaObject@@H@Z 10042cd4     ILuaInterface.obj
 0002:0000ccdc       __ehfuncinfo$?GetGlobal@ILuaInterface@@QAEPAVILuaObject@@PBD@Z 10042cdc     ILuaInterface.obj
 0002:0000ccdc       __ehfuncinfo$?GetMember@ILuaObject@@QAEPAV1@PBD@Z 10042cdc     ILuaObject.obj
 0002:0000cd00       __unwindtable$?GetGlobal@ILuaInterface@@QAEPAVILuaObject@@PBD@Z 10042d00     ILuaInterface.obj
 0002:0000cd00       __unwindtable$?GetMember@ILuaObject@@QAEPAV1@PBD@Z 10042d00     ILuaObject.obj
 0002:0000cd08       __ehfuncinfo$?CreateInterface@ILuaModuleManager@@QAEXPAUlua_State@@@Z 10042d08     ILuaModuleManager.obj
 0002:0000cd2c       __unwindtable$?CreateInterface@ILuaModuleManager@@QAEXPAUlua_State@@@Z 10042d2c     ILuaModuleManager.obj
 0002:0000cd34       __ehfuncinfo$??__Emodulemanager@@YAXXZ 10042d34     ILuaModuleManager.obj
 0002:0000cd58       __unwindtable$??__Emodulemanager@@YAXXZ 10042d58     ILuaModuleManager.obj
 0002:0000cd60       __ehfuncinfo$?_Buyheadnode@?$_Tree_comp_alloc@V?$_Tmap_traits@PAUlua_State@@PAVILuaInterface@@U?$less@PAUlua_State@@@std@@V?$allocator@U?$pair@QAUlua_State@@PAVILuaInterface@@@std@@@4@$0A@@std@@@std@@QAEPAU?$_Tree_node@U?$pair@QAUlua_State@@PAVILuaInterface@@@std@@PAX@2@XZ 10042d60     ILuaModuleManager.obj
 0002:0000cd84       __unwindtable$?_Buyheadnode@?$_Tree_comp_alloc@V?$_Tmap_traits@PAUlua_State@@PAVILuaInterface@@U?$less@PAUlua_State@@@std@@V?$allocator@U?$pair@QAUlua_State@@PAVILuaInterface@@@std@@@4@$0A@@std@@@std@@QAEPAU?$_Tree_node@U?$pair@QAUlua_State@@PAVILuaInterface@@@std@@PAX@2@XZ 10042d84     ILuaModuleManager.obj
 0002:0000cd94       __tryblocktable$?_Buyheadnode@?$_Tree_comp_alloc@V?$_Tmap_traits@PAUlua_State@@PAVILuaInterface@@U?$less@PAUlua_State@@@std@@V?$allocator@U?$pair@QAUlua_State@@PAVILuaInterface@@@std@@@4@$0A@@std@@@std@@QAEPAU?$_Tree_node@U?$pair@QAUlua_State@@PAVILuaInterface@@@std@@PAX@2@XZ 10042d94     ILuaModuleManager.obj
 0002:0000cda8       __catchsym$?_Buyheadnode@?$_Tree_comp_alloc@V?$_Tmap_traits@PAUlua_State@@PAVILuaInterface@@U?$less@PAUlua_State@@@std@@V?$allocator@U?$pair@QAUlua_State@@PAVILuaInterface@@@std@@@4@$0A@@std@@@std@@QAEPAU?$_Tree_node@U?$pair@QAUlua_State@@PAVILuaInterface@@@std@@PAX@2@XZ$2 10042da8     ILuaModuleManager.obj
 0002:0000cdb8       __ehfuncinfo$??$_Buynode@ABUpiecewise_construct_t@std@@V?$tuple@ABQAUlua_State@@@2@V?$tuple@$$V@2@@?$_Tree_comp_alloc@V?$_Tmap_traits@PAUlua_State@@PAVILuaInterface@@U?$less@PAUlua_State@@@std@@V?$allocator@U?$pair@QAUlua_State@@PAVILuaInterface@@@std@@@4@$0A@@std@@@std@@QAEPAU?$_Tree_node@U?$pair@QAUlua_State@@PAVILuaInterface@@@std@@PAX@1@ABUpiecewise_construct_t@1@$$QAV?$tuple@ABQAUlua_State@@@1@$$QAV?$tuple@$$V@1@@Z 10042db8     ILuaModuleManager.obj
 0002:0000cddc       __unwindtable$??$_Buynode@ABUpiecewise_construct_t@std@@V?$tuple@ABQAUlua_State@@@2@V?$tuple@$$V@2@@?$_Tree_comp_alloc@V?$_Tmap_traits@PAUlua_State@@PAVILuaInterface@@U?$less@PAUlua_State@@@std@@V?$allocator@U?$pair@QAUlua_State@@PAVILuaInterface@@@std@@@4@$0A@@std@@@std@@QAEPAU?$_Tree_node@U?$pair@QAUlua_State@@PAVILuaInterface@@@std@@PAX@1@ABUpiecewise_construct_t@1@$$QAV?$tuple@ABQAUlua_State@@@1@$$QAV?$tuple@$$V@1@@Z 10042ddc     ILuaModuleManager.obj
 0002:0000cdec       __tryblocktable$??$_Buynode@ABUpiecewise_construct_t@std@@V?$tuple@ABQAUlua_State@@@2@V?$tuple@$$V@2@@?$_Tree_comp_alloc@V?$_Tmap_traits@PAUlua_State@@PAVILuaInterface@@U?$less@PAUlua_State@@@std@@V?$allocator@U?$pair@QAUlua_State@@PAVILuaInterface@@@std@@@4@$0A@@std@@@std@@QAEPAU?$_Tree_node@U?$pair@QAUlua_State@@PAVILuaInterface@@@std@@PAX@1@ABUpiecewise_construct_t@1@$$QAV?$tuple@ABQAUlua_State@@@1@$$QAV?$tuple@$$V@1@@Z 10042dec     ILuaModuleManager.obj
 0002:0000ce00       __catchsym$??$_Buynode@ABUpiecewise_construct_t@std@@V?$tuple@ABQAUlua_State@@@2@V?$tuple@$$V@2@@?$_Tree_comp_alloc@V?$_Tmap_traits@PAUlua_State@@PAVILuaInterface@@U?$less@PAUlua_State@@@std@@V?$allocator@U?$pair@QAUlua_State@@PAVILuaInterface@@@std@@@4@$0A@@std@@@std@@QAEPAU?$_Tree_node@U?$pair@QAUlua_State@@PAVILuaInterface@@@std@@PAX@1@ABUpiecewise_construct_t@1@$$QAV?$tuple@ABQAUlua_State@@@1@$$QAV?$tuple@$$V@1@@Z$2 10042e00     ILuaModuleManager.obj
 0002:0000ce10       __ehfuncinfo$??$_Insert_hint@AAU?$pair@QAUlua_State@@PAVILuaInterface@@@std@@PAU?$_Tree_node@U?$pair@QAUlua_State@@PAVILuaInterface@@@std@@PAX@2@@?$_Tree@V?$_Tmap_traits@PAUlua_State@@PAVILuaInterface@@U?$less@PAUlua_State@@@std@@V?$allocator@U?$pair@QAUlua_State@@PAVILuaInterface@@@std@@@4@$0A@@std@@@std@@IAE?AV?$_Tree_iterator@V?$_Tree_val@U?$_Tree_simple_types@U?$pair@QAUlua_State@@PAVILuaInterface@@@std@@@std@@@std@@@1@V?$_Tree_const_iterator@V?$_Tree_val@U?$_Tree_simple_types@U?$pair@QAUlua_State@@PAVILuaInterface@@@std@@@std@@@std@@@1@AAU?$pair@QAUlua_State@@PAVILuaInterface@@@1@PAU?$_Tree_node@U?$pair@QAUlua_State@@PAVILuaInterface@@@std@@PAX@1@@Z 10042e10     ILuaModuleManager.obj
 0002:0000ce34       __unwindtable$??$_Insert_hint@AAU?$pair@QAUlua_State@@PAVILuaInterface@@@std@@PAU?$_Tree_node@U?$pair@QAUlua_State@@PAVILuaInterface@@@std@@PAX@2@@?$_Tree@V?$_Tmap_traits@PAUlua_State@@PAVILuaInterface@@U?$less@PAUlua_State@@@std@@V?$allocator@U?$pair@QAUlua_State@@PAVILuaInterface@@@std@@@4@$0A@@std@@@std@@IAE?AV?$_Tree_iterator@V?$_Tree_val@U?$_Tree_simple_types@U?$pair@QAUlua_State@@PAVILuaInterface@@@std@@@std@@@std@@@1@V?$_Tree_const_iterator@V?$_Tree_val@U?$_Tree_simple_types@U?$pair@QAUlua_State@@PAVILuaInterface@@@std@@@std@@@std@@@1@AAU?$pair@QAUlua_State@@PAVILuaInterface@@@1@PAU?$_Tree_node@U?$pair@QAUlua_State@@PAVILuaInterface@@@std@@PAX@1@@Z 10042e34     ILuaModuleManager.obj
 0002:0000ce44       __tryblocktable$??$_Insert_hint@AAU?$pair@QAUlua_State@@PAVILuaInterface@@@std@@PAU?$_Tree_node@U?$pair@QAUlua_State@@PAVILuaInterface@@@std@@PAX@2@@?$_Tree@V?$_Tmap_traits@PAUlua_State@@PAVILuaInterface@@U?$less@PAUlua_State@@@std@@V?$allocator@U?$pair@QAUlua_State@@PAVILuaInterface@@@std@@@4@$0A@@std@@@std@@IAE?AV?$_Tree_iterator@V?$_Tree_val@U?$_Tree_simple_types@U?$pair@QAUlua_State@@PAVILuaInterface@@@std@@@std@@@std@@@1@V?$_Tree_const_iterator@V?$_Tree_val@U?$_Tree_simple_types@U?$pair@QAUlua_State@@PAVILuaInterface@@@std@@@std@@@std@@@1@AAU?$pair@QAUlua_State@@PAVILuaInterface@@@1@PAU?$_Tree_node@U?$pair@QAUlua_State@@PAVILuaInterface@@@std@@PAX@1@@Z 10042e44     ILuaModuleManager.obj
 0002:0000ce58       __catchsym$??$_Insert_hint@AAU?$pair@QAUlua_State@@PAVILuaInterface@@@std@@PAU?$_Tree_node@U?$pair@QAUlua_State@@PAVILuaInterface@@@std@@PAX@2@@?$_Tree@V?$_Tmap_traits@PAUlua_State@@PAVILuaInterface@@U?$less@PAUlua_State@@@std@@V?$allocator@U?$pair@QAUlua_State@@PAVILuaInterface@@@std@@@4@$0A@@std@@@std@@IAE?AV?$_Tree_iterator@V?$_Tree_val@U?$_Tree_simple_types@U?$pair@QAUlua_State@@PAVILuaInterface@@@std@@@std@@@std@@@1@V?$_Tree_const_iterator@V?$_Tree_val@U?$_Tree_simple_types@U?$pair@QAUlua_State@@PAVILuaInterface@@@std@@@std@@@std@@@1@AAU?$pair@QAUlua_State@@PAVILuaInterface@@@1@PAU?$_Tree_node@U?$pair@QAUlua_State@@PAVILuaInterface@@@std@@PAX@1@@Z$2 10042e58     ILuaModuleManager.obj
 0002:0000ce68       __ehfuncinfo$?_Buynode0@?$_Tree_comp_alloc@V?$_Tmap_traits@PAUlua_State@@PAVILuaInterface@@U?$less@PAUlua_State@@@std@@V?$allocator@U?$pair@QAUlua_State@@PAVILuaInterface@@@std@@@4@$0A@@std@@@std@@QAEPAU?$_Tree_node@U?$pair@QAUlua_State@@PAVILuaInterface@@@std@@PAX@2@XZ 10042e68     ILuaModuleManager.obj
 0002:0000ce8c       __unwindtable$?_Buynode0@?$_Tree_comp_alloc@V?$_Tmap_traits@PAUlua_State@@PAVILuaInterface@@U?$less@PAUlua_State@@@std@@V?$allocator@U?$pair@QAUlua_State@@PAVILuaInterface@@@std@@@4@$0A@@std@@@std@@QAEPAU?$_Tree_node@U?$pair@QAUlua_State@@PAVILuaInterface@@@std@@PAX@2@XZ 10042e8c     ILuaModuleManager.obj
 0002:0000ce9c       __tryblocktable$?_Buynode0@?$_Tree_comp_alloc@V?$_Tmap_traits@PAUlua_State@@PAVILuaInterface@@U?$less@PAUlua_State@@@std@@V?$allocator@U?$pair@QAUlua_State@@PAVILuaInterface@@@std@@@4@$0A@@std@@@std@@QAEPAU?$_Tree_node@U?$pair@QAUlua_State@@PAVILuaInterface@@@std@@PAX@2@XZ 10042e9c     ILuaModuleManager.obj
 0002:0000ceb0       __catchsym$?_Buynode0@?$_Tree_comp_alloc@V?$_Tmap_traits@PAUlua_State@@PAVILuaInterface@@U?$less@PAUlua_State@@@std@@V?$allocator@U?$pair@QAUlua_State@@PAVILuaInterface@@@std@@@4@$0A@@std@@@std@@QAEPAU?$_Tree_node@U?$pair@QAUlua_State@@PAVILuaInterface@@@std@@PAX@2@XZ$2 10042eb0     ILuaModuleManager.obj
 0002:0000cec0       __ehfuncinfo$??$_Insert_nohint@AAU?$pair@QAUlua_State@@PAVILuaInterface@@@std@@PAU?$_Tree_node@U?$pair@QAUlua_State@@PAVILuaInterface@@@std@@PAX@2@@?$_Tree@V?$_Tmap_traits@PAUlua_State@@PAVILuaInterface@@U?$less@PAUlua_State@@@std@@V?$allocator@U?$pair@QAUlua_State@@PAVILuaInterface@@@std@@@4@$0A@@std@@@std@@IAE?AU?$pair@V?$_Tree_iterator@V?$_Tree_val@U?$_Tree_simple_types@U?$pair@QAUlua_State@@PAVILuaInterface@@@std@@@std@@@std@@@std@@_N@1@_NAAU?$pair@QAUlua_State@@PAVILuaInterface@@@1@PAU?$_Tree_node@U?$pair@QAUlua_State@@PAVILuaInterface@@@std@@PAX@1@@Z 10042ec0     ILuaModuleManager.obj
 0002:0000cee4       __unwindtable$??$_Insert_nohint@AAU?$pair@QAUlua_State@@PAVILuaInterface@@@std@@PAU?$_Tree_node@U?$pair@QAUlua_State@@PAVILuaInterface@@@std@@PAX@2@@?$_Tree@V?$_Tmap_traits@PAUlua_State@@PAVILuaInterface@@U?$less@PAUlua_State@@@std@@V?$allocator@U?$pair@QAUlua_State@@PAVILuaInterface@@@std@@@4@$0A@@std@@@std@@IAE?AU?$pair@V?$_Tree_iterator@V?$_Tree_val@U?$_Tree_simple_types@U?$pair@QAUlua_State@@PAVILuaInterface@@@std@@@std@@@std@@@std@@_N@1@_NAAU?$pair@QAUlua_State@@PAVILuaInterface@@@1@PAU?$_Tree_node@U?$pair@QAUlua_State@@PAVILuaInterface@@@std@@PAX@1@@Z 10042ee4     ILuaModuleManager.obj
 0002:0000cef4       __tryblocktable$??$_Insert_nohint@AAU?$pair@QAUlua_State@@PAVILuaInterface@@@std@@PAU?$_Tree_node@U?$pair@QAUlua_State@@PAVILuaInterface@@@std@@PAX@2@@?$_Tree@V?$_Tmap_traits@PAUlua_State@@PAVILuaInterface@@U?$less@PAUlua_State@@@std@@V?$allocator@U?$pair@QAUlua_State@@PAVILuaInterface@@@std@@@4@$0A@@std@@@std@@IAE?AU?$pair@V?$_Tree_iterator@V?$_Tree_val@U?$_Tree_simple_types@U?$pair@QAUlua_State@@PAVILuaInterface@@@std@@@std@@@std@@@std@@_N@1@_NAAU?$pair@QAUlua_State@@PAVILuaInterface@@@1@PAU?$_Tree_node@U?$pair@QAUlua_State@@PAVILuaInterface@@@std@@PAX@1@@Z 10042ef4     ILuaModuleManager.obj
 0002:0000cf08       __catchsym$??$_Insert_nohint@AAU?$pair@QAUlua_State@@PAVILuaInterface@@@std@@PAU?$_Tree_node@U?$pair@QAUlua_State@@PAVILuaInterface@@@std@@PAX@2@@?$_Tree@V?$_Tmap_traits@PAUlua_State@@PAVILuaInterface@@U?$less@PAUlua_State@@@std@@V?$allocator@U?$pair@QAUlua_State@@PAVILuaInterface@@@std@@@4@$0A@@std@@@std@@IAE?AU?$pair@V?$_Tree_iterator@V?$_Tree_val@U?$_Tree_simple_types@U?$pair@QAUlua_State@@PAVILuaInterface@@@std@@@std@@@std@@@std@@_N@1@_NAAU?$pair@QAUlua_State@@PAVILuaInterface@@@1@PAU?$_Tree_node@U?$pair@QAUlua_State@@PAVILuaInterface@@@std@@PAX@1@@Z$2 10042f08     ILuaModuleManager.obj
 0002:0000cf18       __ehfuncinfo$??$construct@U?$pair@QAUlua_State@@PAVILuaInterface@@@std@@ABUpiecewise_construct_t@2@V?$tuple@ABQAUlua_State@@@2@V?$tuple@$$V@2@@?$allocator@U?$_Tree_node@U?$pair@QAUlua_State@@PAVILuaInterface@@@std@@PAX@std@@@std@@QAEXPAU?$pair@QAUlua_State@@PAVILuaInterface@@@1@ABUpiecewise_construct_t@1@$$QAV?$tuple@ABQAUlua_State@@@1@$$QAV?$tuple@$$V@1@@Z 10042f18     ILuaModuleManager.obj
 0002:0000cf3c       __unwindtable$??$construct@U?$pair@QAUlua_State@@PAVILuaInterface@@@std@@ABUpiecewise_construct_t@2@V?$tuple@ABQAUlua_State@@@2@V?$tuple@$$V@2@@?$allocator@U?$_Tree_node@U?$pair@QAUlua_State@@PAVILuaInterface@@@std@@PAX@std@@@std@@QAEXPAU?$pair@QAUlua_State@@PAVILuaInterface@@@1@ABUpiecewise_construct_t@1@$$QAV?$tuple@ABQAUlua_State@@@1@$$QAV?$tuple@$$V@1@@Z 10042f3c     ILuaModuleManager.obj
 0002:0000cf44       __ehfuncinfo$?copy_boost_exception@exception_detail@boost@@YAXPAVexception@2@PBV32@@Z 10042f44     main.obj
 0002:0000cf68       __unwindtable$?copy_boost_exception@exception_detail@boost@@YAXPAVexception@2@PBV32@@Z 10042f68     main.obj
 0002:0000cf78       __ehfuncinfo$?gmtime@c_time@date_time@boost@@SAPAUtm@@PB_JPAU4@@Z 10042f78     main.obj
 0002:0000cf9c       __unwindtable$?gmtime@c_time@date_time@boost@@SAPAUtm@@PB_JPAU4@@Z 10042f9c     main.obj
 0002:0000cfa4       __ehfuncinfo$??0bad_year@gregorian@boost@@QAE@XZ 10042fa4     main.obj
 0002:0000cfa4       __ehfuncinfo$??0bad_month@gregorian@boost@@QAE@XZ 10042fa4     main.obj
 0002:0000cfa4       __ehfuncinfo$??0bad_day_of_month@gregorian@boost@@QAE@XZ 10042fa4     main.obj
 0002:0000cfc8       __unwindtable$??0bad_year@gregorian@boost@@QAE@XZ 10042fc8     main.obj
 0002:0000cfc8       __unwindtable$??0bad_month@gregorian@boost@@QAE@XZ 10042fc8     main.obj
 0002:0000cfc8       __unwindtable$??0bad_day_of_month@gregorian@boost@@QAE@XZ 10042fc8     main.obj
 0002:0000cfd0       __ehfuncinfo$??0date@gregorian@boost@@QAE@Vgreg_year@12@Vgreg_month@12@Vgreg_day@12@@Z 10042fd0     main.obj
 0002:0000cff4       __unwindtable$??0date@gregorian@boost@@QAE@Vgreg_year@12@Vgreg_month@12@Vgreg_day@12@@Z 10042ff4     main.obj
 0002:0000d004       __ehfuncinfo$?nav_Create@@YAHPAUlua_State@@@Z 10043004     main.obj
 0002:0000d028       __unwindtable$?nav_Create@@YAHPAUlua_State@@@Z 10043028     main.obj
 0002:0000d030       __ehfuncinfo$?Nav_Generate@@YAHPAUlua_State@@@Z 10043030     main.obj
 0002:0000d030       __ehfuncinfo$?Nav_FindPathHull@@YAHPAUlua_State@@@Z 10043030     main.obj
 0002:0000d030       __ehfuncinfo$?Nav_FindPath@@YAHPAUlua_State@@@Z 10043030     main.obj
 0002:0000d054       __unwindtable$?Nav_Generate@@YAHPAUlua_State@@@Z 10043054     main.obj
 0002:0000d054       __unwindtable$?Nav_FindPath@@YAHPAUlua_State@@@Z 10043054     main.obj
 0002:0000d054       __unwindtable$?Nav_FindPathHull@@YAHPAUlua_State@@@Z 10043054     main.obj
 0002:0000d05c       __ehfuncinfo$??0JobInfo_t@@QAE@XZ 1004305c     main.obj
 0002:0000d080       __unwindtable$??0JobInfo_t@@QAE@XZ 10043080     main.obj
 0002:0000d088       __ehfuncinfo$?Nav_FindPathImmediate@@YAHPAUlua_State@@@Z 10043088     main.obj
 0002:0000d0ac       __unwindtable$?Nav_FindPathImmediate@@YAHPAUlua_State@@@Z 100430ac     main.obj
 0002:0000d0b4       __ehfuncinfo$?on_error@?$simple_exception_policy@G$00$0BP@Ubad_day_of_month@gregorian@boost@@@CV@boost@@SAXGGW4violation_enum@23@@Z 100430b4     main.obj
 0002:0000d0b4       __ehfuncinfo$?on_error@?$simple_exception_policy@G$00$0M@Ubad_month@gregorian@boost@@@CV@boost@@SAXGGW4violation_enum@23@@Z 100430b4     main.obj
 0002:0000d0b4       __ehfuncinfo$?on_error@?$simple_exception_policy@G$0FHI@$0CHBA@Ubad_year@gregorian@boost@@@CV@boost@@SAXGGW4violation_enum@23@@Z 100430b4     main.obj
 0002:0000d0d8       __unwindtable$?on_error@?$simple_exception_policy@G$00$0M@Ubad_month@gregorian@boost@@@CV@boost@@SAXGGW4violation_enum@23@@Z 100430d8     main.obj
 0002:0000d0d8       __unwindtable$?on_error@?$simple_exception_policy@G$0FHI@$0CHBA@Ubad_year@gregorian@boost@@@CV@boost@@SAXGGW4violation_enum@23@@Z 100430d8     main.obj
 0002:0000d0d8       __unwindtable$?on_error@?$simple_exception_policy@G$00$0BP@Ubad_day_of_month@gregorian@boost@@@CV@boost@@SAXGGW4violation_enum@23@@Z 100430d8     main.obj
 0002:0000d0e0       __ehfuncinfo$?_Copy@?$basic_string@DU?$char_traits@D@std@@V?$allocator@D@2@@std@@QAEXII@Z 100430e0     main.obj
 0002:0000d104       __unwindtable$?_Copy@?$basic_string@DU?$char_traits@D@std@@V?$allocator@D@2@@std@@QAEXII@Z 10043104     main.obj
 0002:0000d124       __tryblocktable$?_Copy@?$basic_string@DU?$char_traits@D@std@@V?$allocator@D@2@@std@@QAEXII@Z 10043124     main.obj
 0002:0000d14c       __catchsym$?_Copy@?$basic_string@DU?$char_traits@D@std@@V?$allocator@D@2@@std@@QAEXII@Z$4 1004314c     main.obj
 0002:0000d15c       __catchsym$?_Copy@?$basic_string@DU?$char_traits@D@std@@V?$allocator@D@2@@std@@QAEXII@Z$5 1004315c     main.obj
 0002:0000d16c       __ehfuncinfo$??$throw_exception@Vruntime_error@std@@@boost@@YAXABVruntime_error@std@@@Z 1004316c     main.obj
 0002:0000d190       __unwindtable$??$throw_exception@Vruntime_error@std@@@boost@@YAXABVruntime_error@std@@@Z 10043190     main.obj
 0002:0000d198       __ehfuncinfo$??$throw_exception@Ubad_day_of_month@gregorian@boost@@@boost@@YAXABUbad_day_of_month@gregorian@0@@Z 10043198     main.obj
 0002:0000d1bc       __unwindtable$??$throw_exception@Ubad_day_of_month@gregorian@boost@@@boost@@YAXABUbad_day_of_month@gregorian@0@@Z 100431bc     main.obj
 0002:0000d1c4       __ehfuncinfo$??0?$CUtlLinkedList@UAirSeedSpot@@H$0A@HV?$CUtlMemory@U?$UtlLinkedListElem_t@UAirSeedSpot@@H@@H@@@@QAE@HH@Z 100431c4     nav.obj
 0002:0000d1c4       __ehfuncinfo$??0?$CUtlVector@PAVNode@@V?$CUtlMemory@PAVNode@@H@@@@QAE@HH@Z 100431c4     main.obj
 0002:0000d1c4       __ehfuncinfo$??0?$CUtlLinkedList@UGroundSeedSpot@@H$0A@HV?$CUtlMemory@U?$UtlLinkedListElem_t@UGroundSeedSpot@@H@@H@@@@QAE@HH@Z 100431c4     nav.obj
 0002:0000d1c4       __ehfuncinfo$??0?$CUtlVector@PAUJobInfo_t@@V?$CUtlMemory@PAUJobInfo_t@@H@@@@QAE@HH@Z 100431c4     main.obj
 0002:0000d1e8       __unwindtable$??0?$CUtlLinkedList@UAirSeedSpot@@H$0A@HV?$CUtlMemory@U?$UtlLinkedListElem_t@UAirSeedSpot@@H@@H@@@@QAE@HH@Z 100431e8     nav.obj
 0002:0000d1e8       __unwindtable$??0?$CUtlVector@PAVNode@@V?$CUtlMemory@PAVNode@@H@@@@QAE@HH@Z 100431e8     main.obj
 0002:0000d1e8       __unwindtable$??0?$CUtlLinkedList@UGroundSeedSpot@@H$0A@HV?$CUtlMemory@U?$UtlLinkedListElem_t@UGroundSeedSpot@@H@@H@@@@QAE@HH@Z 100431e8     nav.obj
 0002:0000d1e8       __unwindtable$??0?$CUtlVector@PAUJobInfo_t@@V?$CUtlMemory@PAUJobInfo_t@@H@@@@QAE@HH@Z 100431e8     main.obj
 0002:0000d1f0       __ehfuncinfo$??$throw_exception@Ubad_month@gregorian@boost@@@boost@@YAXABUbad_month@gregorian@0@@Z 100431f0     main.obj
 0002:0000d214       __unwindtable$??$throw_exception@Ubad_month@gregorian@boost@@@boost@@YAXABUbad_month@gregorian@0@@Z 10043214     main.obj
 0002:0000d21c       __ehfuncinfo$??$throw_exception@Ubad_year@gregorian@boost@@@boost@@YAXABUbad_year@gregorian@0@@Z 1004321c     main.obj
 0002:0000d240       __unwindtable$??$throw_exception@Ubad_year@gregorian@boost@@@boost@@YAXABUbad_year@gregorian@0@@Z 10043240     main.obj
 0002:0000d248       __ehfuncinfo$??0?$clone_impl@U?$error_info_injector@Ubad_day_of_month@gregorian@boost@@@exception_detail@boost@@@exception_detail@boost@@QAE@ABV012@@Z 10043248     main.obj
 0002:0000d248       __ehfuncinfo$??0?$clone_impl@U?$error_info_injector@Vruntime_error@std@@@exception_detail@boost@@@exception_detail@boost@@QAE@ABV012@@Z 10043248     main.obj
 0002:0000d248       __ehfuncinfo$??0?$clone_impl@U?$error_info_injector@Vbad_alloc@std@@@exception_detail@boost@@@exception_detail@boost@@QAE@ABV012@@Z 10043248     nav.obj
 0002:0000d248       __ehfuncinfo$??0?$clone_impl@U?$error_info_injector@Ubad_month@gregorian@boost@@@exception_detail@boost@@@exception_detail@boost@@QAE@ABV012@@Z 10043248     main.obj
 0002:0000d248       __ehfuncinfo$??0?$clone_impl@U?$error_info_injector@Ubad_year@gregorian@boost@@@exception_detail@boost@@@exception_detail@boost@@QAE@ABV012@@Z 10043248     main.obj
 0002:0000d26c       __unwindtable$??0?$clone_impl@U?$error_info_injector@Vbad_alloc@std@@@exception_detail@boost@@@exception_detail@boost@@QAE@ABV012@@Z 1004326c     nav.obj
 0002:0000d26c       __unwindtable$??0?$clone_impl@U?$error_info_injector@Vruntime_error@std@@@exception_detail@boost@@@exception_detail@boost@@QAE@ABV012@@Z 1004326c     main.obj
 0002:0000d26c       __unwindtable$??0?$clone_impl@U?$error_info_injector@Ubad_month@gregorian@boost@@@exception_detail@boost@@@exception_detail@boost@@QAE@ABV012@@Z 1004326c     main.obj
 0002:0000d26c       __unwindtable$??0?$clone_impl@U?$error_info_injector@Ubad_year@gregorian@boost@@@exception_detail@boost@@@exception_detail@boost@@QAE@ABV012@@Z 1004326c     main.obj
 0002:0000d26c       __unwindtable$??0?$clone_impl@U?$error_info_injector@Ubad_day_of_month@gregorian@boost@@@exception_detail@boost@@@exception_detail@boost@@QAE@ABV012@@Z 1004326c     main.obj
 0002:0000d274       __ehfuncinfo$??0?$error_info_injector@Vbad_alloc@std@@@exception_detail@boost@@QAE@ABU012@@Z 10043274     nav.obj
 0002:0000d274       __ehfuncinfo$??0?$error_info_injector@Vruntime_error@std@@@exception_detail@boost@@QAE@ABU012@@Z 10043274     main.obj
 0002:0000d298       __unwindtable$??0?$error_info_injector@Vruntime_error@std@@@exception_detail@boost@@QAE@ABU012@@Z 10043298     main.obj
 0002:0000d298       __unwindtable$??0?$error_info_injector@Vbad_alloc@std@@@exception_detail@boost@@QAE@ABU012@@Z 10043298     nav.obj
 0002:0000d2a0       __ehfuncinfo$??0?$error_info_injector@Ubad_year@gregorian@boost@@@exception_detail@boost@@QAE@ABU012@@Z 100432a0     main.obj
 0002:0000d2a0       __ehfuncinfo$??0?$error_info_injector@Ubad_month@gregorian@boost@@@exception_detail@boost@@QAE@ABU012@@Z 100432a0     main.obj
 0002:0000d2a0       __ehfuncinfo$??0?$error_info_injector@Ubad_day_of_month@gregorian@boost@@@exception_detail@boost@@QAE@ABU012@@Z 100432a0     main.obj
 0002:0000d2c4       __unwindtable$??0?$error_info_injector@Ubad_day_of_month@gregorian@boost@@@exception_detail@boost@@QAE@ABU012@@Z 100432c4     main.obj
 0002:0000d2c4       __unwindtable$??0?$error_info_injector@Ubad_month@gregorian@boost@@@exception_detail@boost@@QAE@ABU012@@Z 100432c4     main.obj
 0002:0000d2c4       __unwindtable$??0?$error_info_injector@Ubad_year@gregorian@boost@@@exception_detail@boost@@QAE@ABU012@@Z 100432c4     main.obj
 0002:0000d2cc       __ehfuncinfo$?clone@?$clone_impl@U?$error_info_injector@Vbad_alloc@std@@@exception_detail@boost@@@exception_detail@boost@@EBEPBVclone_base@23@XZ 100432cc     nav.obj
 0002:0000d2cc       __ehfuncinfo$?clone@?$clone_impl@U?$error_info_injector@Vruntime_error@std@@@exception_detail@boost@@@exception_detail@boost@@EBEPBVclone_base@23@XZ 100432cc     main.obj
 0002:0000d2cc       __ehfuncinfo$?clone@?$clone_impl@U?$error_info_injector@Ubad_day_of_month@gregorian@boost@@@exception_detail@boost@@@exception_detail@boost@@EBEPBVclone_base@23@XZ 100432cc     main.obj
 0002:0000d2cc       __ehfuncinfo$?clone@?$clone_impl@U?$error_info_injector@Ubad_year@gregorian@boost@@@exception_detail@boost@@@exception_detail@boost@@EBEPBVclone_base@23@XZ 100432cc     main.obj
 0002:0000d2cc       __ehfuncinfo$?clone@?$clone_impl@U?$error_info_injector@Ubad_month@gregorian@boost@@@exception_detail@boost@@@exception_detail@boost@@EBEPBVclone_base@23@XZ 100432cc     main.obj
 0002:0000d2f0       __unwindtable$?clone@?$clone_impl@U?$error_info_injector@Ubad_month@gregorian@boost@@@exception_detail@boost@@@exception_detail@boost@@EBEPBVclone_base@23@XZ 100432f0     main.obj
 0002:0000d2f0       __unwindtable$?clone@?$clone_impl@U?$error_info_injector@Ubad_day_of_month@gregorian@boost@@@exception_detail@boost@@@exception_detail@boost@@EBEPBVclone_base@23@XZ 100432f0     main.obj
 0002:0000d2f0       __unwindtable$?clone@?$clone_impl@U?$error_info_injector@Ubad_year@gregorian@boost@@@exception_detail@boost@@@exception_detail@boost@@EBEPBVclone_base@23@XZ 100432f0     main.obj
 0002:0000d2f0       __unwindtable$?clone@?$clone_impl@U?$error_info_injector@Vbad_alloc@std@@@exception_detail@boost@@@exception_detail@boost@@EBEPBVclone_base@23@XZ 100432f0     nav.obj
 0002:0000d2f0       __unwindtable$?clone@?$clone_impl@U?$error_info_injector@Vruntime_error@std@@@exception_detail@boost@@@exception_detail@boost@@EBEPBVclone_base@23@XZ 100432f0     main.obj
 0002:0000d2f8       __ehfuncinfo$??0?$clone_impl@U?$error_info_injector@Ubad_year@gregorian@boost@@@exception_detail@boost@@@exception_detail@boost@@AAE@ABV012@Uclone_tag@012@@Z 100432f8     main.obj
 0002:0000d2f8       __ehfuncinfo$??0?$clone_impl@U?$error_info_injector@Ubad_year@gregorian@boost@@@exception_detail@boost@@@exception_detail@boost@@QAE@ABU?$error_info_injector@Ubad_year@gregorian@boost@@@12@@Z 100432f8     main.obj
 0002:0000d31c       __unwindtable$??0?$clone_impl@U?$error_info_injector@Ubad_year@gregorian@boost@@@exception_detail@boost@@@exception_detail@boost@@QAE@ABU?$error_info_injector@Ubad_year@gregorian@boost@@@12@@Z 1004331c     main.obj
 0002:0000d31c       __unwindtable$??0?$clone_impl@U?$error_info_injector@Ubad_year@gregorian@boost@@@exception_detail@boost@@@exception_detail@boost@@AAE@ABV012@Uclone_tag@012@@Z 1004331c     main.obj
 0002:0000d32c       __ehfuncinfo$??0?$clone_impl@U?$error_info_injector@Ubad_month@gregorian@boost@@@exception_detail@boost@@@exception_detail@boost@@QAE@ABU?$error_info_injector@Ubad_month@gregorian@boost@@@12@@Z 1004332c     main.obj
 0002:0000d32c       __ehfuncinfo$??0?$clone_impl@U?$error_info_injector@Ubad_month@gregorian@boost@@@exception_detail@boost@@@exception_detail@boost@@AAE@ABV012@Uclone_tag@012@@Z 1004332c     main.obj
 0002:0000d350       __unwindtable$??0?$clone_impl@U?$error_info_injector@Ubad_month@gregorian@boost@@@exception_detail@boost@@@exception_detail@boost@@QAE@ABU?$error_info_injector@Ubad_month@gregorian@boost@@@12@@Z 10043350     main.obj
 0002:0000d350       __unwindtable$??0?$clone_impl@U?$error_info_injector@Ubad_month@gregorian@boost@@@exception_detail@boost@@@exception_detail@boost@@AAE@ABV012@Uclone_tag@012@@Z 10043350     main.obj
 0002:0000d360       __ehfuncinfo$??0?$clone_impl@U?$error_info_injector@Ubad_day_of_month@gregorian@boost@@@exception_detail@boost@@@exception_detail@boost@@QAE@ABU?$error_info_injector@Ubad_day_of_month@gregorian@boost@@@12@@Z 10043360     main.obj
 0002:0000d360       __ehfuncinfo$??0?$clone_impl@U?$error_info_injector@Ubad_day_of_month@gregorian@boost@@@exception_detail@boost@@@exception_detail@boost@@AAE@ABV012@Uclone_tag@012@@Z 10043360     main.obj
 0002:0000d384       __unwindtable$??0?$clone_impl@U?$error_info_injector@Ubad_day_of_month@gregorian@boost@@@exception_detail@boost@@@exception_detail@boost@@AAE@ABV012@Uclone_tag@012@@Z 10043384     main.obj
 0002:0000d384       __unwindtable$??0?$clone_impl@U?$error_info_injector@Ubad_day_of_month@gregorian@boost@@@exception_detail@boost@@@exception_detail@boost@@QAE@ABU?$error_info_injector@Ubad_day_of_month@gregorian@boost@@@12@@Z 10043384     main.obj
 0002:0000d394       __ehfuncinfo$??0?$clone_impl@U?$error_info_injector@Vruntime_error@std@@@exception_detail@boost@@@exception_detail@boost@@AAE@ABV012@Uclone_tag@012@@Z 10043394     main.obj
 0002:0000d394       __ehfuncinfo$??0?$clone_impl@U?$error_info_injector@Vruntime_error@std@@@exception_detail@boost@@@exception_detail@boost@@QAE@ABU?$error_info_injector@Vruntime_error@std@@@12@@Z 10043394     main.obj
 0002:0000d3b8       __unwindtable$??0?$clone_impl@U?$error_info_injector@Vruntime_error@std@@@exception_detail@boost@@@exception_detail@boost@@QAE@ABU?$error_info_injector@Vruntime_error@std@@@12@@Z 100433b8     main.obj
 0002:0000d3b8       __unwindtable$??0?$clone_impl@U?$error_info_injector@Vruntime_error@std@@@exception_detail@boost@@@exception_detail@boost@@AAE@ABV012@Uclone_tag@012@@Z 100433b8     main.obj
 0002:0000d3c8       __ehfuncinfo$??0?$error_info_injector@Ubad_day_of_month@gregorian@boost@@@exception_detail@boost@@QAE@ABUbad_day_of_month@gregorian@2@@Z 100433c8     main.obj
 0002:0000d3c8       __ehfuncinfo$??0?$error_info_injector@Ubad_month@gregorian@boost@@@exception_detail@boost@@QAE@ABUbad_month@gregorian@2@@Z 100433c8     main.obj
 0002:0000d3c8       __ehfuncinfo$??0?$error_info_injector@Ubad_year@gregorian@boost@@@exception_detail@boost@@QAE@ABUbad_year@gregorian@2@@Z 100433c8     main.obj
 0002:0000d3ec       __unwindtable$??0?$error_info_injector@Ubad_month@gregorian@boost@@@exception_detail@boost@@QAE@ABUbad_month@gregorian@2@@Z 100433ec     main.obj
 0002:0000d3ec       __unwindtable$??0?$error_info_injector@Ubad_day_of_month@gregorian@boost@@@exception_detail@boost@@QAE@ABUbad_day_of_month@gregorian@2@@Z 100433ec     main.obj
 0002:0000d3ec       __unwindtable$??0?$error_info_injector@Ubad_year@gregorian@boost@@@exception_detail@boost@@QAE@ABUbad_year@gregorian@2@@Z 100433ec     main.obj
 0002:0000d3f4       __ehfuncinfo$??0system_error@system@boost@@QAE@ABV012@@Z 100433f4     nav.obj
 0002:0000d3f4       __ehfuncinfo$??0?$error_info_injector@Vruntime_error@std@@@exception_detail@boost@@QAE@ABVruntime_error@std@@@Z 100433f4     main.obj
 0002:0000d3f4       __ehfuncinfo$??0?$error_info_injector@Vbad_alloc@std@@@exception_detail@boost@@QAE@ABVbad_alloc@std@@@Z 100433f4     nav.obj
 0002:0000d418       __unwindtable$??0?$error_info_injector@Vbad_alloc@std@@@exception_detail@boost@@QAE@ABVbad_alloc@std@@@Z 10043418     nav.obj
 0002:0000d418       __unwindtable$??0system_error@system@boost@@QAE@ABV012@@Z 10043418     nav.obj
 0002:0000d418       __unwindtable$??0?$error_info_injector@Vruntime_error@std@@@exception_detail@boost@@QAE@ABVruntime_error@std@@@Z 10043418     main.obj
 0002:0000d420       __ehfuncinfo$?what@system_error@system@boost@@UBEPBDXZ 10043420     nav.obj
 0002:0000d444       __unwindtable$?what@system_error@system@boost@@UBEPBDXZ 10043444     nav.obj
 0002:0000d45c       __tryblocktable$?what@system_error@system@boost@@UBEPBDXZ 1004345c     nav.obj
 0002:0000d470       __catchsym$?what@system_error@system@boost@@UBEPBDXZ$3 10043470     nav.obj
 0002:0000d480       __ehfuncinfo$?start_thread@thread@boost@@AAEXXZ 10043480     nav.obj
 0002:0000d480       __ehfuncinfo$?create_anonymous_event@win32@detail@boost@@YAPAXW4event_type@123@W4initial_event_state@123@@Z 10043480     nav.obj
 0002:0000d4a4       __unwindtable$?start_thread@thread@boost@@AAEXXZ 100434a4     nav.obj
 0002:0000d4a4       __unwindtable$?create_anonymous_event@win32@detail@boost@@YAPAXW4event_type@123@W4initial_event_state@123@@Z 100434a4     nav.obj
 0002:0000d4ac       __ehfuncinfo$?allocate_raw_heap_memory@detail@boost@@YAPAXI@Z 100434ac     nav.obj
 0002:0000d4d0       __unwindtable$?allocate_raw_heap_memory@detail@boost@@YAPAXI@Z 100434d0     nav.obj
 0002:0000d4d8       __ehfuncinfo$??0thread_data_base@detail@boost@@QAE@XZ 100434d8     nav.obj
 0002:0000d4fc       __unwindtable$??0thread_data_base@detail@boost@@QAE@XZ 100434fc     nav.obj
 0002:0000d51c       __ehfuncinfo$??0Nav@@QAE@H@Z 1004351c     nav.obj
 0002:0000d540       __unwindtable$??0Nav@@QAE@H@Z 10043540     nav.obj
 0002:0000d570       __ehfuncinfo$?AddNode@Nav@@QAEPAVNode@@ABVVector@@0W4NavDirType@@PAV2@@Z 10043570     nav.obj
 0002:0000d594       __unwindtable$?AddNode@Nav@@QAEPAVNode@@ABVVector@@0W4NavDirType@@PAV2@@Z 10043594     nav.obj
 0002:0000d59c       __ehfuncinfo$?GetNextGroundSeedNode@Nav@@QAEPAVNode@@XZ 1004359c     nav.obj
 0002:0000d59c       __ehfuncinfo$?GetNextAirSeedNode@Nav@@QAEPAVNode@@XZ 1004359c     nav.obj
 0002:0000d5c0       __unwindtable$?GetNextGroundSeedNode@Nav@@QAEPAVNode@@XZ 100435c0     nav.obj
 0002:0000d5c0       __unwindtable$?GetNextAirSeedNode@Nav@@QAEPAVNode@@XZ 100435c0     nav.obj
 0002:0000d5c8       __ehfuncinfo$?Load@Nav@@QAE_NPBD@Z 100435c8     nav.obj
 0002:0000d5ec       __unwindtable$?Load@Nav@@QAE_NPBD@Z 100435ec     nav.obj
 0002:0000d5f4       __ehfuncinfo$?_Reallocate@?$vector@U?$pair@PAVcondition_variable@boost@@PAVmutex@2@@std@@V?$allocator@U?$pair@PAVcondition_variable@boost@@PAVmutex@2@@std@@@2@@std@@IAEXI@Z 100435f4     nav.obj
 0002:0000d618       __unwindtable$?_Reallocate@?$vector@U?$pair@PAVcondition_variable@boost@@PAVmutex@2@@std@@V?$allocator@U?$pair@PAVcondition_variable@boost@@PAVmutex@2@@std@@@2@@std@@IAEXI@Z 10043618     nav.obj
 0002:0000d628       __tryblocktable$?_Reallocate@?$vector@U?$pair@PAVcondition_variable@boost@@PAVmutex@2@@std@@V?$allocator@U?$pair@PAVcondition_variable@boost@@PAVmutex@2@@std@@@2@@std@@IAEXI@Z 10043628     nav.obj
 0002:0000d63c       __catchsym$?_Reallocate@?$vector@U?$pair@PAVcondition_variable@boost@@PAVmutex@2@@std@@V?$allocator@U?$pair@PAVcondition_variable@boost@@PAVmutex@2@@std@@@2@@std@@IAEXI@Z$2 1004363c     nav.obj
 0002:0000d64c       __ehfuncinfo$?_Buyheadnode@?$_Tree_comp_alloc@V?$_Tmap_traits@PBXUtss_data_node@detail@boost@@U?$less@PBX@std@@V?$allocator@U?$pair@QBXUtss_data_node@detail@boost@@@std@@@5@$0A@@std@@@std@@QAEPAU?$_Tree_node@U?$pair@QBXUtss_data_node@detail@boost@@@std@@PAX@2@XZ 1004364c     nav.obj
 0002:0000d670       __unwindtable$?_Buyheadnode@?$_Tree_comp_alloc@V?$_Tmap_traits@PBXUtss_data_node@detail@boost@@U?$less@PBX@std@@V?$allocator@U?$pair@QBXUtss_data_node@detail@boost@@@std@@@5@$0A@@std@@@std@@QAEPAU?$_Tree_node@U?$pair@QBXUtss_data_node@detail@boost@@@std@@PAX@2@XZ 10043670     nav.obj
 0002:0000d680       __tryblocktable$?_Buyheadnode@?$_Tree_comp_alloc@V?$_Tmap_traits@PBXUtss_data_node@detail@boost@@U?$less@PBX@std@@V?$allocator@U?$pair@QBXUtss_data_node@detail@boost@@@std@@@5@$0A@@std@@@std@@QAEPAU?$_Tree_node@U?$pair@QBXUtss_data_node@detail@boost@@@std@@PAX@2@XZ 10043680     nav.obj
 0002:0000d694       __catchsym$?_Buyheadnode@?$_Tree_comp_alloc@V?$_Tmap_traits@PBXUtss_data_node@detail@boost@@U?$less@PBX@std@@V?$allocator@U?$pair@QBXUtss_data_node@detail@boost@@@std@@@5@$0A@@std@@@std@@QAEPAU?$_Tree_node@U?$pair@QBXUtss_data_node@detail@boost@@@std@@PAX@2@XZ$2 10043694     nav.obj
 0002:0000d6a4       __ehfuncinfo$??$throw_exception@Vthread_resource_error@boost@@@boost@@YAXABVthread_resource_error@0@@Z 100436a4     nav.obj
 0002:0000d6c8       __unwindtable$??$throw_exception@Vthread_resource_error@boost@@@boost@@YAXABVthread_resource_error@0@@Z 100436c8     nav.obj
 0002:0000d6d0       __ehfuncinfo$??$throw_exception@Vbad_alloc@std@@@boost@@YAXABVbad_alloc@std@@@Z 100436d0     nav.obj
 0002:0000d6f4       __unwindtable$??$throw_exception@Vbad_alloc@std@@@boost@@YAXABVbad_alloc@std@@@Z 100436f4     nav.obj
 0002:0000d6fc       __ehfuncinfo$??$?0P8Nav@@AEXPA_N@ZPAV0@PA_N@thread@boost@@QAE@P8Nav@@AEXPA_N@ZPAV2@0@Z 100436fc     nav.obj
 0002:0000d720       __unwindtable$??$?0P8Nav@@AEXPA_N@ZPAV0@PA_N@thread@boost@@QAE@P8Nav@@AEXPA_N@ZPAV2@0@Z 10043720     nav.obj
 0002:0000d728       __ehfuncinfo$??$?0P8Nav@@AEXPAUJobInfo_t@@PAVNode@@1@ZPAV0@PAU1@PAV2@PAV2@@thread@boost@@QAE@P8Nav@@AEXPAUJobInfo_t@@PAVNode@@1@ZPAV2@011@Z 10043728     nav.obj
 0002:0000d74c       __unwindtable$??$?0P8Nav@@AEXPAUJobInfo_t@@PAVNode@@1@ZPAV0@PAU1@PAV2@PAV2@@thread@boost@@QAE@P8Nav@@AEXPAUJobInfo_t@@PAVNode@@1@ZPAV2@011@Z 1004374c     nav.obj
 0002:0000d754       __ehfuncinfo$??0?$clone_impl@U?$error_info_injector@Vthread_resource_error@boost@@@exception_detail@boost@@@exception_detail@boost@@QAE@ABV012@@Z 10043754     nav.obj
 0002:0000d778       __unwindtable$??0?$clone_impl@U?$error_info_injector@Vthread_resource_error@boost@@@exception_detail@boost@@@exception_detail@boost@@QAE@ABV012@@Z 10043778     nav.obj
 0002:0000d780       __ehfuncinfo$??0?$error_info_injector@Vthread_resource_error@boost@@@exception_detail@boost@@QAE@ABU012@@Z 10043780     nav.obj
 0002:0000d7a4       __unwindtable$??0?$error_info_injector@Vthread_resource_error@boost@@@exception_detail@boost@@QAE@ABU012@@Z 100437a4     nav.obj
 0002:0000d7ac       __ehfuncinfo$?clone@?$clone_impl@U?$error_info_injector@Vthread_resource_error@boost@@@exception_detail@boost@@@exception_detail@boost@@EBEPBVclone_base@23@XZ 100437ac     nav.obj
 0002:0000d7d0       __unwindtable$?clone@?$clone_impl@U?$error_info_injector@Vthread_resource_error@boost@@@exception_detail@boost@@@exception_detail@boost@@EBEPBVclone_base@23@XZ 100437d0     nav.obj
 0002:0000d7d8       __ehfuncinfo$??0?$clone_impl@U?$error_info_injector@Vbad_alloc@std@@@exception_detail@boost@@@exception_detail@boost@@AAE@ABV012@Uclone_tag@012@@Z 100437d8     nav.obj
 0002:0000d7d8       __ehfuncinfo$??0?$clone_impl@U?$error_info_injector@Vbad_alloc@std@@@exception_detail@boost@@@exception_detail@boost@@QAE@ABU?$error_info_injector@Vbad_alloc@std@@@12@@Z 100437d8     nav.obj
 0002:0000d7fc       __unwindtable$??0?$clone_impl@U?$error_info_injector@Vbad_alloc@std@@@exception_detail@boost@@@exception_detail@boost@@AAE@ABV012@Uclone_tag@012@@Z 100437fc     nav.obj
 0002:0000d7fc       __unwindtable$??0?$clone_impl@U?$error_info_injector@Vbad_alloc@std@@@exception_detail@boost@@@exception_detail@boost@@QAE@ABU?$error_info_injector@Vbad_alloc@std@@@12@@Z 100437fc     nav.obj
 0002:0000d80c       __ehfuncinfo$??0?$clone_impl@U?$error_info_injector@Vthread_resource_error@boost@@@exception_detail@boost@@@exception_detail@boost@@QAE@ABU?$error_info_injector@Vthread_resource_error@boost@@@12@@Z 1004380c     nav.obj
 0002:0000d80c       __ehfuncinfo$??0?$clone_impl@U?$error_info_injector@Vthread_resource_error@boost@@@exception_detail@boost@@@exception_detail@boost@@AAE@ABV012@Uclone_tag@012@@Z 1004380c     nav.obj
 0002:0000d830       __unwindtable$??0?$clone_impl@U?$error_info_injector@Vthread_resource_error@boost@@@exception_detail@boost@@@exception_detail@boost@@AAE@ABV012@Uclone_tag@012@@Z 10043830     nav.obj
 0002:0000d830       __unwindtable$??0?$clone_impl@U?$error_info_injector@Vthread_resource_error@boost@@@exception_detail@boost@@@exception_detail@boost@@QAE@ABU?$error_info_injector@Vthread_resource_error@boost@@@12@@Z 10043830     nav.obj
 0002:0000d840       __ehfuncinfo$??0?$error_info_injector@Vthread_resource_error@boost@@@exception_detail@boost@@QAE@ABVthread_resource_error@2@@Z 10043840     nav.obj
 0002:0000d864       __unwindtable$??0?$error_info_injector@Vthread_resource_error@boost@@@exception_detail@boost@@QAE@ABVthread_resource_error@2@@Z 10043864     nav.obj
 0002:0000d86c       __ehfuncinfo$??$heap_new@V?$thread_data@V?$bind_t@XV?$mf1@XVNav@@PA_N@_mfi@boost@@V?$list2@V?$value@PAVNav@@@_bi@boost@@V?$value@PA_N@23@@_bi@3@@_bi@boost@@@detail@boost@@V?$bind_t@XV?$mf1@XVNav@@PA_N@_mfi@boost@@V?$list2@V?$value@PAVNav@@@_bi@boost@@V?$value@PA_N@23@@_bi@3@@_bi@3@@detail@boost@@YAPAV?$thread_data@V?$bind_t@XV?$mf1@XVNav@@PA_N@_mfi@boost@@V?$list2@V?$value@PAVNav@@@_bi@boost@@V?$value@PA_N@23@@_bi@3@@_bi@boost@@@01@$$QAV?$bind_t@XV?$mf1@XVNav@@PA_N@_mfi@boost@@V?$list2@V?$value@PAVNav@@@_bi@boost@@V?$value@PA_N@23@@_bi@3@@_bi@1@@Z 1004386c     nav.obj
 0002:0000d890       __unwindtable$??$heap_new@V?$thread_data@V?$bind_t@XV?$mf1@XVNav@@PA_N@_mfi@boost@@V?$list2@V?$value@PAVNav@@@_bi@boost@@V?$value@PA_N@23@@_bi@3@@_bi@boost@@@detail@boost@@V?$bind_t@XV?$mf1@XVNav@@PA_N@_mfi@boost@@V?$list2@V?$value@PAVNav@@@_bi@boost@@V?$value@PA_N@23@@_bi@3@@_bi@3@@detail@boost@@YAPAV?$thread_data@V?$bind_t@XV?$mf1@XVNav@@PA_N@_mfi@boost@@V?$list2@V?$value@PAVNav@@@_bi@boost@@V?$value@PA_N@23@@_bi@3@@_bi@boost@@@01@$$QAV?$bind_t@XV?$mf1@XVNav@@PA_N@_mfi@boost@@V?$list2@V?$value@PAVNav@@@_bi@boost@@V?$value@PA_N@23@@_bi@3@@_bi@1@@Z 10043890     nav.obj
 0002:0000d8a8       __tryblocktable$??$heap_new@V?$thread_data@V?$bind_t@XV?$mf1@XVNav@@PA_N@_mfi@boost@@V?$list2@V?$value@PAVNav@@@_bi@boost@@V?$value@PA_N@23@@_bi@3@@_bi@boost@@@detail@boost@@V?$bind_t@XV?$mf1@XVNav@@PA_N@_mfi@boost@@V?$list2@V?$value@PAVNav@@@_bi@boost@@V?$value@PA_N@23@@_bi@3@@_bi@3@@detail@boost@@YAPAV?$thread_data@V?$bind_t@XV?$mf1@XVNav@@PA_N@_mfi@boost@@V?$list2@V?$value@PAVNav@@@_bi@boost@@V?$value@PA_N@23@@_bi@3@@_bi@boost@@@01@$$QAV?$bind_t@XV?$mf1@XVNav@@PA_N@_mfi@boost@@V?$list2@V?$value@PAVNav@@@_bi@boost@@V?$value@PA_N@23@@_bi@3@@_bi@1@@Z 100438a8     nav.obj
 0002:0000d8bc       __catchsym$??$heap_new@V?$thread_data@V?$bind_t@XV?$mf1@XVNav@@PA_N@_mfi@boost@@V?$list2@V?$value@PAVNav@@@_bi@boost@@V?$value@PA_N@23@@_bi@3@@_bi@boost@@@detail@boost@@V?$bind_t@XV?$mf1@XVNav@@PA_N@_mfi@boost@@V?$list2@V?$value@PAVNav@@@_bi@boost@@V?$value@PA_N@23@@_bi@3@@_bi@3@@detail@boost@@YAPAV?$thread_data@V?$bind_t@XV?$mf1@XVNav@@PA_N@_mfi@boost@@V?$list2@V?$value@PAVNav@@@_bi@boost@@V?$value@PA_N@23@@_bi@3@@_bi@boost@@@01@$$QAV?$bind_t@XV?$mf1@XVNav@@PA_N@_mfi@boost@@V?$list2@V?$value@PAVNav@@@_bi@boost@@V?$value@PA_N@23@@_bi@3@@_bi@1@@Z$3 100438bc     nav.obj
 0002:0000d8cc       __ehfuncinfo$??$heap_new@V?$thread_data@V?$bind_t@XV?$mf3@XVNav@@PAUJobInfo_t@@PAVNode@@PAV3@@_mfi@boost@@V?$list4@V?$value@PAVNav@@@_bi@boost@@V?$value@PAUJobInfo_t@@@23@V?$value@PAVNode@@@23@V523@@_bi@3@@_bi@boost@@@detail@boost@@V?$bind_t@XV?$mf3@XVNav@@PAUJobInfo_t@@PAVNode@@PAV3@@_mfi@boost@@V?$list4@V?$value@PAVNav@@@_bi@boost@@V?$value@PAUJobInfo_t@@@23@V?$value@PAVNode@@@23@V523@@_bi@3@@_bi@3@@detail@boost@@YAPAV?$thread_data@V?$bind_t@XV?$mf3@XVNav@@PAUJobInfo_t@@PAVNode@@PAV3@@_mfi@boost@@V?$list4@V?$value@PAVNav@@@_bi@boost@@V?$value@PAUJobInfo_t@@@23@V?$value@PAVNode@@@23@V523@@_bi@3@@_bi@boost@@@01@$$QAV?$bind_t@XV?$mf3@XVNav@@PAUJobInfo_t@@PAVNode@@PAV3@@_mfi@boost@@V?$list4@V?$value@PAVNav@@@_bi@boost@@V?$value@PAUJobInfo_t@@@23@V?$value@PAVNode@@@23@V523@@_bi@3@@_bi@1@@Z 100438cc     nav.obj
 0002:0000d8f0       __unwindtable$??$heap_new@V?$thread_data@V?$bind_t@XV?$mf3@XVNav@@PAUJobInfo_t@@PAVNode@@PAV3@@_mfi@boost@@V?$list4@V?$value@PAVNav@@@_bi@boost@@V?$value@PAUJobInfo_t@@@23@V?$value@PAVNode@@@23@V523@@_bi@3@@_bi@boost@@@detail@boost@@V?$bind_t@XV?$mf3@XVNav@@PAUJobInfo_t@@PAVNode@@PAV3@@_mfi@boost@@V?$list4@V?$value@PAVNav@@@_bi@boost@@V?$value@PAUJobInfo_t@@@23@V?$value@PAVNode@@@23@V523@@_bi@3@@_bi@3@@detail@boost@@YAPAV?$thread_data@V?$bind_t@XV?$mf3@XVNav@@PAUJobInfo_t@@PAVNode@@PAV3@@_mfi@boost@@V?$list4@V?$value@PAVNav@@@_bi@boost@@V?$value@PAUJobInfo_t@@@23@V?$value@PAVNode@@@23@V523@@_bi@3@@_bi@boost@@@01@$$QAV?$bind_t@XV?$mf3@XVNav@@PAUJobInfo_t@@PAVNode@@PAV3@@_mfi@boost@@V?$list4@V?$value@PAVNav@@@_bi@boost@@V?$value@PAUJobInfo_t@@@23@V?$value@PAVNode@@@23@V523@@_bi@3@@_bi@1@@Z 100438f0     nav.obj
 0002:0000d908       __tryblocktable$??$heap_new@V?$thread_data@V?$bind_t@XV?$mf3@XVNav@@PAUJobInfo_t@@PAVNode@@PAV3@@_mfi@boost@@V?$list4@V?$value@PAVNav@@@_bi@boost@@V?$value@PAUJobInfo_t@@@23@V?$value@PAVNode@@@23@V523@@_bi@3@@_bi@boost@@@detail@boost@@V?$bind_t@XV?$mf3@XVNav@@PAUJobInfo_t@@PAVNode@@PAV3@@_mfi@boost@@V?$list4@V?$value@PAVNav@@@_bi@boost@@V?$value@PAUJobInfo_t@@@23@V?$value@PAVNode@@@23@V523@@_bi@3@@_bi@3@@detail@boost@@YAPAV?$thread_data@V?$bind_t@XV?$mf3@XVNav@@PAUJobInfo_t@@PAVNode@@PAV3@@_mfi@boost@@V?$list4@V?$value@PAVNav@@@_bi@boost@@V?$value@PAUJobInfo_t@@@23@V?$value@PAVNode@@@23@V523@@_bi@3@@_bi@boost@@@01@$$QAV?$bind_t@XV?$mf3@XVNav@@PAUJobInfo_t@@PAVNode@@PAV3@@_mfi@boost@@V?$list4@V?$value@PAVNav@@@_bi@boost@@V?$value@PAUJobInfo_t@@@23@V?$value@PAVNode@@@23@V523@@_bi@3@@_bi@1@@Z 10043908     nav.obj
 0002:0000d91c       __catchsym$??$heap_new@V?$thread_data@V?$bind_t@XV?$mf3@XVNav@@PAUJobInfo_t@@PAVNode@@PAV3@@_mfi@boost@@V?$list4@V?$value@PAVNav@@@_bi@boost@@V?$value@PAUJobInfo_t@@@23@V?$value@PAVNode@@@23@V523@@_bi@3@@_bi@boost@@@detail@boost@@V?$bind_t@XV?$mf3@XVNav@@PAUJobInfo_t@@PAVNode@@PAV3@@_mfi@boost@@V?$list4@V?$value@PAVNav@@@_bi@boost@@V?$value@PAUJobInfo_t@@@23@V?$value@PAVNode@@@23@V523@@_bi@3@@_bi@3@@detail@boost@@YAPAV?$thread_data@V?$bind_t@XV?$mf3@XVNav@@PAUJobInfo_t@@PAVNode@@PAV3@@_mfi@boost@@V?$list4@V?$value@PAVNav@@@_bi@boost@@V?$value@PAUJobInfo_t@@@23@V?$value@PAVNode@@@23@V523@@_bi@3@@_bi@boost@@@01@$$QAV?$bind_t@XV?$mf3@XVNav@@PAUJobInfo_t@@PAVNode@@PAV3@@_mfi@boost@@V?$list4@V?$value@PAVNav@@@_bi@boost@@V?$value@PAUJobInfo_t@@@23@V?$value@PAVNode@@@23@V523@@_bi@3@@_bi@1@@Z$3 1004391c     nav.obj
 0002:0000d92c       __ehfuncinfo$??$_Uninitialized_move_al_unchecked1@PAU?$pair@PAVcondition_variable@boost@@PAVmutex@2@@std@@PAU12@V?$allocator@U?$pair@PAVcondition_variable@boost@@PAVmutex@2@@std@@@2@@std@@YAPAU?$pair@PAVcondition_variable@boost@@PAVmutex@2@@0@PAU10@00AAU?$_Wrap_alloc@V?$allocator@U?$pair@PAVcondition_variable@boost@@PAVmutex@2@@std@@@std@@@0@U_General_ptr_iterator_tag@0@@Z 1004392c     nav.obj
 0002:0000d950       __unwindtable$??$_Uninitialized_move_al_unchecked1@PAU?$pair@PAVcondition_variable@boost@@PAVmutex@2@@std@@PAU12@V?$allocator@U?$pair@PAVcondition_variable@boost@@PAVmutex@2@@std@@@2@@std@@YAPAU?$pair@PAVcondition_variable@boost@@PAVmutex@2@@0@PAU10@00AAU?$_Wrap_alloc@V?$allocator@U?$pair@PAVcondition_variable@boost@@PAVmutex@2@@std@@@std@@@0@U_General_ptr_iterator_tag@0@@Z 10043950     nav.obj
 0002:0000d960       __tryblocktable$??$_Uninitialized_move_al_unchecked1@PAU?$pair@PAVcondition_variable@boost@@PAVmutex@2@@std@@PAU12@V?$allocator@U?$pair@PAVcondition_variable@boost@@PAVmutex@2@@std@@@2@@std@@YAPAU?$pair@PAVcondition_variable@boost@@PAVmutex@2@@0@PAU10@00AAU?$_Wrap_alloc@V?$allocator@U?$pair@PAVcondition_variable@boost@@PAVmutex@2@@std@@@std@@@0@U_General_ptr_iterator_tag@0@@Z 10043960     nav.obj
 0002:0000d974       __catchsym$??$_Uninitialized_move_al_unchecked1@PAU?$pair@PAVcondition_variable@boost@@PAVmutex@2@@std@@PAU12@V?$allocator@U?$pair@PAVcondition_variable@boost@@PAVmutex@2@@std@@@2@@std@@YAPAU?$pair@PAVcondition_variable@boost@@PAVmutex@2@@0@PAU10@00AAU?$_Wrap_alloc@V?$allocator@U?$pair@PAVcondition_variable@boost@@PAVmutex@2@@std@@@std@@@0@U_General_ptr_iterator_tag@0@@Z$2 10043974     nav.obj
 0002:0000da00       __sehtable$___scrt_is_nonwritable_in_current_image 10043a00     LIBCMT:utility.obj
 0002:0000da20       __sehtable$?dllmain_crt_process_attach@@YAHQAUHINSTANCE__@@QAX@Z 10043a20     LIBCMT:dll_dllmain.obj
 0002:0000da40       __sehtable$?dllmain_crt_process_detach@@YAH_N@Z 10043a40     LIBCMT:dll_dllmain.obj
 0002:0000da60       __sehtable$?dllmain_dispatch@@YAHQAUHINSTANCE__@@KQAX@Z 10043a60     LIBCMT:dll_dllmain.obj
 0002:0000dab8       __unwindtable$?from_day_number@?$gregorian_calendar_base@U?$year_month_day_base@Vgreg_year@gregorian@boost@@Vgreg_month@23@Vgreg_day@23@@date_time@boost@@I@date_time@boost@@SA?AU?$year_month_day_base@Vgreg_year@gregorian@boost@@Vgreg_month@23@Vgreg_day@23@@23@I@Z 10043ab8     libboost_thread-vc140-mt-s-1_60:thread.obj
 0002:0000dac8       __ehfuncinfo$?from_day_number@?$gregorian_calendar_base@U?$year_month_day_base@Vgreg_year@gregorian@boost@@Vgreg_month@23@Vgreg_day@23@@date_time@boost@@I@date_time@boost@@SA?AU?$year_month_day_base@Vgreg_year@gregorian@boost@@Vgreg_month@23@Vgreg_day@23@@23@I@Z 10043ac8     libboost_thread-vc140-mt-s-1_60:thread.obj
 0002:0000daec       __unwindtable$??0lock_error@boost@@QAE@HPBD@Z 10043aec     libboost_thread-vc140-mt-s-1_60:thread.obj
 0002:0000daf4       __ehfuncinfo$??0lock_error@boost@@QAE@HPBD@Z 10043af4     libboost_thread-vc140-mt-s-1_60:thread.obj
 0002:0000db18       __ehfuncinfo$??1thread_data_base@detail@boost@@UAE@XZ 10043b18     libboost_thread-vc140-mt-s-1_60:thread.obj
 0002:0000db3c       __unwindtable$??1thread_data_base@detail@boost@@UAE@XZ 10043b3c     libboost_thread-vc140-mt-s-1_60:thread.obj
 0002:0000db6c       __unwindtable$?interruptible_wait@this_thread@boost@@YA_NPAXUtimeout@detail@2@@Z 10043b6c     libboost_thread-vc140-mt-s-1_60:thread.obj
 0002:0000db8c       __ehfuncinfo$?interruptible_wait@this_thread@boost@@YA_NPAXUtimeout@detail@2@@Z 10043b8c     libboost_thread-vc140-mt-s-1_60:thread.obj
 0002:0000dbb0       __unwindtable$?get_event@basic_timed_mutex@detail@boost@@AAEPAXXZ 10043bb0     libboost_thread-vc140-mt-s-1_60:thread.obj
 0002:0000dbc0       __ehfuncinfo$?get_event@basic_timed_mutex@detail@boost@@AAEPAXXZ 10043bc0     libboost_thread-vc140-mt-s-1_60:thread.obj
 0002:0000dbe4       __unwindtable$?get_id@thread@boost@@QBE?AVid@12@XZ 10043be4     libboost_thread-vc140-mt-s-1_60:thread.obj
 0002:0000dbf4       __ehfuncinfo$?get_id@thread@boost@@QBE?AVid@12@XZ 10043bf4     libboost_thread-vc140-mt-s-1_60:thread.obj
 0002:0000dc18       __unwindtable$?do_try_join_until_noexcept@thread@boost@@AAE_N_KAA_N@Z 10043c18     libboost_thread-vc140-mt-s-1_60:thread.obj
 0002:0000dc30       __ehfuncinfo$?do_try_join_until_noexcept@thread@boost@@AAE_N_KAA_N@Z 10043c30     libboost_thread-vc140-mt-s-1_60:thread.obj
 0002:0000dc54       __unwindtable$?do_try_join_until@thread@boost@@AAE_N_K@Z 10043c54     libboost_thread-vc140-mt-s-1_60:thread.obj
 0002:0000dc6c       __ehfuncinfo$?do_try_join_until@thread@boost@@AAE_N_K@Z 10043c6c     libboost_thread-vc140-mt-s-1_60:thread.obj
 0002:0000dc90       __unwindtable$?native_handle@thread@boost@@QAEPAXXZ 10043c90     libboost_thread-vc140-mt-s-1_60:thread.obj
 0002:0000dc98       __ehfuncinfo$?native_handle@thread@boost@@QAEPAXXZ 10043c98     libboost_thread-vc140-mt-s-1_60:thread.obj
 0002:0000dcbc       __unwindtable$?notify_all@basic_condition_variable@detail@boost@@QAEXXZ 10043cbc     libboost_thread-vc140-mt-s-1_60:thread.obj
 0002:0000dcd4       __ehfuncinfo$?notify_all@basic_condition_variable@detail@boost@@QAEXXZ 10043cd4     libboost_thread-vc140-mt-s-1_60:thread.obj
 0002:0000dcf8       __catchsym$?call_once@boost@@YAXAAUonce_flag@1@P6AXXZ@Z$8 10043cf8     libboost_thread-vc140-mt-s-1_60:thread.obj
 0002:0000dd08       __tryblocktable$?call_once@boost@@YAXAAUonce_flag@1@P6AXXZ@Z 10043d08     libboost_thread-vc140-mt-s-1_60:thread.obj
 0002:0000dd1c       __ehfuncinfo$?call_once@boost@@YAXAAUonce_flag@1@P6AXXZ@Z 10043d1c     libboost_thread-vc140-mt-s-1_60:thread.obj
 0002:0000dd40       __unwindtable$?call_once@boost@@YAXAAUonce_flag@1@P6AXXZ@Z 10043d40     libboost_thread-vc140-mt-s-1_60:thread.obj
 0002:0000dd68       __unwindtable$??1?$error_info_injector@Vlock_error@boost@@@exception_detail@boost@@UAE@XZ 10043d68     libboost_thread-vc140-mt-s-1_60:thread.obj
 0002:0000dd68       __unwindtable$??1?$clone_impl@Ubad_exception_@exception_detail@boost@@@exception_detail@boost@@UAE@XZ 10043d68     libboost_thread-vc140-mt-s-1_60:thread.obj
 0002:0000dd68       __unwindtable$??1bad_exception_@exception_detail@boost@@UAE@XZ 10043d68     libboost_thread-vc140-mt-s-1_60:thread.obj
 0002:0000dd68       __unwindtable$?detach@thread@boost@@QAEXXZ 10043d68     libboost_thread-vc140-mt-s-1_60:thread.obj
 0002:0000dd68       __unwindtable$??1bad_alloc_@exception_detail@boost@@UAE@XZ 10043d68     libboost_thread-vc140-mt-s-1_60:thread.obj
 0002:0000dd68       __unwindtable$??1?$clone_impl@U?$error_info_injector@Vlock_error@boost@@@exception_detail@boost@@@exception_detail@boost@@UAE@XZ 10043d68     libboost_thread-vc140-mt-s-1_60:thread.obj
 0002:0000dd68       __unwindtable$??_Gbad_alloc_@exception_detail@boost@@UAEPAXI@Z 10043d68     libboost_thread-vc140-mt-s-1_60:thread.obj
 0002:0000dd68       __unwindtable$??__Funknown_err@?1??message@generic_error_category@?A0x5c0157ab@system@boost@@UBE?AV?$basic_string@DU?$char_traits@D@std@@V?$allocator@D@2@@std@@H@Z@YAXXZ 10043d68     libboost_system-vc140-mt-s-1_60:error_code.obj
 0002:0000dd68       __unwindtable$??_G?$error_info_injector@Vlock_error@boost@@@exception_detail@boost@@UAEPAXI@Z 10043d68     libboost_thread-vc140-mt-s-1_60:thread.obj
 0002:0000dd68       __unwindtable$??_Gbad_exception_@exception_detail@boost@@UAEPAXI@Z 10043d68     libboost_thread-vc140-mt-s-1_60:thread.obj
 0002:0000dd68       __unwindtable$??1?$clone_impl@Ubad_alloc_@exception_detail@boost@@@exception_detail@boost@@UAE@XZ 10043d68     libboost_thread-vc140-mt-s-1_60:thread.obj
 0002:0000dd70       __ehfuncinfo$??1bad_exception_@exception_detail@boost@@UAE@XZ 10043d70     libboost_thread-vc140-mt-s-1_60:thread.obj
 0002:0000dd70       __ehfuncinfo$??_Gbad_alloc_@exception_detail@boost@@UAEPAXI@Z 10043d70     libboost_thread-vc140-mt-s-1_60:thread.obj
 0002:0000dd70       __ehfuncinfo$??1?$clone_impl@U?$error_info_injector@Vlock_error@boost@@@exception_detail@boost@@@exception_detail@boost@@UAE@XZ 10043d70     libboost_thread-vc140-mt-s-1_60:thread.obj
 0002:0000dd70       __ehfuncinfo$??1?$clone_impl@Ubad_alloc_@exception_detail@boost@@@exception_detail@boost@@UAE@XZ 10043d70     libboost_thread-vc140-mt-s-1_60:thread.obj
 0002:0000dd70       __ehfuncinfo$??1bad_alloc_@exception_detail@boost@@UAE@XZ 10043d70     libboost_thread-vc140-mt-s-1_60:thread.obj
 0002:0000dd70       __ehfuncinfo$??__Funknown_err@?1??message@generic_error_category@?A0x5c0157ab@system@boost@@UBE?AV?$basic_string@DU?$char_traits@D@std@@V?$allocator@D@2@@std@@H@Z@YAXXZ 10043d70     libboost_system-vc140-mt-s-1_60:error_code.obj
 0002:0000dd70       __ehfuncinfo$?detach@thread@boost@@QAEXXZ 10043d70     libboost_thread-vc140-mt-s-1_60:thread.obj
 0002:0000dd70       __ehfuncinfo$??1?$error_info_injector@Vlock_error@boost@@@exception_detail@boost@@UAE@XZ 10043d70     libboost_thread-vc140-mt-s-1_60:thread.obj
 0002:0000dd70       __ehfuncinfo$??1?$clone_impl@Ubad_exception_@exception_detail@boost@@@exception_detail@boost@@UAE@XZ 10043d70     libboost_thread-vc140-mt-s-1_60:thread.obj
 0002:0000dd70       __ehfuncinfo$??_G?$error_info_injector@Vlock_error@boost@@@exception_detail@boost@@UAEPAXI@Z 10043d70     libboost_thread-vc140-mt-s-1_60:thread.obj
 0002:0000dd70       __ehfuncinfo$??_Gbad_exception_@exception_detail@boost@@UAEPAXI@Z 10043d70     libboost_thread-vc140-mt-s-1_60:thread.obj
 0002:0000dd94       __ehfuncinfo$?lock@?$unique_lock@Vmutex@boost@@@boost@@QAEXXZ 10043d94     libboost_thread-vc140-mt-s-1_60:thread.obj
 0002:0000ddb8       __unwindtable$?lock@?$unique_lock@Vmutex@boost@@@boost@@QAEXXZ 10043db8     libboost_thread-vc140-mt-s-1_60:thread.obj
 0002:0000dde0       __unwindtable$?make_ready@shared_state_base@detail@boost@@QAEXXZ 10043de0     libboost_thread-vc140-mt-s-1_60:thread.obj
 0002:0000dde8       __ehfuncinfo$?make_ready@shared_state_base@detail@boost@@QAEXXZ 10043de8     libboost_thread-vc140-mt-s-1_60:thread.obj
 0002:0000de0c       __unwindtable$?run_thread_exit_callbacks@?A0x7667f72f@boost@@YAXXZ 10043e0c     libboost_thread-vc140-mt-s-1_60:thread.obj
 0002:0000de1c       __ehfuncinfo$?run_thread_exit_callbacks@?A0x7667f72f@boost@@YAXXZ 10043e1c     libboost_thread-vc140-mt-s-1_60:thread.obj
 0002:0000de40       __catchsym$?thread_start_function@?A0x7667f72f@boost@@YGIPAX@Z$2 10043e40     libboost_thread-vc140-mt-s-1_60:thread.obj
 0002:0000de50       __unwindtable$?thread_start_function@?A0x7667f72f@boost@@YGIPAX@Z 10043e50     libboost_thread-vc140-mt-s-1_60:thread.obj
 0002:0000de60       __tryblocktable$?thread_start_function@?A0x7667f72f@boost@@YGIPAX@Z 10043e60     libboost_thread-vc140-mt-s-1_60:thread.obj
 0002:0000de74       __ehfuncinfo$?thread_start_function@?A0x7667f72f@boost@@YGIPAX@Z 10043e74     libboost_thread-vc140-mt-s-1_60:thread.obj
 0002:0000de98       __unwindtable$??$throw_exception@Vlock_error@boost@@@boost@@YAXABVlock_error@0@@Z 10043e98     libboost_thread-vc140-mt-s-1_60:thread.obj
 0002:0000dea0       __ehfuncinfo$??$throw_exception@Vlock_error@boost@@@boost@@YAXABVlock_error@0@@Z 10043ea0     libboost_thread-vc140-mt-s-1_60:thread.obj
 0002:0000dec4       __unwindtable$??$_Destroy_range@U?$_Wrap_alloc@V?$allocator@V?$intrusive_ptr@Vbasic_cv_list_entry@detail@boost@@@boost@@@std@@@std@@@std@@YAXPAV?$intrusive_ptr@Vbasic_cv_list_entry@detail@boost@@@boost@@0AAU?$_Wrap_alloc@V?$allocator@V?$intrusive_ptr@Vbasic_cv_list_entry@detail@boost@@@boost@@@std@@@0@@Z 10043ec4     libboost_thread-vc140-mt-s-1_60:thread.obj
 0002:0000ded4       __ehfuncinfo$??$_Destroy_range@U?$_Wrap_alloc@V?$allocator@V?$intrusive_ptr@Vbasic_cv_list_entry@detail@boost@@@boost@@@std@@@std@@@std@@YAXPAV?$intrusive_ptr@Vbasic_cv_list_entry@detail@boost@@@boost@@0AAU?$_Wrap_alloc@V?$allocator@V?$intrusive_ptr@Vbasic_cv_list_entry@detail@boost@@@boost@@@std@@@0@@Z 10043ed4     libboost_thread-vc140-mt-s-1_60:thread.obj
 0002:0000def8       __ehfuncinfo$??$get_static_exception_object@Ubad_alloc_@exception_detail@boost@@@exception_detail@boost@@YA?AVexception_ptr@1@XZ 10043ef8     libboost_thread-vc140-mt-s-1_60:thread.obj
 0002:0000df1c       __unwindtable$??$get_static_exception_object@Ubad_alloc_@exception_detail@boost@@@exception_detail@boost@@YA?AVexception_ptr@1@XZ 10043f1c     libboost_thread-vc140-mt-s-1_60:thread.obj
 0002:0000df5c       __ehfuncinfo$??$get_static_exception_object@Ubad_exception_@exception_detail@boost@@@exception_detail@boost@@YA?AVexception_ptr@1@XZ 10043f5c     libboost_thread-vc140-mt-s-1_60:thread.obj
 0002:0000df80       __unwindtable$??$get_static_exception_object@Ubad_exception_@exception_detail@boost@@@exception_detail@boost@@YA?AVexception_ptr@1@XZ 10043f80     libboost_thread-vc140-mt-s-1_60:thread.obj
 0002:0000dfc0       __unwindtable$??0?$error_info_injector@Vlock_error@boost@@@exception_detail@boost@@QAE@ABU012@@Z 10043fc0     libboost_thread-vc140-mt-s-1_60:thread.obj
 0002:0000dfc8       __ehfuncinfo$??0?$error_info_injector@Vlock_error@boost@@@exception_detail@boost@@QAE@ABU012@@Z 10043fc8     libboost_thread-vc140-mt-s-1_60:thread.obj
 0002:0000dfec       __unwindtable$??$enable_current_exception@U?$error_info_injector@Vlock_error@boost@@@exception_detail@boost@@@boost@@YA?AV?$clone_impl@U?$error_info_injector@Vlock_error@boost@@@exception_detail@boost@@@exception_detail@0@ABU?$error_info_injector@Vlock_error@boost@@@20@@Z 10043fec     libboost_thread-vc140-mt-s-1_60:thread.obj
 0002:0000dffc       __ehfuncinfo$??$enable_current_exception@U?$error_info_injector@Vlock_error@boost@@@exception_detail@boost@@@boost@@YA?AV?$clone_impl@U?$error_info_injector@Vlock_error@boost@@@exception_detail@boost@@@exception_detail@0@ABU?$error_info_injector@Vlock_error@boost@@@20@@Z 10043ffc     libboost_thread-vc140-mt-s-1_60:thread.obj
 0002:0000e020       __unwindtable$??0?$clone_impl@U?$error_info_injector@Vlock_error@boost@@@exception_detail@boost@@@exception_detail@boost@@AAE@ABV012@Uclone_tag@012@@Z 10044020     libboost_thread-vc140-mt-s-1_60:thread.obj
 0002:0000e030       __ehfuncinfo$??0?$clone_impl@U?$error_info_injector@Vlock_error@boost@@@exception_detail@boost@@@exception_detail@boost@@AAE@ABV012@Uclone_tag@012@@Z 10044030     libboost_thread-vc140-mt-s-1_60:thread.obj
 0002:0000e054       __unwindtable$?clone@?$clone_impl@U?$error_info_injector@Vlock_error@boost@@@exception_detail@boost@@@exception_detail@boost@@EBEPBVclone_base@23@XZ 10044054     libboost_thread-vc140-mt-s-1_60:thread.obj
 0002:0000e05c       __ehfuncinfo$?clone@?$clone_impl@U?$error_info_injector@Vlock_error@boost@@@exception_detail@boost@@@exception_detail@boost@@EBEPBVclone_base@23@XZ 1004405c     libboost_thread-vc140-mt-s-1_60:thread.obj
 0002:0000e080       __unwindtable$?rethrow@?$clone_impl@U?$error_info_injector@Vlock_error@boost@@@exception_detail@boost@@@exception_detail@boost@@EBEXXZ 10044080     libboost_thread-vc140-mt-s-1_60:thread.obj
 0002:0000e088       __ehfuncinfo$?rethrow@?$clone_impl@U?$error_info_injector@Vlock_error@boost@@@exception_detail@boost@@@exception_detail@boost@@EBEXXZ 10044088     libboost_thread-vc140-mt-s-1_60:thread.obj
 0002:0000e0ac       __unwindtable$??0?$clone_impl@U?$error_info_injector@Vlock_error@boost@@@exception_detail@boost@@@exception_detail@boost@@QAE@ABV012@@Z 100440ac     libboost_thread-vc140-mt-s-1_60:thread.obj
 0002:0000e0b4       __ehfuncinfo$??0?$clone_impl@U?$error_info_injector@Vlock_error@boost@@@exception_detail@boost@@@exception_detail@boost@@QAE@ABV012@@Z 100440b4     libboost_thread-vc140-mt-s-1_60:thread.obj
 0002:0000e0d8       __unwindtable$?clone@?$clone_impl@Ubad_alloc_@exception_detail@boost@@@exception_detail@boost@@EBEPBVclone_base@23@XZ 100440d8     libboost_thread-vc140-mt-s-1_60:thread.obj
 0002:0000e0f0       __ehfuncinfo$?clone@?$clone_impl@Ubad_alloc_@exception_detail@boost@@@exception_detail@boost@@EBEPBVclone_base@23@XZ 100440f0     libboost_thread-vc140-mt-s-1_60:thread.obj
 0002:0000e114       __unwindtable$?rethrow@?$clone_impl@Ubad_alloc_@exception_detail@boost@@@exception_detail@boost@@EBEXXZ 10044114     libboost_thread-vc140-mt-s-1_60:thread.obj
 0002:0000e114       __unwindtable$?rethrow@?$clone_impl@Ubad_exception_@exception_detail@boost@@@exception_detail@boost@@EBEXXZ 10044114     libboost_thread-vc140-mt-s-1_60:thread.obj
 0002:0000e11c       __ehfuncinfo$?rethrow@?$clone_impl@Ubad_alloc_@exception_detail@boost@@@exception_detail@boost@@EBEXXZ 1004411c     libboost_thread-vc140-mt-s-1_60:thread.obj
 0002:0000e11c       __ehfuncinfo$?rethrow@?$clone_impl@Ubad_exception_@exception_detail@boost@@@exception_detail@boost@@EBEXXZ 1004411c     libboost_thread-vc140-mt-s-1_60:thread.obj
 0002:0000e140       __unwindtable$??$?0V?$clone_impl@Ubad_alloc_@exception_detail@boost@@@exception_detail@boost@@@?$shared_ptr@$$CBVclone_base@exception_detail@boost@@@boost@@QAE@PAV?$clone_impl@Ubad_alloc_@exception_detail@boost@@@exception_detail@1@@Z 10044140     libboost_thread-vc140-mt-s-1_60:thread.obj
 0002:0000e140       __unwindtable$??$?0V?$clone_impl@Ubad_exception_@exception_detail@boost@@@exception_detail@boost@@@?$shared_ptr@$$CBVclone_base@exception_detail@boost@@@boost@@QAE@PAV?$clone_impl@Ubad_exception_@exception_detail@boost@@@exception_detail@1@@Z 10044140     libboost_thread-vc140-mt-s-1_60:thread.obj
 0002:0000e150       __ehfuncinfo$??$?0V?$clone_impl@Ubad_exception_@exception_detail@boost@@@exception_detail@boost@@@?$shared_ptr@$$CBVclone_base@exception_detail@boost@@@boost@@QAE@PAV?$clone_impl@Ubad_exception_@exception_detail@boost@@@exception_detail@1@@Z 10044150     libboost_thread-vc140-mt-s-1_60:thread.obj
 0002:0000e150       __ehfuncinfo$??$?0V?$clone_impl@Ubad_alloc_@exception_detail@boost@@@exception_detail@boost@@@?$shared_ptr@$$CBVclone_base@exception_detail@boost@@@boost@@QAE@PAV?$clone_impl@Ubad_alloc_@exception_detail@boost@@@exception_detail@1@@Z 10044150     libboost_thread-vc140-mt-s-1_60:thread.obj
 0002:0000e174       __unwindtable$??__Fep@?1???$get_static_exception_object@Ubad_alloc_@exception_detail@boost@@@exception_detail@boost@@YA?AVexception_ptr@1@XZ@YAXXZ 10044174     libboost_thread-vc140-mt-s-1_60:thread.obj
 0002:0000e174       __unwindtable$??__Fep@?1???$get_static_exception_object@Ubad_exception_@exception_detail@boost@@@exception_detail@boost@@YA?AVexception_ptr@1@XZ@YAXXZ 10044174     libboost_thread-vc140-mt-s-1_60:thread.obj
 0002:0000e174       __unwindtable$??__F?e@?$exception_ptr_static_exception_object@Ubad_exception_@exception_detail@boost@@@exception_detail@boost@@2Vexception_ptr@3@B@@YAXXZ 10044174     libboost_thread-vc140-mt-s-1_60:thread.obj
 0002:0000e174       __unwindtable$??__F?e@?$exception_ptr_static_exception_object@Ubad_alloc_@exception_detail@boost@@@exception_detail@boost@@2Vexception_ptr@3@B@@YAXXZ 10044174     libboost_thread-vc140-mt-s-1_60:thread.obj
 0002:0000e17c       __ehfuncinfo$??__Fep@?1???$get_static_exception_object@Ubad_alloc_@exception_detail@boost@@@exception_detail@boost@@YA?AVexception_ptr@1@XZ@YAXXZ 1004417c     libboost_thread-vc140-mt-s-1_60:thread.obj
 0002:0000e17c       __ehfuncinfo$??__Fep@?1???$get_static_exception_object@Ubad_exception_@exception_detail@boost@@@exception_detail@boost@@YA?AVexception_ptr@1@XZ@YAXXZ 1004417c     libboost_thread-vc140-mt-s-1_60:thread.obj
 0002:0000e17c       __ehfuncinfo$??__F?e@?$exception_ptr_static_exception_object@Ubad_exception_@exception_detail@boost@@@exception_detail@boost@@2Vexception_ptr@3@B@@YAXXZ 1004417c     libboost_thread-vc140-mt-s-1_60:thread.obj
 0002:0000e17c       __ehfuncinfo$??__F?e@?$exception_ptr_static_exception_object@Ubad_alloc_@exception_detail@boost@@@exception_detail@boost@@2Vexception_ptr@3@B@@YAXXZ 1004417c     libboost_thread-vc140-mt-s-1_60:thread.obj
 0002:0000e1a0       __unwindtable$?clone@?$clone_impl@Ubad_exception_@exception_detail@boost@@@exception_detail@boost@@EBEPBVclone_base@23@XZ 100441a0     libboost_thread-vc140-mt-s-1_60:thread.obj
 0002:0000e1b8       __ehfuncinfo$?clone@?$clone_impl@Ubad_exception_@exception_detail@boost@@@exception_detail@boost@@EBEPBVclone_base@23@XZ 100441b8     libboost_thread-vc140-mt-s-1_60:thread.obj
 0002:0000e1dc       __unwindtable$??0?$clone_impl@Ubad_alloc_@exception_detail@boost@@@exception_detail@boost@@QAE@ABV012@@Z 100441dc     libboost_thread-vc140-mt-s-1_60:thread.obj
 0002:0000e1dc       __unwindtable$??0?$clone_impl@Ubad_exception_@exception_detail@boost@@@exception_detail@boost@@QAE@ABV012@@Z 100441dc     libboost_thread-vc140-mt-s-1_60:thread.obj
 0002:0000e1e4       __ehfuncinfo$??0?$clone_impl@Ubad_exception_@exception_detail@boost@@@exception_detail@boost@@QAE@ABV012@@Z 100441e4     libboost_thread-vc140-mt-s-1_60:thread.obj
 0002:0000e1e4       __ehfuncinfo$??0?$clone_impl@Ubad_alloc_@exception_detail@boost@@@exception_detail@boost@@QAE@ABV012@@Z 100441e4     libboost_thread-vc140-mt-s-1_60:thread.obj
 0002:0000e208       __catchsym$??$?0V?$clone_impl@Ubad_alloc_@exception_detail@boost@@@exception_detail@boost@@@shared_count@detail@boost@@QAE@PAV?$clone_impl@Ubad_alloc_@exception_detail@boost@@@exception_detail@2@@Z$3 10044208     libboost_thread-vc140-mt-s-1_60:thread.obj
 0002:0000e218       __unwindtable$??$?0V?$clone_impl@Ubad_alloc_@exception_detail@boost@@@exception_detail@boost@@@shared_count@detail@boost@@QAE@PAV?$clone_impl@Ubad_alloc_@exception_detail@boost@@@exception_detail@2@@Z 10044218     libboost_thread-vc140-mt-s-1_60:thread.obj
 0002:0000e228       __tryblocktable$??$?0V?$clone_impl@Ubad_alloc_@exception_detail@boost@@@exception_detail@boost@@@shared_count@detail@boost@@QAE@PAV?$clone_impl@Ubad_alloc_@exception_detail@boost@@@exception_detail@2@@Z 10044228     libboost_thread-vc140-mt-s-1_60:thread.obj
 0002:0000e23c       __ehfuncinfo$??$?0V?$clone_impl@Ubad_alloc_@exception_detail@boost@@@exception_detail@boost@@@shared_count@detail@boost@@QAE@PAV?$clone_impl@Ubad_alloc_@exception_detail@boost@@@exception_detail@2@@Z 1004423c     libboost_thread-vc140-mt-s-1_60:thread.obj
 0002:0000e260       __catchsym$??$?0V?$clone_impl@Ubad_exception_@exception_detail@boost@@@exception_detail@boost@@@shared_count@detail@boost@@QAE@PAV?$clone_impl@Ubad_exception_@exception_detail@boost@@@exception_detail@2@@Z$3 10044260     libboost_thread-vc140-mt-s-1_60:thread.obj
 0002:0000e270       __unwindtable$??$?0V?$clone_impl@Ubad_exception_@exception_detail@boost@@@exception_detail@boost@@@shared_count@detail@boost@@QAE@PAV?$clone_impl@Ubad_exception_@exception_detail@boost@@@exception_detail@2@@Z 10044270     libboost_thread-vc140-mt-s-1_60:thread.obj
 0002:0000e280       __tryblocktable$??$?0V?$clone_impl@Ubad_exception_@exception_detail@boost@@@exception_detail@boost@@@shared_count@detail@boost@@QAE@PAV?$clone_impl@Ubad_exception_@exception_detail@boost@@@exception_detail@2@@Z 10044280     libboost_thread-vc140-mt-s-1_60:thread.obj
 0002:0000e294       __ehfuncinfo$??$?0V?$clone_impl@Ubad_exception_@exception_detail@boost@@@exception_detail@boost@@@shared_count@detail@boost@@QAE@PAV?$clone_impl@Ubad_exception_@exception_detail@boost@@@exception_detail@2@@Z 10044294     libboost_thread-vc140-mt-s-1_60:thread.obj
 0002:0000e4b0       __unwindtable$??__Enative_ecat@system@boost@@YAXXZ 100444b0     libboost_system-vc140-mt-s-1_60:error_code.obj
 0002:0000e4b0       __unwindtable$??__Eerrno_ecat@system@boost@@YAXXZ 100444b0     libboost_system-vc140-mt-s-1_60:error_code.obj
 0002:0000e4b0       __unwindtable$??__Eposix_category@system@boost@@YAXXZ 100444b0     libboost_system-vc140-mt-s-1_60:error_code.obj
 0002:0000e4b8       __ehfuncinfo$??__Eerrno_ecat@system@boost@@YAXXZ 100444b8     libboost_system-vc140-mt-s-1_60:error_code.obj
 0002:0000e4b8       __ehfuncinfo$??__Enative_ecat@system@boost@@YAXXZ 100444b8     libboost_system-vc140-mt-s-1_60:error_code.obj
 0002:0000e4b8       __ehfuncinfo$??__Eposix_category@system@boost@@YAXXZ 100444b8     libboost_system-vc140-mt-s-1_60:error_code.obj
 0002:0000e4dc       __unwindtable$??0error_code@system@boost@@QAE@XZ 100444dc     libboost_system-vc140-mt-s-1_60:error_code.obj
 0002:0000e4e4       __ehfuncinfo$??0error_code@system@boost@@QAE@XZ 100444e4     libboost_system-vc140-mt-s-1_60:error_code.obj
 0002:0000e508       __unwindtable$?make_error_condition@errc@system@boost@@YA?AVerror_condition@23@W4errc_t@123@@Z 10044508     libboost_system-vc140-mt-s-1_60:error_code.obj
 0002:0000e508       __unwindtable$??1once_context@detail@boost@@QAE@XZ 10044508     libboost_thread-vc140-mt-s-1_60:thread.obj
 0002:0000e510       __ehfuncinfo$??1once_context@detail@boost@@QAE@XZ 10044510     libboost_thread-vc140-mt-s-1_60:thread.obj
 0002:0000e510       __ehfuncinfo$?make_error_condition@errc@system@boost@@YA?AVerror_condition@23@W4errc_t@123@@Z 10044510     libboost_system-vc140-mt-s-1_60:error_code.obj
 0002:0000e534       __ehfuncinfo$?message@generic_error_category@?A0x5c0157ab@system@boost@@UBE?AV?$basic_string@DU?$char_traits@D@std@@V?$allocator@D@2@@std@@H@Z 10044534     libboost_system-vc140-mt-s-1_60:error_code.obj
 0002:0000e558       __unwindtable$?message@generic_error_category@?A0x5c0157ab@system@boost@@UBE?AV?$basic_string@DU?$char_traits@D@std@@V?$allocator@D@2@@std@@H@Z 10044558     libboost_system-vc140-mt-s-1_60:error_code.obj
 0002:0000e580       __ehfuncinfo$?message@system_error_category@?A0x5c0157ab@system@boost@@UBE?AV?$basic_string@DU?$char_traits@D@std@@V?$allocator@D@2@@std@@H@Z 10044580     libboost_system-vc140-mt-s-1_60:error_code.obj
 0002:0000e5a4       __unwindtable$?message@system_error_category@?A0x5c0157ab@system@boost@@UBE?AV?$basic_string@DU?$char_traits@D@std@@V?$allocator@D@2@@std@@H@Z 100445a4     libboost_system-vc140-mt-s-1_60:error_code.obj
 0002:0000e5d8       __sehtable$___FrameUnwindToState 100445d8     libvcruntime:frame.obj
 0002:0000e600       __sehtable$?CallCatchBlock@@YAPAXPAUEHExceptionRecord@@PAUEHRegistrationNode@@PAU_CONTEXT@@PBU_s_FuncInfo@@PAXHK@Z 10044600     libvcruntime:frame.obj
 0002:0000e628       __sehtable$___BuildCatchObject 10044628     libvcruntime:frame.obj
 0002:0000e648       __sehtable$___DestructExceptionObject 10044648     libvcruntime:frame.obj
 0002:0000e664       __catchsym$?CallUnexpected@@YAXPBU_s_ESTypeList@@@Z$2 10044664     libvcruntime:frame.obj
 0002:0000e674       __unwindtable$?CallUnexpected@@YAXPBU_s_ESTypeList@@@Z 10044674     libvcruntime:frame.obj
 0002:0000e684       __tryblocktable$?CallUnexpected@@YAXPBU_s_ESTypeList@@@Z 10044684     libvcruntime:frame.obj
 0002:0000e698       __ehfuncinfo$?CallUnexpected@@YAXPBU_s_ESTypeList@@@Z 10044698     libvcruntime:frame.obj
 0002:0000e6c0       __sehtable$___BuildCatchObjectHelper 100446c0     libvcruntime:frame.obj
 0002:0000e718       __sehtable$??$?RV<lambda_db08b09ef7aa9d4f8620ce68402612bc>@@AAV<lambda_4f2c1eaeead2a5fc776db5b62ea0fb9b>@@V<lambda_3ae262bc35d4ba6a3825c4f6bcaaf95c>@@@?$__crt_seh_guarded_call@H@@QAEH$$QAV<lambda_db08b09ef7aa9d4f8620ce68402612bc>@@AAV<lambda_4f2c1eaeead2a5fc776db5b62ea0fb9b>@@$$QAV<lambda_3ae262bc35d4ba6a3825c4f6bcaaf95c>@@@Z 10044718     libucrt:output.obj
 0002:0000e738       __sehtable$??$common_fsopen@D@@YAPAU_iobuf@@QBD0H@Z 10044738     libucrt:fopen.obj
 0002:0000e758       __sehtable$_fclose         10044758     libucrt:fclose.obj
 0002:0000e778       __sehtable$??$?RV<lambda_948e0c831b1eafdf53315a00da3ad7eb>@@AAV<lambda_d82aded7e80d0a2836af81596bef263e>@@V<lambda_9cb36f98846f17dfe48cc7d4c6a6fede>@@@?$__crt_seh_guarded_call@H@@QAEH$$QAV<lambda_948e0c831b1eafdf53315a00da3ad7eb>@@AAV<lambda_d82aded7e80d0a2836af81596bef263e>@@$$QAV<lambda_9cb36f98846f17dfe48cc7d4c6a6fede>@@@Z 10044778     libucrt:input.obj
 0002:0000e798       __sehtable$__query_new_handler 10044798     libucrt:new_handler.obj
 0002:0000e7b8       __sehtable$?common_exit@@YAXHW4_crt_exit_cleanup_mode@@W4_crt_exit_return_mode@@@Z 100447b8     libucrt:exit.obj
 0002:0000e7e0       __sehtable$??$?RV<lambda_800076c951b434888f4765a74a194fcc>@@AAV<lambda_4e60a939b0d047cfe11ddc22648dfba9>@@V<lambda_6dbb1268764f43b569ce7b67e331d33a>@@@?$__crt_seh_guarded_call@H@@QAEH$$QAV<lambda_800076c951b434888f4765a74a194fcc>@@AAV<lambda_4e60a939b0d047cfe11ddc22648dfba9>@@$$QAV<lambda_6dbb1268764f43b569ce7b67e331d33a>@@@Z 100447e0     libucrt:onexit.obj
 0002:0000e800       __sehtable$??$?RV<lambda_995298e7d72eb4c2aab26c0585b3abe5>@@AAV<lambda_275893d493268fdec8709772e3fcec0e>@@V<lambda_293819299cbf9a7022e18b56a874bb5c>@@@?$__crt_seh_guarded_call@H@@QAEH$$QAV<lambda_995298e7d72eb4c2aab26c0585b3abe5>@@AAV<lambda_275893d493268fdec8709772e3fcec0e>@@$$QAV<lambda_293819299cbf9a7022e18b56a874bb5c>@@@Z 10044800     libucrt:onexit.obj
 0002:0000e820       __sehtable$_terminate      10044820     libucrt:terminate.obj
 0002:0000e840       __sehtable$??$thread_start@P6GIPAX@Z@@YGKQAX@Z 10044840     libucrt:thread.obj
 0002:0000e860       __sehtable$??$?RV<lambda_9df27f884b057bc3edfc946cb5b7cf47>@@AAV<lambda_e69574bed617af4e071282c136b37893>@@V<lambda_cc0d902bcbbeb830f749456577db4721>@@@?$__crt_seh_guarded_call@X@@QAEX$$QAV<lambda_9df27f884b057bc3edfc946cb5b7cf47>@@AAV<lambda_e69574bed617af4e071282c136b37893>@@$$QAV<lambda_cc0d902bcbbeb830f749456577db4721>@@@Z 10044860     libucrt:per_thread_data.obj
 0002:0000e880       __sehtable$??$?RV<lambda_3518db117f0e7cdb002338c5d3c47b6c>@@AAV<lambda_b2ea41f6bbb362cd97d94c6828d90b61>@@V<lambda_abdedf541bb04549bc734292b4a045d4>@@@?$__crt_seh_guarded_call@X@@QAEX$$QAV<lambda_3518db117f0e7cdb002338c5d3c47b6c>@@AAV<lambda_b2ea41f6bbb362cd97d94c6828d90b61>@@$$QAV<lambda_abdedf541bb04549bc734292b4a045d4>@@@Z 10044880     libucrt:per_thread_data.obj
 0002:0000e8a0       __sehtable$??$?RV<lambda_51b6e8b1eb166f2a3faf91f424b38130>@@AAV<lambda_6250bd4b2a391816dd638c3bf72b0bcb>@@V<lambda_0b5a4a3e68152e1d9b943535f5f47bed>@@@?$__crt_seh_guarded_call@X@@QAEX$$QAV<lambda_51b6e8b1eb166f2a3faf91f424b38130>@@AAV<lambda_6250bd4b2a391816dd638c3bf72b0bcb>@@$$QAV<lambda_0b5a4a3e68152e1d9b943535f5f47bed>@@@Z 100448a0     libucrt:per_thread_data.obj
 0002:0000e8c0       __sehtable$??$?RV<lambda_5b71d36f03204c0beab531769a5b5694>@@AAV<lambda_be2b3da3f62db62e9dad5dc70221a656>@@V<lambda_8f9ce462984622f9bf76b59e2aaaf805>@@@?$__crt_seh_guarded_call@X@@QAEX$$QAV<lambda_5b71d36f03204c0beab531769a5b5694>@@AAV<lambda_be2b3da3f62db62e9dad5dc70221a656>@@$$QAV<lambda_8f9ce462984622f9bf76b59e2aaaf805>@@@Z 100448c0     libucrt:per_thread_data.obj
 0002:0000e8e0       __sehtable$___acrt_uninitialize_locale 100448e0     libucrt:wsetlocale.obj
 0002:0000e900       __sehtable$___acrt_initialize_lowio 10044900     libucrt:ioinit.obj
 0002:0000e920       __sehtable$?__acrt_stdio_allocate_stream@@YA?AV__crt_stdio_stream@@XZ 10044920     libucrt:stream.obj
 0002:0000e940       __sehtable$??$?RV<lambda_123407a5e2ac06da108355a851863b7a>@@AAV<lambda_2fe9b910cf3cbf4a0ab98a02ba45b3ec>@@V<lambda_ae55bdf541ad94d75914d381c370e64d>@@@?$__crt_seh_guarded_call@H@@QAEH$$QAV<lambda_123407a5e2ac06da108355a851863b7a>@@AAV<lambda_2fe9b910cf3cbf4a0ab98a02ba45b3ec>@@$$QAV<lambda_ae55bdf541ad94d75914d381c370e64d>@@@Z 10044940     libucrt:close.obj
 0002:0000e960       __sehtable$_common_flush_all 10044960     libucrt:fflush.obj
 0002:0000e988       __sehtable$__fcloseall     10044988     libucrt:closeall.obj
 0002:0000e9a8       __sehtable$___acrt_update_thread_multibyte_data 100449a8     libucrt:mbctype.obj
 0002:0000e9c8       __sehtable$??$?RV<lambda_978dc153c237d78434369da87b74ff60>@@AAV<lambda_ad1ced32f4ac17aa236e5ef05d6b3b7c>@@V<lambda_4a8533e2866a575feecb8298ce776b0d>@@@?$__crt_seh_guarded_call@X@@QAEX$$QAV<lambda_978dc153c237d78434369da87b74ff60>@@AAV<lambda_ad1ced32f4ac17aa236e5ef05d6b3b7c>@@$$QAV<lambda_4a8533e2866a575feecb8298ce776b0d>@@@Z 100449c8     libucrt:mbctype.obj
 0002:0000e9e8       __sehtable$_raise          100449e8     libucrt:signal.obj
 0002:0000ea08       __sehtable$??$?RV<lambda_a048d3beccc847880fc8490e18b82769>@@AAV<lambda_ec61778202f4f5fc7e7711acc23c3bca>@@V<lambda_f7496a158712204296dd6628a163878e>@@@?$__crt_seh_guarded_call@P6AXH@Z@@QAEP6AXH@Z$$QAV<lambda_a048d3beccc847880fc8490e18b82769>@@AAV<lambda_ec61778202f4f5fc7e7711acc23c3bca>@@$$QAV<lambda_f7496a158712204296dd6628a163878e>@@@Z 10044a08     libucrt:signal.obj
 0002:0000ea28       __sehtable$___acrt_update_thread_locale_data 10044a28     libucrt:locale_refcounting.obj
 0002:0000ea48       __sehtable$__alloc_osfhnd  10044a48     libucrt:osfinfo.obj
 0002:0000ea68       __sehtable$___acrt_lowio_ensure_fh_exists 10044a68     libucrt:osfinfo.obj
 0002:0000ea88       __sehtable$??$common_sopen_dispatch@D@@YAHQBDHHHQAHH@Z 10044a88     libucrt:open.obj
 0002:0000eaa8       __sehtable$??$?RV<lambda_61cee617f5178ae960314fd4d05640a0>@@AAV<lambda_6978c1fb23f02e42e1d9e99668cc68aa>@@V<lambda_9cd88cf8ad10232537feb2133f08c833>@@@?$__crt_seh_guarded_call@H@@QAEH$$QAV<lambda_61cee617f5178ae960314fd4d05640a0>@@AAV<lambda_6978c1fb23f02e42e1d9e99668cc68aa>@@$$QAV<lambda_9cd88cf8ad10232537feb2133f08c833>@@@Z 10044aa8     libucrt:commit.obj
 0002:0000eac8       __sehtable$__write         10044ac8     libucrt:write.obj
 0002:0000eae8       __sehtable$??$common_lseek@_J@@YA_JH_JH@Z 10044ae8     libucrt:lseek.obj
 0002:0000eb08       __sehtable$__read          10044b08     libucrt:read.obj
 0002:0000eb28       __sehtable$__IsNonwritableInCurrentImage 10044b28     LIBCMT:pesect.obj
 0002:0000ef70       .edata                     10044f70     gmsv_navigation_win32.exp
 0002:0000ef98       rgpv                       10044f98     gmsv_navigation_win32.exp
 0002:0000efa4       rgszName                   10044fa4     gmsv_navigation_win32.exp
 0002:0000efb0       rgwOrd                     10044fb0     gmsv_navigation_win32.exp
 0002:0000efb6       szName                     10044fb6     gmsv_navigation_win32.exp
 0002:0000efd0       $N00001                    10044fd0     gmsv_navigation_win32.exp
 0002:0000efe0       $N00002                    10044fe0     gmsv_navigation_win32.exp
 0002:0000efed       $N00003                    10044fed     gmsv_navigation_win32.exp
 0002:0000f26a       .idata$6                   1004526a     tier0:tier0.dll
 0002:0000f346       .idata$6                   10045346     kernel32:KERNEL32.dll
 0002:0000f8e0       .idata$6                   100458e0     advapi32:ADVAPI32.dll
 0003:00000024       ?system_category_const@?1??system_category@system@boost@@YAABVerror_category@23@XZ@4Vsystem_error_category@?A0x5c0157ab@23@B 10046024     libboost_system-vc140-mt-s-1_60:error_code.obj
 0003:00000028       ?generic_category_const@?1??generic_category@system@boost@@YAABVerror_category@23@XZ@4Vgeneric_error_category@?A0x5c0157ab@23@B 10046028     libboost_system-vc140-mt-s-1_60:error_code.obj
 0003:00000030       ?_Tlg_Microsoft_CRTProviderProv@@3U_TlgProvider_t@__vcrt_trace_logging_provider@@A 10046030     libvcruntime:telemetry.obj
 0003:00000070       ?__vcrt_flsindex@@3KA      10046070     libvcruntime:per_thread_data.obj
 0003:0000013c       _errno_no_memory           1004613c     libucrt:errno.obj
 0003:00000140       _doserrno_no_memory        10046140     libucrt:errno.obj
 0003:00000144       ___acrt_flsindex           10046144     libucrt:per_thread_data.obj
 0003:00000240       ___rgctypeflag             10046240     libucrt:mbctype.obj
 0003:00000248       ___rgcode_page_info        10046248     libucrt:mbctype.obj
 0003:000016a4       ?module_local_atexit_table@@3U_onexit_table_t@@A 100476a4     LIBCMT:utility.obj
 0003:000016b0       ?module_local_at_quick_exit_table@@3U_onexit_table_t@@A 100476b0     LIBCMT:utility.obj
 0003:000016bc       ?is_initialized_as_dll@@3_NA 100476bc     LIBCMT:utility.obj
 0003:000016c0       ?__proc_attached@@3HA      100476c0     LIBCMT:dll_dllmain.obj
 0003:000016c8       _GS_ExceptionRecord        100476c8     LIBCMT:gs_report.obj
 0003:00001718       _GS_ContextRecord          10047718     LIBCMT:gs_report.obj
 0003:00001a00       ?_2@placeholders@boost@@3U?$arg@$01@2@B 10047a00     libboost_thread-vc140-mt-s-1_60:thread.obj
 0003:00001a01       ?_4@placeholders@boost@@3U?$arg@$03@2@B 10047a01     libboost_thread-vc140-mt-s-1_60:thread.obj
 0003:00001a02       ?_8@placeholders@boost@@3U?$arg@$07@2@B 10047a02     libboost_thread-vc140-mt-s-1_60:thread.obj
 0003:00001a03       ?_3@placeholders@boost@@3U?$arg@$02@2@B 10047a03     libboost_thread-vc140-mt-s-1_60:thread.obj
 0003:00001a04       ?_1@placeholders@boost@@3U?$arg@$00@2@B 10047a04     libboost_thread-vc140-mt-s-1_60:thread.obj
 0003:00001a05       ?_7@placeholders@boost@@3U?$arg@$06@2@B 10047a05     libboost_thread-vc140-mt-s-1_60:thread.obj
 0003:00001a06       ?_6@placeholders@boost@@3U?$arg@$05@2@B 10047a06     libboost_thread-vc140-mt-s-1_60:thread.obj
 0003:00001a07       ?_5@placeholders@boost@@3U?$arg@$04@2@B 10047a07     libboost_thread-vc140-mt-s-1_60:thread.obj
 0003:00001a08       ?_9@placeholders@boost@@3U?$arg@$08@2@B 10047a08     libboost_thread-vc140-mt-s-1_60:thread.obj
 0003:00001a09       ?none@boost@@3Unone_t@1@B  10047a09     libboost_thread-vc140-mt-s-1_60:thread.obj
 0003:00001a1c       ?setwaitabletimerex_impl@?1??SetWaitableTimerEx@detail_@this_thread@boost@@YAP6GHPAXPBT_LARGE_INTEGER@@JP6GX0KK@Z0PAU_REASON_CONTEXT@234@K@ZXZ@4P6GH01J203K@ZA 10047a1c     libboost_thread-vc140-mt-s-1_60:thread.obj
 0003:00001a40       ?posix_category@system@boost@@3ABVerror_category@12@B 10047a40     libboost_system-vc140-mt-s-1_60:error_code.obj
 0003:00001a4c       ?native_ecat@system@boost@@3ABVerror_category@12@B 10047a4c     libboost_system-vc140-mt-s-1_60:error_code.obj
 0003:00001a50       ?errno_ecat@system@boost@@3ABVerror_category@12@B 10047a50     libboost_system-vc140-mt-s-1_60:error_code.obj
 0003:00001a54       ?unknown_err@?1??message@generic_error_category@?A0x5c0157ab@system@boost@@UBE?AV?$basic_string@DU?$char_traits@D@std@@V?$allocator@D@2@@std@@H@Z@4V67@A 10047a54     libboost_system-vc140-mt-s-1_60:error_code.obj
 0003:00001a6c       ?$TSS0@?1??message@generic_error_category@?A0x5c0157ab@system@boost@@UBE?AV?$basic_string@DU?$char_traits@D@std@@V?$allocator@D@2@@std@@H@Z@4HA 10047a6c     libboost_system-vc140-mt-s-1_60:error_code.obj
 0003:00001a70       ?$TSS0@?1??system_category@system@boost@@YAABVerror_category@23@XZ@4HA 10047a70     libboost_system-vc140-mt-s-1_60:error_code.obj
 0003:00001a74       ?$TSS0@?1??generic_category@system@boost@@YAABVerror_category@23@XZ@4HA 10047a74     libboost_system-vc140-mt-s-1_60:error_code.obj
 0003:00001a7c       ?__vcrt_startup_thread_ptd@@3U__vcrt_ptd@@A 10047a7c     libvcruntime:per_thread_data.obj
 0003:00001aa8       ___vcrt_lock_table         10047aa8     libvcruntime:locks.obj
 0003:00001ac0       ___vcrt_locks_initialized  10047ac0     libvcruntime:locks.obj
 0003:00001ac4       ?module_handles@@3PAPAUHINSTANCE__@@A 10047ac4     libvcruntime:winapi_downlevel.obj
 0003:00001ad4       ?encoded_function_pointers@@3PAPAXA 10047ad4     libvcruntime:winapi_downlevel.obj
 0003:00001b20       ?heap@@3V_HeapManager@@A   10047b20     libvcruntime:undname.obj
 0003:00001b34       ___acrt_invalid_parameter_handler 10047b34     libucrt:invalid_parameter.obj
 0003:00001b44       ___acrt_new_handler        10047b44     libucrt:new_handler.obj
 0003:00001b48       _c_termination_complete    10047b48     libucrt:exit.obj
 0003:00001b4c       _thread_local_exit_callback_func 10047b4c     libucrt:exit.obj
 0003:00001b50       ?c_exit_complete@?5??common_exit@@YAXHW4_crt_exit_cleanup_mode@@W4_crt_exit_return_mode@@@Z@4_NA 10047b50     libucrt:exit.obj
 0003:00001b58       ?program_name@?5???$common_configure_argv@D@@YAHW4_crt_argv_mode@@@Z@4PADA 10047b58     libucrt:argv_parsing.obj
 0003:00001c88       _enable_percent_n          10047c88     libucrt:printf_count_output.obj
 0003:00001ea8       _module_handles            10047ea8     libucrt:winapi_thunks.obj
 0003:00001ef8       _encoded_function_pointers 10047ef8     libucrt:winapi_thunks.obj
 0003:00001f78       ?state_cache@?1??__acrt_is_packaged_app@@9@4JA 10047f78     libucrt:winapi_thunks.obj
 0003:00001f80       ___acrt_lock_table         10047f80     libucrt:locks.obj
 0003:000020b8       ___acrt_locks_initialized  100480b8     libucrt:locks.obj
 0003:000020d4       _fSystemSet                100480d4     libucrt:mbctype.obj
 0003:000020d8       ?initialized@?1??__acrt_initialize_multibyte@@9@4_NA 100480d8     libucrt:mbctype.obj
 0003:000020f8       _ctrlc_action              100480f8     libucrt:signal.obj
 0003:000020fc       _ctrlbreak_action          100480fc     libucrt:signal.obj
 0003:00002100       _abort_action              10048100     libucrt:signal.obj
 0003:00002104       _term_action               10048104     libucrt:signal.obj
 0003:00002108       _user_matherr              10048108     libucrt:matherr.obj
 0003:0000210c       ___acrt_global_new_mode    1004810c     libucrt:new_mode.obj
 0003:0000211c       ___acrt_app_type           1004811c     libucrt:report_runtime_error.obj
 0003:00002128       __pmatherr_set             10048128     libucrt:libm_error.obj
 0003:00002130       ?_Tss_mutex@@3U_RTL_CRITICAL_SECTION@@A 10048130     LIBCMT:thread_safe_statics.obj
 0003:00002148       ?_Tss_cv@@3U_RTL_CONDITION_VARIABLE@@A 10048148     LIBCMT:thread_safe_statics.obj
 0003:0000214c       ?_Tss_event@@3PAXA         1004814c     LIBCMT:thread_safe_statics.obj
 0003:00002150       ?encoded_sleep_condition_variable_cs@@3P6GHPAU_RTL_CONDITION_VARIABLE@@PAU_RTL_CRITICAL_SECTION@@K@ZA 10048150     LIBCMT:thread_safe_statics.obj
 0003:00002154       ?encoded_wake_all_condition_variable@@3P6GXPAU_RTL_CONDITION_VARIABLE@@@ZA 10048154     LIBCMT:thread_safe_statics.obj
 0003:00002174       ?vec2_origin@@3VVector2D@@B 10048174     ILuaInterface.obj
 0003:0000217c       ?vec2_invalid@@3VVector2D@@B 1004817c     ILuaInterface.obj
 0003:00002188       ?vec2_origin@@3VVector2D@@B 10048188     ILuaModuleManager.obj
 0003:00002190       ?vec2_invalid@@3VVector2D@@B 10048190     ILuaModuleManager.obj
 0003:00002198       ?vec2_origin@@3VVector2D@@B 10048198     ILuaObject.obj
 0003:000021a0       ?vec2_invalid@@3VVector2D@@B 100481a0     ILuaObject.obj
 0003:000021a8       ?_2@placeholders@boost@@3U?$arg@$01@2@B 100481a8     main.obj
 0003:000021a9       ?_4@placeholders@boost@@3U?$arg@$03@2@B 100481a9     main.obj
 0003:000021aa       ?_8@placeholders@boost@@3U?$arg@$07@2@B 100481aa     main.obj
 0003:000021ab       ?_3@placeholders@boost@@3U?$arg@$02@2@B 100481ab     main.obj
 0003:000021ac       ?_1@placeholders@boost@@3U?$arg@$00@2@B 100481ac     main.obj
 0003:000021ad       ?_7@placeholders@boost@@3U?$arg@$06@2@B 100481ad     main.obj
 0003:000021ae       ?_6@placeholders@boost@@3U?$arg@$05@2@B 100481ae     main.obj
 0003:000021af       ?_5@placeholders@boost@@3U?$arg@$04@2@B 100481af     main.obj
 0003:000021b0       ?posix_category@system@boost@@3ABVerror_category@12@B 100481b0     main.obj
 0003:000021b4       ?vec4_origin@@3VVector4D@@B 100481b4     main.obj
 0003:000021c4       ?vec2_origin@@3VVector2D@@B 100481c4     main.obj
 0003:000021cc       ?native_ecat@system@boost@@3ABVerror_category@12@B 100481cc     main.obj
 0003:000021ec       ?_9@placeholders@boost@@3U?$arg@$08@2@B 100481ec     main.obj
 0003:000021ed       ?_2@placeholders@boost@@3U?$arg@$01@2@B 100481ed     nav.obj
 0003:000021ee       ?_4@placeholders@boost@@3U?$arg@$03@2@B 100481ee     nav.obj
 0003:000021ef       ?_8@placeholders@boost@@3U?$arg@$07@2@B 100481ef     nav.obj
 0003:000021f0       ?vec2_invalid@@3VVector2D@@B 100481f0     main.obj
 0003:000021f8       ?vec4_invalid@@3VVector4D@@B 100481f8     main.obj
 0003:00002208       ?errno_ecat@system@boost@@3ABVerror_category@12@B 10048208     main.obj
 0003:0000220c       ?vector_origin@@3VVector@@B 1004820c     main.obj
 0003:00002220       ?_3@placeholders@boost@@3U?$arg@$02@2@B 10048220     nav.obj
 0003:00002221       ?_1@placeholders@boost@@3U?$arg@$00@2@B 10048221     nav.obj
 0003:00002222       ?_7@placeholders@boost@@3U?$arg@$06@2@B 10048222     nav.obj
 0003:00002223       ?_6@placeholders@boost@@3U?$arg@$05@2@B 10048223     nav.obj
 0003:00002224       ?posix_category@system@boost@@3ABVerror_category@12@B 10048224     nav.obj
 0003:00002228       ?vec4_origin@@3VVector4D@@B 10048228     nav.obj
 0003:00002238       ?vec2_origin@@3VVector2D@@B 10048238     nav.obj
 0003:00002240       ?native_ecat@system@boost@@3ABVerror_category@12@B 10048240     nav.obj
 0003:00002244       ?_5@placeholders@boost@@3U?$arg@$04@2@B 10048244     nav.obj
 0003:00002245       ?_9@placeholders@boost@@3U?$arg@$08@2@B 10048245     nav.obj
 0003:00002246       ?_2@placeholders@boost@@3U?$arg@$01@2@B 10048246     node.obj
 0003:00002247       ?_4@placeholders@boost@@3U?$arg@$03@2@B 10048247     node.obj
 0003:00002248       ?vec2_invalid@@3VVector2D@@B 10048248     nav.obj
 0003:00002250       ?vec4_invalid@@3VVector4D@@B 10048250     nav.obj
 0003:00002260       ?errno_ecat@system@boost@@3ABVerror_category@12@B 10048260     nav.obj
 0003:00002264       ?vector_origin@@3VVector@@B 10048264     nav.obj
 0003:00002270       ?_8@placeholders@boost@@3U?$arg@$07@2@B 10048270     node.obj
 0003:00002271       ?_3@placeholders@boost@@3U?$arg@$02@2@B 10048271     node.obj
 0003:00002272       ?_1@placeholders@boost@@3U?$arg@$00@2@B 10048272     node.obj
 0003:00002273       ?_7@placeholders@boost@@3U?$arg@$06@2@B 10048273     node.obj
 0003:00002274       ?posix_category@system@boost@@3ABVerror_category@12@B 10048274     node.obj
 0003:00002278       ?vec2_origin@@3VVector2D@@B 10048278     node.obj
 0003:00002280       ?_6@placeholders@boost@@3U?$arg@$05@2@B 10048280     node.obj
 0003:00002281       ?_5@placeholders@boost@@3U?$arg@$04@2@B 10048281     node.obj
 0003:00002282       ?_9@placeholders@boost@@3U?$arg@$08@2@B 10048282     node.obj
 0003:00002284       ?native_ecat@system@boost@@3ABVerror_category@12@B 10048284     node.obj
 0003:00002288       ?vec2_invalid@@3VVector2D@@B 10048288     node.obj
 0003:00002290       ?errno_ecat@system@boost@@3ABVerror_category@12@B 10048290     node.obj
 0004:00000000       __guard_fids____dcrt_uninitialize_environments_nolock 10049000     libucrt:environment_initialization.obj
 0004:00000008       __guard_fids__             10049008     libucrt:initialization.obj
 0004:00000068       __guard_fids___beginthreadex 10049068     libucrt:thread.obj
 0004:0000006c       __guard_fids____acrt_initialize_ptd 1004906c     libucrt:per_thread_data.obj
 0004:00000070       __guard_fids__             10049070     libucrt:stdio_initializer.obj
 0004:00000074       __guard_fids__             10049074     libucrt:stdio_initializer.obj
 0004:00000078       __guard_fids_??$expand_argument_wildcards@D@@YAHQAD0AAV?$argument_list@D@?A0xb0e4b824@@@Z 10049078     libucrt:argv_wildcards.obj
 0004:0000007c       __guard_fids__             1004907c     libucrt:locale_initializer.obj
 0004:00000080       __guard_fids__             10049080     libucrt:multibyte_initializer.obj
 0004:00000084       __guard_fids____libm_error_support 10049084     libucrt:libm_error.obj
 0004:00000088       __guard_fids__             10049088     libucrt:sse2_initializer.obj
 0004:0000008c       __guard_fids__             1004908c     libucrt:console_output_initializer.obj
 0004:00000090       __guard_fids__             10049090     libcpmt:xthrow.obj
 0004:00000098       __guard_fids__             10049098     libcpmt:xthrow.obj
 0004:000000a0       __guard_fids__             100490a0     libcpmt:xthrow.obj
 0004:000000a8       __guard_fids__             100490a8     libcpmt:xthrow.obj
 0004:000000b0       __guard_fids__             100490b0     libcpmt:xthrow.obj
 0004:000000b8       __guard_fids__             100490b8     libcpmt:xthrow.obj
 0004:000000c0       __guard_fids__             100490c0     libcpmt:xthrow.obj
 0004:000000c4       __guard_fids__             100490c4     libcpmt:xthrow.obj
 0004:000000c8       __guard_fids__             100490c8     libcpmt:xthrow.obj
 0004:000000cc       __guard_fids__             100490cc     libcpmt:xthrow.obj
 0004:000000d0       __guard_fids__             100490d0     LIBCMT:std_type_info_static.obj
 0004:000000d4       __guard_fids_?dllmain_crt_process_attach@@YAHQAUHINSTANCE__@@QAX@Z 100490d4     LIBCMT:dll_dllmain.obj
 0004:000000dc       __guard_fids_?dllmain_dispatch@@YAHQAUHINSTANCE__@@KQAX@Z 100490dc     LIBCMT:dll_dllmain.obj
 0004:000000e0       __guard_fids__             100490e0     LIBCMT:throw_bad_alloc.obj
 0004:000000e8       __guard_fids__             100490e8     LIBCMT:throw_bad_alloc.obj
 0004:000000ec       __guard_fids__             100490ec     LIBCMT:throw_bad_alloc.obj
 0004:000000f0       __guard_fids__             100490f0     LIBCMT:guard_support.obj
 0004:000000f4       __guard_fids__             100490f4     legacy_stdio_wide_specifiers:legacy_stdio_wide_specifiers.obj
 0004:000000f8       __guard_fids__             100490f8     libvcruntime:frame.obj
 0004:000000fc       __guard_fids__             100490fc     libvcruntime:frame.obj
 0004:00000100       __guard_fids__             10049100     libvcruntime:frame.obj
 0004:00000104       __guard_fids__             10049104     libvcruntime:telemetry.obj
 0004:00000108       __guard_fids_?TraceLoggingRegister@__vcrt_trace_logging_provider@@YAJPBU_TlgProvider_t@1@PBU_GUID@@P6GX1KE_K2PAU_EVENT_FILTER_DESCRIPTOR@@PAX@Z4@Z 10049108     libvcruntime:telemetry.obj
 0004:0000010c       __guard_fids____vcrt_initialize_ptd 1004910c     libvcruntime:per_thread_data.obj
 0004:00000110       __guard_fids__             10049110     LIBCMT:thread_safe_statics.obj
 0004:00000114       __guard_fids_?__scrt_initialize_thread_safe_statics@@YAHXZ 10049114     LIBCMT:thread_safe_statics.obj
 0006:00000060       $R000000                   1004b060     * linker generated manifest res *
